TN:
SF:/home/cfair/Tutorial/DesignPatterns/weatherStation/catch/catch.hpp
FN:401,_ZN5Catch11NonCopyableC2Ev
FN:409,_ZN5Catch8SafeBool8makeSafeEb
FN:413,_ZNK5Catch8SafeBool9trueValueEv
FN:417,_ZN5Catch9deleteAllISt6vectorIPNS_14IGeneratorInfoESaIS3_EEEEvRT_
FN:417,_ZN5Catch9deleteAllISt6vectorIPKNS_20IExceptionTranslatorESaIS4_EEEEvRT_
FN:424,_ZN5Catch15deleteAllValuesISt3mapISsPNS_18IGeneratorsForTestESt4lessISsESaISt4pairIKSsS3_EEEEEvRT_
FN:441,_ZN5Catch9pluraliseD2Ev
FN:472,_ZN5Catch10alwaysTrueEv
FN:506,_ZN5Catch23NotImplementedExceptionD2Ev
FN:506,_ZN5Catch23NotImplementedExceptionD0Ev
FN:530,_ZN5Catch14IGeneratorInfoC2Ev
FN:536,_ZN5Catch18IGeneratorsForTestC2Ev
FN:563,_ZN5Catch3PtrINS_16TestCaseTracking8ITrackerEEC2Ev
FN:563,_ZN5Catch3PtrINS_22CumulativeReporterBase11SectionNodeEEC2Ev
FN:563,_ZN5Catch3PtrINS_18IStreamingReporterEEC2Ev
FN:563,_ZN5Catch3PtrINS_6ConfigEEC2Ev
FN:564,_ZN5Catch3PtrINS_22CumulativeReporterBase4NodeINS_14TestGroupStatsENS2_INS_13TestCaseStatsENS1_11SectionNodeEEEEEEC2EPS7_
FN:564,_ZN5Catch3PtrINS_16TestCaseTracking8ITrackerEEC2EPS2_
FN:564,_ZN5Catch3PtrINS_16IReporterFactoryEEC2EPS1_
FN:564,_ZN5Catch3PtrINS_22CumulativeReporterBase4NodeINS_13TestCaseStatsENS1_11SectionNodeEEEEC2EPS5_
FN:564,_ZN5Catch3PtrINS_18IStreamingReporterEEC2EPS1_
FN:564,_ZN5Catch3PtrINS_22CumulativeReporterBase4NodeINS_12TestRunStatsENS2_INS_14TestGroupStatsENS2_INS_13TestCaseStatsENS1_11SectionNodeEEEEEEEEC2EPS9_
FN:564,_ZN5Catch3PtrINS_9ITestCaseEEC2EPS1_
FN:564,_ZN5Catch3PtrIKNS_7IConfigEEC2EPS2_
FN:564,_ZN5Catch3PtrINS_6ConfigEEC2EPS1_
FN:564,_ZN5Catch3PtrINS_22CumulativeReporterBase11SectionNodeEEC2EPS2_
FN:564,_ZN5Catch3PtrINS_8TestSpec7PatternEEC2EPS2_
FN:568,_ZN5Catch3PtrINS_16TestCaseTracking8ITrackerEEC2ERKS3_
FN:568,_ZN5Catch3PtrINS_22CumulativeReporterBase4NodeINS_14TestGroupStatsENS2_INS_13TestCaseStatsENS1_11SectionNodeEEEEEEC2ERKS8_
FN:568,_ZN5Catch3PtrINS_22CumulativeReporterBase4NodeINS_13TestCaseStatsENS1_11SectionNodeEEEEC2ERKS6_
FN:568,_ZN5Catch3PtrINS_22CumulativeReporterBase4NodeINS_12TestRunStatsENS2_INS_14TestGroupStatsENS2_INS_13TestCaseStatsENS1_11SectionNodeEEEEEEEEC2ERKSA_
FN:568,_ZN5Catch3PtrINS_9ITestCaseEEC2ERKS2_
FN:568,_ZN5Catch3PtrINS_18IStreamingReporterEEC2ERKS2_
FN:568,_ZN5Catch3PtrIKNS_7IConfigEEC2ERKS3_
FN:568,_ZN5Catch3PtrINS_9IReporterEEC2ERKS2_
FN:568,_ZN5Catch3PtrINS_8TestSpec7PatternEEC2ERKS3_
FN:568,_ZN5Catch3PtrINS_22CumulativeReporterBase11SectionNodeEEC2ERKS3_
FN:568,_ZN5Catch3PtrINS_16IReporterFactoryEEC2ERKS2_
FN:572,_ZN5Catch3PtrINS_22CumulativeReporterBase4NodeINS_14TestGroupStatsENS2_INS_13TestCaseStatsENS1_11SectionNodeEEEEEED2Ev
FN:572,_ZN5Catch3PtrINS_18IStreamingReporterEED2Ev
FN:572,_ZN5Catch3PtrINS_9ITestCaseEED2Ev
FN:572,_ZN5Catch3PtrINS_22CumulativeReporterBase4NodeINS_13TestCaseStatsENS1_11SectionNodeEEEED2Ev
FN:572,_ZN5Catch3PtrINS_9IReporterEED2Ev
FN:572,_ZN5Catch3PtrINS_22CumulativeReporterBase4NodeINS_12TestRunStatsENS2_INS_14TestGroupStatsENS2_INS_13TestCaseStatsENS1_11SectionNodeEEEEEEEED2Ev
FN:572,_ZN5Catch3PtrINS_16IReporterFactoryEED2Ev
FN:572,_ZN5Catch3PtrINS_8TestSpec7PatternEED2Ev
FN:572,_ZN5Catch3PtrINS_16TestCaseTracking8ITrackerEED2Ev
FN:572,_ZN5Catch3PtrIKNS_7IConfigEED2Ev
FN:572,_ZN5Catch3PtrINS_22CumulativeReporterBase11SectionNodeEED2Ev
FN:572,_ZN5Catch3PtrINS_6ConfigEED2Ev
FN:576,_ZN5Catch3PtrINS_6ConfigEE5resetEv
FN:576,_ZN5Catch3PtrINS_22CumulativeReporterBase11SectionNodeEE5resetEv
FN:581,_ZN5Catch3PtrINS_6ConfigEEaSEPS1_
FN:581,_ZN5Catch3PtrINS_8TestSpec7PatternEEaSEPS2_
FN:581,_ZN5Catch3PtrINS_22CumulativeReporterBase11SectionNodeEEaSEPS2_
FN:581,_ZN5Catch3PtrINS_16TestCaseTracking8ITrackerEEaSEPS2_
FN:586,_ZN5Catch3PtrIKNS_7IConfigEEaSERKS3_
FN:586,_ZN5Catch3PtrINS_22CumulativeReporterBase11SectionNodeEEaSERKS3_
FN:586,_ZN5Catch3PtrINS_18IStreamingReporterEEaSERKS2_
FN:591,_ZN5Catch3PtrINS_18IStreamingReporterEE4swapERS2_
FN:591,_ZN5Catch3PtrINS_8TestSpec7PatternEE4swapERS3_
FN:591,_ZN5Catch3PtrINS_9ITestCaseEE4swapERS2_
FN:591,_ZN5Catch3PtrINS_16TestCaseTracking8ITrackerEE4swapERS3_
FN:591,_ZN5Catch3PtrIKNS_7IConfigEE4swapERS3_
FN:591,_ZN5Catch3PtrINS_22CumulativeReporterBase11SectionNodeEE4swapERS3_
FN:591,_ZN5Catch3PtrINS_6ConfigEE4swapERS2_
FN:592,_ZNK5Catch3PtrINS_9ITestCaseEE3getEv
FN:592,_ZNK5Catch3PtrINS_16TestCaseTracking8ITrackerEE3getEv
FN:592,_ZNK5Catch3PtrINS_6ConfigEE3getEv
FN:593,_ZNK5Catch3PtrINS_6ConfigEEdeEv
FN:593,_ZNK5Catch3PtrINS_22CumulativeReporterBase4NodeINS_13TestCaseStatsENS1_11SectionNodeEEEEdeEv
FN:593,_ZNK5Catch3PtrINS_22CumulativeReporterBase4NodeINS_14TestGroupStatsENS2_INS_13TestCaseStatsENS1_11SectionNodeEEEEEEdeEv
FN:593,_ZNK5Catch3PtrINS_22CumulativeReporterBase11SectionNodeEEdeEv
FN:593,_ZNK5Catch3PtrINS_16TestCaseTracking8ITrackerEEdeEv
FN:593,_ZNK5Catch3PtrIKNS_7IConfigEEdeEv
FN:594,_ZNK5Catch3PtrINS_6ConfigEEptEv
FN:594,_ZNK5Catch3PtrINS_9IReporterEEptEv
FN:594,_ZNK5Catch3PtrINS_22CumulativeReporterBase4NodeINS_13TestCaseStatsENS1_11SectionNodeEEEEptEv
FN:594,_ZNK5Catch3PtrINS_16IReporterFactoryEEptEv
FN:594,_ZNK5Catch3PtrINS_18IStreamingReporterEEptEv
FN:594,_ZNK5Catch3PtrINS_22CumulativeReporterBase4NodeINS_12TestRunStatsENS2_INS_14TestGroupStatsENS2_INS_13TestCaseStatsENS1_11SectionNodeEEEEEEEEptEv
FN:594,_ZNK5Catch3PtrINS_22CumulativeReporterBase4NodeINS_14TestGroupStatsENS2_INS_13TestCaseStatsENS1_11SectionNodeEEEEEEptEv
FN:594,_ZNK5Catch3PtrINS_16TestCaseTracking8ITrackerEEptEv
FN:594,_ZNK5Catch3PtrINS_9ITestCaseEEptEv
FN:594,_ZNK5Catch3PtrINS_22CumulativeReporterBase11SectionNodeEEptEv
FN:594,_ZNK5Catch3PtrIKNS_7IConfigEEptEv
FN:594,_ZNK5Catch3PtrINS_8TestSpec7PatternEEptEv
FN:595,_ZNK5Catch3PtrINS_6ConfigEEntEv
FN:595,_ZNK5Catch3PtrINS_18IStreamingReporterEEntEv
FN:595,_ZNK5Catch3PtrINS_22CumulativeReporterBase11SectionNodeEEntEv
FN:596,_ZNK5Catch3PtrINS_18IStreamingReporterEEcvMNS_8SafeBoolEKFvvEEv
FN:596,_ZNK5Catch3PtrINS_22CumulativeReporterBase11SectionNodeEEcvMNS_8SafeBoolEKFvvEEv
FN:596,_ZNK5Catch3PtrIKNS_7IConfigEEcvMNS_8SafeBoolEKFvvEEv
FN:602,_ZN5Catch7ISharedC2Ev
FN:609,_ZN5Catch10SharedImplINS_18IStreamingReporterEED2Ev
FN:609,_ZN5Catch10SharedImplINS_9ITestCaseEED2Ev
FN:609,_ZN5Catch10SharedImplINS_16IReporterFactoryEED0Ev
FN:609,_ZN5Catch10SharedImplINS_9ITestCaseEED0Ev
FN:609,_ZN5Catch10SharedImplINS_7ISharedEED0Ev
FN:609,_ZN5Catch10SharedImplINS_7ISharedEED2Ev
FN:609,_ZN5Catch10SharedImplINS_16IReporterFactoryEED2Ev
FN:609,_ZN5Catch10SharedImplINS_7IConfigEED2Ev
FN:609,_ZN5Catch10SharedImplINS_18IStreamingReporterEED0Ev
FN:609,_ZN5Catch10SharedImplINS_7IConfigEED0Ev
FN:611,_ZN5Catch10SharedImplINS_7ISharedEEC2Ev
FN:611,_ZN5Catch10SharedImplINS_7IConfigEEC2Ev
FN:611,_ZN5Catch10SharedImplINS_16IReporterFactoryEEC2Ev
FN:611,_ZN5Catch10SharedImplINS_9ITestCaseEEC2Ev
FN:611,_ZN5Catch10SharedImplINS_18IStreamingReporterEEC2Ev
FN:613,_ZNK5Catch10SharedImplINS_18IStreamingReporterEE6addRefEv
FN:613,_ZNK5Catch10SharedImplINS_7ISharedEE6addRefEv
FN:613,_ZNK5Catch10SharedImplINS_7IConfigEE6addRefEv
FN:613,_ZNK5Catch10SharedImplINS_16IReporterFactoryEE6addRefEv
FN:613,_ZNK5Catch10SharedImplINS_9ITestCaseEE6addRefEv
FN:616,_ZNK5Catch10SharedImplINS_7IConfigEE7releaseEv
FN:616,_ZNK5Catch10SharedImplINS_9ITestCaseEE7releaseEv
FN:616,_ZNK5Catch10SharedImplINS_16IReporterFactoryEE7releaseEv
FN:616,_ZNK5Catch10SharedImplINS_7ISharedEE7releaseEv
FN:616,_ZNK5Catch10SharedImplINS_18IStreamingReporterEE7releaseEv
FN:639,_ZN5Catch8IContextC2Ev
FN:650,_ZN5Catch15IMutableContextC2Ev
FN:677,_ZN5Catch9ITestCaseC2Ev
FN:686,_ZN5Catch17ITestCaseRegistryC2Ev
FN:860,_ZN5Catch4isOkENS_9ResultWas6OfTypeE
FN:881,_ZN5Catch11isFalseTestEi
FN:882,_ZN5Catch21shouldSuppressFailureEi
FN:895,_ZN5Catch20DecomposedExpressionC2Ev
FN:897,_ZN5Catch20DecomposedExpressionD2Ev
FN:897,_ZN5Catch20DecomposedExpressionD0Ev
FN:898,_ZNK5Catch20DecomposedExpression18isBinaryExpressionEv
FN:917,_ZN5Catch13AssertionInfoaSERKS0_
FN:917,_ZN5Catch13AssertionInfoD2Ev
FN:917,_ZN5Catch13AssertionInfoC2EOS0_
FN:917,_ZN5Catch13AssertionInfoaSEOS0_
FN:917,_ZN5Catch13AssertionInfoC2ERKS0_
FN:919,_ZN5Catch13AssertionInfoC2Ev
FN:931,_ZN5Catch19AssertionResultDataC2EOS0_
FN:931,_ZN5Catch19AssertionResultDataD2Ev
FN:931,_ZN5Catch19AssertionResultDataaSERKS0_
FN:931,_ZN5Catch19AssertionResultDataC2ERKS0_
FN:933,_ZN5Catch19AssertionResultDataC2Ev
FN:938,_ZN5Catch19AssertionResultData6negateEb
FN:947,_ZNK5Catch19AssertionResultData21reconstructExpressionEv
FN:970,_ZN5Catch15AssertionResultaSERKS0_
FN:976,_ZN5Catch15AssertionResultC2ERKS0_
FN:977,_ZN5Catch15AssertionResultC2EOS0_
FN:1015,_ZN5Catch8Matchers4Impl18MatcherUntypedBaseD2Ev
FN:1015,_ZN5Catch8Matchers4Impl18MatcherUntypedBaseC2Ev
FN:1017,_ZNK5Catch8Matchers4Impl18MatcherUntypedBase8toStringEv
FN:1031,_ZN5Catch8Matchers4Impl11MatcherBaseISsSsEC2Ev
FN:1031,_ZN5Catch8Matchers4Impl11MatcherBaseISsSsED2Ev
FN:1041,_ZN5Catch8Matchers4Impl10MatchAllOfISsEC2Ev
FN:1041,_ZN5Catch8Matchers4Impl10MatchAllOfISsED2Ev
FN:1042,_ZNK5Catch8Matchers4Impl10MatchAllOfISsE5matchERKSs
FN:1049,_ZNK5Catch8Matchers4Impl10MatchAllOfISsE8describeEv
FN:1167,_ZN5Catch14CopyableStreamD2Ev
FN:1168,_ZN5Catch14CopyableStreamC2Ev
FN:1180,_ZN5Catch13ResultBuilderD2Ev
FN:1180,_ZN5Catch13ResultBuilderD0Ev
FN:1193,_ZN5Catch13ResultBuilderlsISsEERS0_RKT_
FN:1932,_ZN5Catch11MessageInfoD2Ev
FN:1932,_ZN5Catch11MessageInfoC2EOS0_
FN:1932,_ZN5Catch11MessageInfoC2ERKS0_
FN:1932,_ZN5Catch11MessageInfoaSEOS0_
FN:1943,_ZNK5Catch11MessageInfoeqERKS0_
FN:1953,_ZN5Catch14MessageBuilderD2Ev
FN:1954,_ZN5Catch14MessageBuilderC2ERKSsRKNS_14SourceLineInfoENS_9ResultWas6OfTypeE
FN:1961,_ZN5Catch14MessageBuilderlsISsEERS0_RKT_
FN:1997,_ZN5Catch14IResultCaptureC2Ev
FN:2090,_ZN5Catch7IRunnerC2Ev
FN:2279,_ZN5Catch6CountsC2Ev
FN:2281,_ZNK5Catch6CountsmiERKS0_
FN:2288,_ZN5Catch6CountspLERKS0_
FN:2295,_ZNK5Catch6Counts5totalEv
FN:2298,_ZNK5Catch6Counts9allPassedEv
FN:2301,_ZNK5Catch6Counts5allOkEv
FN:2310,_ZN5Catch6TotalsC2Ev
FN:2312,_ZNK5Catch6TotalsmiERKS0_
FN:2319,_ZNK5Catch6Totals5deltaERKS0_
FN:2330,_ZN5Catch6TotalspLERKS0_
FN:2345,_ZN5Catch11SectionInfoD2Ev
FN:2345,_ZN5Catch11SectionInfoC2ERKS0_
FN:2345,_ZN5Catch11SectionInfoaSERKS0_
FN:2345,_ZN5Catch11SectionInfoC2EOS0_
FN:2356,_ZN5Catch14SectionEndInfoD2Ev
FN:2356,_ZN5Catch14SectionEndInfoC2ERKS0_
FN:2356,_ZN5Catch14SectionEndInfoC2EOS0_
FN:2357,_ZN5Catch14SectionEndInfoC2ERKNS_11SectionInfoERKNS_6CountsEd
FN:2381,_ZN5Catch5TimerC2Ev
FN:2624,_ZN5Catch12IRegistryHubC2Ev
FN:2632,_ZN5Catch19IMutableRegistryHubC2Ev
FN:2659,_ZN5Catch28IExceptionTranslatorRegistryC2Ev
FN:2885,_ZN5Catch8Matchers9StdString11CasedStringC2ERKS2_
FN:2885,_ZN5Catch8Matchers9StdString11CasedStringD2Ev
FN:2895,_ZN5Catch8Matchers9StdString17StringMatcherBaseD2Ev
FN:2903,_ZN5Catch8Matchers9StdString13EqualsMatcherD2Ev
FN:3034,_ZN5Catch8TagAliasD2Ev
FN:3034,_ZN5Catch8TagAliasC2ERKS0_
FN:3034,_ZN5Catch8TagAliasC2EOS0_
FN:3035,_ZN5Catch8TagAliasC2ESsNS_14SourceLineInfoE
FN:3057,_ZN5Catch6OptionINS_12TestCaseInfoEEC2Ev
FN:3057,_ZN5Catch6OptionINS_9GroupInfoEEC2Ev
FN:3057,_ZN5Catch6OptionINS_8TagAliasEEC2Ev
FN:3057,_ZN5Catch6OptionIjEC2Ev
FN:3057,_ZN5Catch6OptionINS_11TestRunInfoEEC2Ev
FN:3058,_ZN5Catch6OptionINS_8TagAliasEEC2ERKS1_
FN:3065,_ZN5Catch6OptionINS_9GroupInfoEED2Ev
FN:3065,_ZN5Catch6OptionINS_8TagAliasEED2Ev
FN:3065,_ZN5Catch6OptionIjED2Ev
FN:3065,_ZN5Catch6OptionINS_11TestRunInfoEED2Ev
FN:3065,_ZN5Catch6OptionINS_12TestCaseInfoEED2Ev
FN:3077,_ZN5Catch6OptionINS_9GroupInfoEEaSERKS1_
FN:3077,_ZN5Catch6OptionINS_12TestCaseInfoEEaSERKS1_
FN:3077,_ZN5Catch6OptionINS_11TestRunInfoEEaSERKS1_
FN:3077,_ZN5Catch6OptionIjEaSERKj
FN:3083,_ZN5Catch6OptionINS_11TestRunInfoEE5resetEv
FN:3083,_ZN5Catch6OptionIjE5resetEv
FN:3083,_ZN5Catch6OptionINS_9GroupInfoEE5resetEv
FN:3083,_ZN5Catch6OptionINS_8TagAliasEE5resetEv
FN:3083,_ZN5Catch6OptionINS_12TestCaseInfoEE5resetEv
FN:3089,_ZN5Catch6OptionIjEdeEv
FN:3091,_ZN5Catch6OptionINS_8TagAliasEEptEv
FN:3091,_ZN5Catch6OptionINS_12TestCaseInfoEEptEv
FN:3091,_ZN5Catch6OptionINS_9GroupInfoEEptEv
FN:3091,_ZN5Catch6OptionINS_11TestRunInfoEEptEv
FN:3094,_ZNK5Catch6OptionIjE7valueOrERKj
FN:3098,_ZNK5Catch6OptionIjE4someEv
FN:3102,_ZNK5Catch6OptionIjEcvMNS_8SafeBoolEKFvvEEv
FN:3115,_ZN5Catch17ITagAliasRegistryC2Ev
FN:3142,_ZN5Catch12TestCaseInfoD2Ev
FN:3177,_ZN5Catch8TestCaseD2Ev
FN:3481,_ZN5Catch15WildcardPatternC2ERKSsNS_13CaseSensitive6ChoiceE
FN:3496,_ZNK5Catch15WildcardPattern7matchesERKSs
FN:3518,_ZNK5Catch15WildcardPattern10adjustCaseERKSs
FN:3532,_ZN5Catch8TestSpecaSEOS0_
FN:3532,_ZN5Catch8TestSpecC2ERKS0_
FN:3532,_ZN5Catch8TestSpecD2Ev
FN:3532,_ZN5Catch8TestSpecC2Ev
FN:3533,_ZN5Catch8TestSpec7PatternC2Ev
FN:3539,_ZN5Catch8TestSpec11NamePatternC2ERKSs
FN:3543,_ZNK5Catch8TestSpec11NamePattern7matchesERKNS_12TestCaseInfoE
FN:3552,_ZN5Catch8TestSpec10TagPatternC2ERKSs
FN:3554,_ZNK5Catch8TestSpec10TagPattern7matchesERKNS_12TestCaseInfoE
FN:3563,_ZN5Catch8TestSpec15ExcludedPatternC2ERKNS_3PtrINS0_7PatternEEE
FN:3565,_ZNK5Catch8TestSpec15ExcludedPattern7matchesERKNS_12TestCaseInfoE
FN:3570,_ZN5Catch8TestSpec6FilterC2EOS1_
FN:3570,_ZN5Catch8TestSpec6FilteraSEOS1_
FN:3570,_ZN5Catch8TestSpec6FilterD2Ev
FN:3570,_ZN5Catch8TestSpec6FilterC2Ev
FN:3570,_ZN5Catch8TestSpec6FilterC2ERKS1_
FN:3573,_ZNK5Catch8TestSpec6Filter7matchesERKNS_12TestCaseInfoE
FN:3584,_ZNK5Catch8TestSpec10hasFiltersEv
FN:3587,_ZNK5Catch8TestSpec7matchesERKNS_12TestCaseInfoE
FN:3608,_ZN5Catch14TestSpecParserD2Ev
FN:3620,_ZN5Catch14TestSpecParserC2ERKNS_17ITagAliasRegistryE
FN:3622,_ZN5Catch14TestSpecParser5parseERKSs
FN:3634,_ZN5Catch14TestSpecParser8testSpecEv
FN:3639,_ZN5Catch14TestSpecParser9visitCharEc
FN:3672,_ZN5Catch14TestSpecParser12startNewModeENS0_4ModeEj
FN:3676,_ZN5Catch14TestSpecParser6escapeEv
FN:3682,_ZNK5Catch14TestSpecParser9subStringEv
FN:3684,_ZN5Catch14TestSpecParser10addPatternINS_8TestSpec11NamePatternEEEvv
FN:3684,_ZN5Catch14TestSpecParser10addPatternINS_8TestSpec10TagPatternEEEvv
FN:3702,_ZN5Catch14TestSpecParser9addFilterEv
FN:3757,_ZN5Catch7IConfigC2Ev
FN:3789,_ZN5Catch13StreamBufBaseC2Ev
FN:3805,_ZN5Catch7IStreamC2Ev
FN:3852,_ZN5Catch10ConfigDataD2Ev
FN:3852,_ZN5Catch10ConfigDataC2ERKS0_
FN:3854,_ZN5Catch10ConfigDataC2Ev
FN:3914,_ZN5Catch6ConfigC2ERKNS_10ConfigDataE
FN:3926,_ZN5Catch6ConfigD0Ev
FN:3926,_ZN5Catch6ConfigD2Ev
FN:3932,_ZNK5Catch6Config9listTestsEv
FN:3933,_ZNK5Catch6Config17listTestNamesOnlyEv
FN:3934,_ZNK5Catch6Config8listTagsEv
FN:3935,_ZNK5Catch6Config13listReportersEv
FN:3939,_ZNK5Catch6Config16getReporterNamesEv
FN:3940,_ZNK5Catch6Config16getSectionsToRunEv
FN:3942,_ZNK5Catch6Config8testSpecEv
FN:3947,_ZNK5Catch6Config11allowThrowsEv
FN:3948,_ZNK5Catch6Config6streamEv
FN:3949,_ZNK5Catch6Config4nameEv
FN:3950,_ZNK5Catch6Config24includeSuccessfulResultsEv
FN:3951,_ZNK5Catch6Config26warnAboutMissingAssertionsEv
FN:3952,_ZNK5Catch6Config13showDurationsEv
FN:3953,_ZNK5Catch6Config8runOrderEv
FN:3954,_ZNK5Catch6Config7rngSeedEv
FN:3955,_ZNK5Catch6Config9useColourEv
FN:3956,_ZNK5Catch6Config16shouldDebugBreakEv
FN:3957,_ZNK5Catch6Config10abortAfterEv
FN:3958,_ZNK5Catch6Config14showInvisiblesEv
FN:3962,_ZN5Catch6Config10openStreamEv
FN:4038,_ZN3Tbc14TextAttributesC2Ev
FN:4046,_ZN3Tbc14TextAttributes9setIndentEj
FN:4047,_ZN3Tbc14TextAttributes8setWidthEj
FN:4056,_ZN3Tbc4TextD2Ev
FN:4058,_ZN3Tbc4TextC2ERKSsRKNS_14TextAttributesE
FN:4114,_ZN3Tbc4Text10spliceLineEjRSsj
FN:4124,_ZNK3Tbc4Text4sizeEv
FN:4125,_ZNK3Tbc4TextixEj
FN:4341,_ZN5Catch5Clara6Detail10startsWithERKSsS3_
FN:4354,_ZN5Catch5Clara6Detail11convertIntoIiEEvRKSsRT_
FN:4361,_ZN5Catch5Clara6Detail11convertIntoERKSsRSs
FN:4364,_ZN5Catch5Clara6Detail9toLowerChEc
FN:4367,_ZN5Catch5Clara6Detail11convertIntoERKSsRb
FN:4380,_ZN5Catch5Clara6Detail12IArgFunctionINS_10ConfigDataEED2Ev
FN:4380,_ZN5Catch5Clara6Detail12IArgFunctionINS_10ConfigDataEED0Ev
FN:4382,_ZN5Catch5Clara6Detail12IArgFunctionINS_10ConfigDataEEC2Ev
FN:4383,_ZN5Catch5Clara6Detail12IArgFunctionINS_10ConfigDataEEC2ERKS4_
FN:4393,_ZN5Catch5Clara6Detail16BoundArgFunctionINS_10ConfigDataEEC2Ev
FN:4394,_ZN5Catch5Clara6Detail16BoundArgFunctionINS_10ConfigDataEEC2EPNS1_12IArgFunctionIS3_EE
FN:4395,_ZN5Catch5Clara6Detail16BoundArgFunctionINS_10ConfigDataEEC2ERKS4_
FN:4396,_ZN5Catch5Clara6Detail16BoundArgFunctionINS_10ConfigDataEEaSERKS4_
FN:4402,_ZN5Catch5Clara6Detail16BoundArgFunctionINS_10ConfigDataEED2Ev
FN:4404,_ZNK5Catch5Clara6Detail16BoundArgFunctionINS_10ConfigDataEE3setERS3_RKSs
FN:4409,_ZNK5Catch5Clara6Detail16BoundArgFunctionINS_10ConfigDataEE5isSetEv
FN:4417,_ZN5Catch5Clara6Detail10NullBinderINS_10ConfigDataEED0Ev
FN:4417,_ZN5Catch5Clara6Detail10NullBinderINS_10ConfigDataEEC2Ev
FN:4417,_ZN5Catch5Clara6Detail10NullBinderINS_10ConfigDataEED2Ev
FN:4417,_ZN5Catch5Clara6Detail10NullBinderINS_10ConfigDataEEC2ERKS4_
FN:4418,_ZNK5Catch5Clara6Detail10NullBinderINS_10ConfigDataEE3setERS3_RKSs
FN:4419,_ZNK5Catch5Clara6Detail10NullBinderINS_10ConfigDataEE8takesArgEv
FN:4420,_ZNK5Catch5Clara6Detail10NullBinderINS_10ConfigDataEE5cloneEv
FN:4424,_ZN5Catch5Clara6Detail15BoundDataMemberINS_10ConfigDataESsEC2ERKS4_
FN:4424,_ZN5Catch5Clara6Detail15BoundDataMemberINS_10ConfigDataEbED2Ev
FN:4424,_ZN5Catch5Clara6Detail15BoundDataMemberINS_10ConfigDataESsED0Ev
FN:4424,_ZN5Catch5Clara6Detail15BoundDataMemberINS_10ConfigDataESsED2Ev
FN:4424,_ZN5Catch5Clara6Detail15BoundDataMemberINS_10ConfigDataEbEC2ERKS4_
FN:4424,_ZN5Catch5Clara6Detail15BoundDataMemberINS_10ConfigDataEbED0Ev
FN:4425,_ZN5Catch5Clara6Detail15BoundDataMemberINS_10ConfigDataESsEC2EMS3_Ss
FN:4425,_ZN5Catch5Clara6Detail15BoundDataMemberINS_10ConfigDataEbEC2EMS3_b
FN:4426,_ZNK5Catch5Clara6Detail15BoundDataMemberINS_10ConfigDataESsE3setERS3_RKSs
FN:4426,_ZNK5Catch5Clara6Detail15BoundDataMemberINS_10ConfigDataEbE3setERS3_RKSs
FN:4429,_ZNK5Catch5Clara6Detail15BoundDataMemberINS_10ConfigDataESsE8takesArgEv
FN:4429,_ZNK5Catch5Clara6Detail15BoundDataMemberINS_10ConfigDataEbE8takesArgEv
FN:4430,_ZNK5Catch5Clara6Detail15BoundDataMemberINS_10ConfigDataESsE5cloneEv
FN:4430,_ZNK5Catch5Clara6Detail15BoundDataMemberINS_10ConfigDataEbE5cloneEv
FN:4460,_ZN5Catch5Clara6Detail18BoundUnaryFunctionINS_10ConfigDataEED2Ev
FN:4460,_ZN5Catch5Clara6Detail18BoundUnaryFunctionINS_10ConfigDataEEC2ERKS4_
FN:4460,_ZN5Catch5Clara6Detail18BoundUnaryFunctionINS_10ConfigDataEED0Ev
FN:4461,_ZN5Catch5Clara6Detail18BoundUnaryFunctionINS_10ConfigDataEEC2EPFvRS3_E
FN:4462,_ZNK5Catch5Clara6Detail18BoundUnaryFunctionINS_10ConfigDataEE3setERS3_RKSs
FN:4468,_ZNK5Catch5Clara6Detail18BoundUnaryFunctionINS_10ConfigDataEE8takesArgEv
FN:4469,_ZNK5Catch5Clara6Detail18BoundUnaryFunctionINS_10ConfigDataEE5cloneEv
FN:4474,_ZN5Catch5Clara6Detail19BoundBinaryFunctionINS_10ConfigDataEbED0Ev
FN:4474,_ZN5Catch5Clara6Detail19BoundBinaryFunctionINS_10ConfigDataEbED2Ev
FN:4474,_ZN5Catch5Clara6Detail19BoundBinaryFunctionINS_10ConfigDataEbEC2ERKS4_
FN:4474,_ZN5Catch5Clara6Detail19BoundBinaryFunctionINS_10ConfigDataERKSsEC2ERKS6_
FN:4474,_ZN5Catch5Clara6Detail19BoundBinaryFunctionINS_10ConfigDataEiEC2ERKS4_
FN:4474,_ZN5Catch5Clara6Detail19BoundBinaryFunctionINS_10ConfigDataERKSsED2Ev
FN:4474,_ZN5Catch5Clara6Detail19BoundBinaryFunctionINS_10ConfigDataEiED2Ev
FN:4474,_ZN5Catch5Clara6Detail19BoundBinaryFunctionINS_10ConfigDataERKSsED0Ev
FN:4474,_ZN5Catch5Clara6Detail19BoundBinaryFunctionINS_10ConfigDataEiED0Ev
FN:4475,_ZN5Catch5Clara6Detail19BoundBinaryFunctionINS_10ConfigDataEiEC2EPFvRS3_iE
FN:4475,_ZN5Catch5Clara6Detail19BoundBinaryFunctionINS_10ConfigDataERKSsEC2EPFvRS3_S5_E
FN:4475,_ZN5Catch5Clara6Detail19BoundBinaryFunctionINS_10ConfigDataEbEC2EPFvRS3_bE
FN:4476,_ZNK5Catch5Clara6Detail19BoundBinaryFunctionINS_10ConfigDataERKSsE3setERS3_S5_
FN:4476,_ZNK5Catch5Clara6Detail19BoundBinaryFunctionINS_10ConfigDataEbE3setERS3_RKSs
FN:4476,_ZNK5Catch5Clara6Detail19BoundBinaryFunctionINS_10ConfigDataEiE3setERS3_RKSs
FN:4481,_ZNK5Catch5Clara6Detail19BoundBinaryFunctionINS_10ConfigDataEbE8takesArgEv
FN:4481,_ZNK5Catch5Clara6Detail19BoundBinaryFunctionINS_10ConfigDataEiE8takesArgEv
FN:4481,_ZNK5Catch5Clara6Detail19BoundBinaryFunctionINS_10ConfigDataERKSsE8takesArgEv
FN:4482,_ZNK5Catch5Clara6Detail19BoundBinaryFunctionINS_10ConfigDataEiE5cloneEv
FN:4482,_ZNK5Catch5Clara6Detail19BoundBinaryFunctionINS_10ConfigDataERKSsE5cloneEv
FN:4482,_ZNK5Catch5Clara6Detail19BoundBinaryFunctionINS_10ConfigDataEbE5cloneEv
FN:4488,_ZN5Catch5Clara12argsToVectorEiPKPKc
FN:4503,_ZN5Catch5Clara6Parser5TokenC2EOS2_
FN:4503,_ZN5Catch5Clara6Parser5TokenD2Ev
FN:4503,_ZN5Catch5Clara6Parser5TokenC2ERKS2_
FN:4505,_ZN5Catch5Clara6Parser5TokenC2ENS2_4TypeERKSs
FN:4510,_ZN5Catch5Clara6ParserC2Ev
FN:4512,_ZN5Catch5Clara6Parser15parseIntoTokensERKSt6vectorISsSaISsEERS2_INS1_5TokenESaIS7_EE
FN:4518,_ZN5Catch5Clara6Parser15parseIntoTokensERKSsRSt6vectorINS1_5TokenESaIS5_EE
FN:4526,_ZN5Catch5Clara6Parser10handleModeEjcRKSsRSt6vectorINS1_5TokenESaIS5_EE
FN:4538,_ZN5Catch5Clara6Parser10handleNoneEjc
FN:4551,_ZN5Catch5Clara6Parser19handleMaybeShortOptEjc
FN:4557,_ZN5Catch5Clara6Parser9handleOptEjcRKSsRSt6vectorINS1_5TokenESaIS5_EE
FN:4571,_ZN5Catch5Clara6Parser16handlePositionalEjcRKSsRSt6vectorINS1_5TokenESaIS5_EE
FN:4582,_ZN5Catch5Clara19CommonArgPropertiesINS_10ConfigDataEEC2ERKS3_
FN:4582,_ZN5Catch5Clara19CommonArgPropertiesINS_10ConfigDataEED2Ev
FN:4582,_ZN5Catch5Clara19CommonArgPropertiesINS_10ConfigDataEEC2EOS3_
FN:4583,_ZN5Catch5Clara19CommonArgPropertiesINS_10ConfigDataEEC2Ev
FN:4591,_ZNK5Catch5Clara19CommonArgPropertiesINS_10ConfigDataEE8takesArgEv
FN:4594,_ZNK5Catch5Clara19CommonArgPropertiesINS_10ConfigDataEE8validateEv
FN:4599,_ZN5Catch5Clara19OptionArgPropertiesC2Ev
FN:4599,_ZN5Catch5Clara19OptionArgPropertiesC2ERKS1_
FN:4599,_ZN5Catch5Clara19OptionArgPropertiesC2EOS1_
FN:4599,_ZN5Catch5Clara19OptionArgPropertiesD2Ev
FN:4603,_ZNK5Catch5Clara19OptionArgProperties12hasShortNameERKSs
FN:4606,_ZNK5Catch5Clara19OptionArgProperties11hasLongNameERKSs
FN:4611,_ZN5Catch5Clara23PositionalArgPropertiesC2Ev
FN:4620,_ZN5Catch5Clara11CommandLineINS_10ConfigDataEED2Ev
FN:4622,_ZN5Catch5Clara11CommandLineINS_10ConfigDataEE3ArgC2EOS4_
FN:4622,_ZN5Catch5Clara11CommandLineINS_10ConfigDataEE3ArgC2ERKS4_
FN:4622,_ZN5Catch5Clara11CommandLineINS_10ConfigDataEE3ArgD2Ev
FN:4623,_ZN5Catch5Clara11CommandLineINS_10ConfigDataEE3ArgC2Ev
FN:4635,_ZNK5Catch5Clara11CommandLineINS_10ConfigDataEE3Arg8commandsEv
FN:4659,_ZN5Catch5Clara10addOptNameERNS0_11CommandLineINS_10ConfigDataEE3ArgERKSs
FN:4683,_ZN5Catch5Clara11CommandLineINS_10ConfigDataEE10ArgBuilderC2EPNS3_3ArgE
FN:4687,_ZN5Catch5Clara11CommandLineINS_10ConfigDataEE10ArgBuilder4bindIS2_SsEEvMT_T0_RKSs
FN:4693,_ZN5Catch5Clara11CommandLineINS_10ConfigDataEE10ArgBuilder4bindIS2_EEvMT_b
FN:4718,_ZN5Catch5Clara11CommandLineINS_10ConfigDataEE10ArgBuilder4bindIS2_EEvPFvRT_E
FN:4724,_ZN5Catch5Clara11CommandLineINS_10ConfigDataEE10ArgBuilder4bindIS2_RKSsEEvPFvRT_T0_ES7_
FN:4724,_ZN5Catch5Clara11CommandLineINS_10ConfigDataEE10ArgBuilder4bindIS2_iEEvPFvRT_T0_ERKSs
FN:4724,_ZN5Catch5Clara11CommandLineINS_10ConfigDataEE10ArgBuilder4bindIS2_bEEvPFvRT_T0_ERKSs
FN:4729,_ZN5Catch5Clara11CommandLineINS_10ConfigDataEE10ArgBuilder8describeERKSs
FN:4744,_ZN5Catch5Clara11CommandLineINS_10ConfigDataEE10OptBuilderC2EPNS3_3ArgE
FN:4747,_ZN5Catch5Clara11CommandLineINS_10ConfigDataEE10OptBuilderixERKSs
FN:4755,_ZN5Catch5Clara11CommandLineINS_10ConfigDataEEC2Ev
FN:4771,_ZN5Catch5Clara11CommandLineINS_10ConfigDataEE28setThrowOnUnrecognisedTokensEb
FN:4776,_ZN5Catch5Clara11CommandLineINS_10ConfigDataEEixERKSs
FN:4793,_ZN5Catch5Clara11CommandLineINS_10ConfigDataEEixENS0_15UnpositionalTagE
FN:4802,_ZN5Catch5Clara11CommandLineINS_10ConfigDataEE15bindProcessNameIS2_SsEEvMT_T0_
FN:4810,_ZNK5Catch5Clara11CommandLineINS_10ConfigDataEE8optUsageERSojj
FN:4840,_ZNK5Catch5Clara11CommandLineINS_10ConfigDataEE11argSynopsisERSo
FN:4865,_ZNK5Catch5Clara11CommandLineINS_10ConfigDataEE5usageERSoRKSs
FN:4887,_ZNK5Catch5Clara11CommandLineINS_10ConfigDataEE9parseIntoERKSt6vectorISsSaISsEERS2_
FN:4899,_ZNK5Catch5Clara11CommandLineINS_10ConfigDataEE8populateERKSt6vectorINS0_6Parser5TokenESaIS6_EERS2_
FN:4907,_ZNK5Catch5Clara11CommandLineINS_10ConfigDataEE15populateOptionsERKSt6vectorINS0_6Parser5TokenESaIS6_EERS2_
FN:4955,_ZNK5Catch5Clara11CommandLineINS_10ConfigDataEE17populateFixedArgsERKSt6vectorINS0_6Parser5TokenESaIS6_EERS2_
FN:4970,_ZNK5Catch5Clara11CommandLineINS_10ConfigDataEE20populateFloatingArgsERKSt6vectorINS0_6Parser5TokenESaIS6_EERS2_
FN:4984,_ZNK5Catch5Clara11CommandLineINS_10ConfigDataEE8validateEv
FN:5024,_ZN5Catch15abortAfterFirstERNS_10ConfigDataE
FN:5025,_ZN5Catch11abortAfterXERNS_10ConfigDataEi
FN:5030,_ZN5Catch13addTestOrTagsERNS_10ConfigDataERKSs
FN:5031,_ZN5Catch15addSectionToRunERNS_10ConfigDataERKSs
FN:5032,_ZN5Catch15addReporterNameERNS_10ConfigDataERKSs
FN:5034,_ZN5Catch10addWarningERNS_10ConfigDataERKSs
FN:5040,_ZN5Catch8setOrderERNS_10ConfigDataERKSs
FN:5050,_ZN5Catch10setRngSeedERNS_10ConfigDataERKSs
FN:5066,_ZN5Catch16setShowDurationsERNS_10ConfigDataEb
FN:5071,_ZN5Catch12setUseColourERNS_10ConfigDataERKSs
FN:5083,_ZN5Catch11forceColourERNS_10ConfigDataE
FN:5086,_ZN5Catch21loadTestNamesFromFileERNS_10ConfigDataERKSs
FN:5102,_ZN5Catch21makeCommandLineParserEv
FN:5258,_ZN5Catch3Tbc14TextAttributesC2Ev
FN:5264,_ZN5Catch3Tbc14TextAttributes16setInitialIndentEj
FN:5265,_ZN5Catch3Tbc14TextAttributes9setIndentEj
FN:5266,_ZN5Catch3Tbc14TextAttributes8setWidthEj
FN:5273,_ZN5Catch3Tbc4TextD2Ev
FN:5275,_ZN5Catch3Tbc4TextC2ERKSsRKNS0_14TextAttributesE
FN:5352,_ZNK5Catch3Tbc4Text5beginEv
FN:5353,_ZNK5Catch3Tbc4Text3endEv
FN:5363,_ZN5Catch3TbclsERSoRKNS0_4TextE
FN:5446,_ZN5CatchlsERSoRKNS_6ColourE
FN:5459,_ZN5Catch14ReporterConfigD2Ev
FN:5460,_ZN5Catch14ReporterConfigC2ERKNS_3PtrIKNS_7IConfigEEE
FN:5466,_ZNK5Catch14ReporterConfig6streamEv
FN:5467,_ZNK5Catch14ReporterConfig10fullConfigEv
FN:5475,_ZN5Catch19ReporterPreferencesC2Ev
FN:5483,_ZN5Catch8LazyStatINS_11TestRunInfoEED2Ev
FN:5483,_ZN5Catch8LazyStatINS_9GroupInfoEED2Ev
FN:5483,_ZN5Catch8LazyStatINS_12TestCaseInfoEED2Ev
FN:5484,_ZN5Catch8LazyStatINS_12TestCaseInfoEEC2Ev
FN:5484,_ZN5Catch8LazyStatINS_11TestRunInfoEEC2Ev
FN:5484,_ZN5Catch8LazyStatINS_9GroupInfoEEC2Ev
FN:5485,_ZN5Catch8LazyStatINS_12TestCaseInfoEEaSERKS1_
FN:5485,_ZN5Catch8LazyStatINS_9GroupInfoEEaSERKS1_
FN:5485,_ZN5Catch8LazyStatINS_11TestRunInfoEEaSERKS1_
FN:5490,_ZN5Catch8LazyStatINS_9GroupInfoEE5resetEv
FN:5490,_ZN5Catch8LazyStatINS_12TestCaseInfoEE5resetEv
FN:5490,_ZN5Catch8LazyStatINS_11TestRunInfoEE5resetEv
FN:5497,_ZN5Catch11TestRunInfoC2ERKS0_
FN:5497,_ZN5Catch11TestRunInfoD2Ev
FN:5498,_ZN5Catch11TestRunInfoC2ERKSs
FN:5501,_ZN5Catch9GroupInfoD2Ev
FN:5501,_ZN5Catch9GroupInfoC2ERKS0_
FN:5502,_ZN5Catch9GroupInfoC2ERKSsjj
FN:5516,_ZN5Catch14AssertionStatsC2ERKNS_15AssertionResultERKSt6vectorINS_11MessageInfoESaIS5_EERKNS_6TotalsE
FN:5536,_ZN5Catch14AssertionStatsC2ERKS0_
FN:5537,_ZN5Catch14AssertionStatsC2EOS0_
FN:5547,_ZN5Catch12SectionStatsaSERKS0_
FN:5548,_ZN5Catch12SectionStatsC2ERKNS_11SectionInfoERKNS_6CountsEdb
FN:5559,_ZN5Catch12SectionStatsC2ERKS0_
FN:5572,_ZN5Catch13TestCaseStatsC2ERKNS_12TestCaseInfoERKNS_6TotalsERKSsS8_b
FN:5586,_ZN5Catch13TestCaseStatsC2ERKS0_
FN:5600,_ZN5Catch14TestGroupStatsC2ERKNS_9GroupInfoERKNS_6TotalsEb
FN:5614,_ZN5Catch14TestGroupStatsC2ERKS0_
FN:5626,_ZN5Catch12TestRunStatsC2ERKNS_11TestRunInfoERKNS_6TotalsEb
FN:5642,_ZN5Catch12TestRunStatsC2ERKS0_
FN:5655,_ZN5Catch18IStreamingReporterC2Ev
FN:5683,_ZN5Catch18IStreamingReporter10tryAsMultiEv
FN:5686,_ZN5Catch16IReporterFactoryC2Ev
FN:5692,_ZN5Catch17IReporterRegistryC2Ev
FN:5711,_ZN5Catch9listTestsERKNS_6ConfigE
FN:5749,_ZN5Catch18listTestsNamesOnlyERKNS_6ConfigE
FN:5768,_ZN5Catch7TagInfoD2Ev
FN:5768,_ZN5Catch7TagInfoC2EOS0_
FN:5769,_ZN5Catch7TagInfoC2Ev
FN:5770,_ZN5Catch7TagInfo3addERKSs
FN:5774,_ZNK5Catch7TagInfo3allEv
FN:5786,_ZN5Catch8listTagsERKNS_6ConfigE
FN:5830,_ZN5Catch13listReportersERKNS_6ConfigE
FN:5853,_ZN5Catch4listERKNS_6ConfigE
FN:5884,_ZN5Catch16TestCaseTracking15NameAndLocationD2Ev
FN:5884,_ZN5Catch16TestCaseTracking15NameAndLocationC2ERKS1_
FN:5888,_ZN5Catch16TestCaseTracking15NameAndLocationC2ERKSsRKNS_14SourceLineInfoE
FN:5894,_ZN5Catch16TestCaseTracking8ITrackerC2Ev
FN:5922,_ZN5Catch16TestCaseTracking14TrackerContextD2Ev
FN:5941,_ZN5Catch16TestCaseTracking14TrackerContextC2Ev
FN:5954,_ZN5Catch16TestCaseTracking14TrackerContext10startCycleEv
FN:5958,_ZN5Catch16TestCaseTracking14TrackerContext13completeCycleEv
FN:5962,_ZNK5Catch16TestCaseTracking14TrackerContext14completedCycleEv
FN:5965,_ZN5Catch16TestCaseTracking14TrackerContext14currentTrackerEv
FN:5968,_ZN5Catch16TestCaseTracking14TrackerContext17setCurrentTrackerEPNS0_8ITrackerE
FN:5983,_ZN5Catch16TestCaseTracking11TrackerBase14TrackerHasNameC2ERKS2_
FN:5983,_ZN5Catch16TestCaseTracking11TrackerBase14TrackerHasNameD2Ev
FN:5986,_ZN5Catch16TestCaseTracking11TrackerBase14TrackerHasNameC2ERKNS0_15NameAndLocationE
FN:5987,_ZN5Catch16TestCaseTracking11TrackerBase14TrackerHasNameclERKNS_3PtrINS0_8ITrackerEEE
FN:6000,_ZN5Catch16TestCaseTracking11TrackerBaseC2ERKNS0_15NameAndLocationERNS0_14TrackerContextEPNS0_8ITrackerE
FN:6008,_ZNK5Catch16TestCaseTracking11TrackerBase15nameAndLocationEv
FN:6011,_ZNK5Catch16TestCaseTracking11TrackerBase10isCompleteEv
FN:6014,_ZNK5Catch16TestCaseTracking11TrackerBase23isSuccessfullyCompletedEv
FN:6017,_ZNK5Catch16TestCaseTracking11TrackerBase6isOpenEv
FN:6020,_ZNK5Catch16TestCaseTracking11TrackerBase11hasChildrenEv
FN:6024,_ZN5Catch16TestCaseTracking11TrackerBase8addChildERKNS_3PtrINS0_8ITrackerEEE
FN:6028,_ZN5Catch16TestCaseTracking11TrackerBase9findChildERKNS0_15NameAndLocationE
FN:6034,_ZN5Catch16TestCaseTracking11TrackerBase6parentEv
FN:6039,_ZN5Catch16TestCaseTracking11TrackerBase9openChildEv
FN:6047,_ZNK5Catch16TestCaseTracking11TrackerBase16isSectionTrackerEv
FN:6048,_ZNK5Catch16TestCaseTracking11TrackerBase14isIndexTrackerEv
FN:6050,_ZN5Catch16TestCaseTracking11TrackerBase4openEv
FN:6057,_ZN5Catch16TestCaseTracking11TrackerBase5closeEv
FN:6086,_ZN5Catch16TestCaseTracking11TrackerBase4failEv
FN:6093,_ZN5Catch16TestCaseTracking11TrackerBase23markAsNeedingAnotherRunEv
FN:6097,_ZN5Catch16TestCaseTracking11TrackerBase12moveToParentEv
FN:6101,_ZN5Catch16TestCaseTracking11TrackerBase10moveToThisEv
FN:6109,_ZN5Catch16TestCaseTracking14SectionTrackerC2ERKNS0_15NameAndLocationERNS0_14TrackerContextEPNS0_8ITrackerE
FN:6122,_ZNK5Catch16TestCaseTracking14SectionTracker16isSectionTrackerEv
FN:6124,_ZN5Catch16TestCaseTracking14SectionTracker7acquireERNS0_14TrackerContextERKNS0_15NameAndLocationE
FN:6142,_ZN5Catch16TestCaseTracking14SectionTracker7tryOpenEv
FN:6147,_ZN5Catch16TestCaseTracking14SectionTracker17addInitialFiltersERKSt6vectorISsSaISsEE
FN:6154,_ZN5Catch16TestCaseTracking14SectionTracker14addNextFiltersERKSt6vectorISsSaISsEE
FN:6171,_ZNK5Catch16TestCaseTracking12IndexTracker14isIndexTrackerEv
FN:6203,_ZN5Catch16TestCaseTracking12IndexTracker5closeEv
FN:6210,_ZN5Catch16TestCaseTracking14TrackerContext8startRunEv
FN:6232,_ZN5Catch11reportFatalERKSs
FN:6380,_ZN5Catch21FatalConditionHandler12handleSignalEi
FN:6394,_ZN5Catch21FatalConditionHandlerC2Ev
FN:6410,_ZN5Catch21FatalConditionHandlerD2Ev
FN:6413,_ZN5Catch21FatalConditionHandler5resetEv
FN:6445,_ZN5Catch14StreamRedirectC2ERSoRSs
FN:6453,_ZN5Catch14StreamRedirectD2Ev
FN:6474,_ZN5Catch10RunContextC2ERKNS_3PtrIKNS_7IConfigEEERKNS1_INS_18IStreamingReporterEEE
FN:6487,_ZN5Catch10RunContextD2Ev
FN:6487,_ZN5Catch10RunContextD0Ev
FN:6491,_ZN5Catch10RunContext17testGroupStartingERKSsjj
FN:6494,_ZN5Catch10RunContext14testGroupEndedERKSsRKNS_6TotalsEjj
FN:6498,_ZN5Catch10RunContext7runTestERKNS_8TestCaseE
FN:6549,_ZN5Catch10RunContext14assertionEndedERKNS_15AssertionResultE
FN:6565,_ZN5Catch10RunContext14sectionStartedERKNS_11SectionInfoERNS_6CountsE
FN:6583,_ZN5Catch10RunContext24testForMissingAssertionsERNS_6CountsE
FN:6595,_ZN5Catch10RunContext12sectionEndedERKNS_14SectionEndInfoE
FN:6608,_ZN5Catch10RunContext17sectionEndedEarlyERKNS_14SectionEndInfoE
FN:6618,_ZN5Catch10RunContext17pushScopedMessageERKNS_11MessageInfoE
FN:6622,_ZN5Catch10RunContext16popScopedMessageERKNS_11MessageInfoE
FN:6626,_ZNK5Catch10RunContext18getCurrentTestNameEv
FN:6632,_ZNK5Catch10RunContext13getLastResultEv
FN:6636,_ZN5Catch10RunContext25handleFatalErrorConditionERKSs
FN:6669,_ZNK5Catch10RunContext8abortingEv
FN:6675,_ZN5Catch10RunContext14runCurrentTestERSsS1_
FN:6721,_ZN5Catch10RunContext20invokeActiveTestCaseEv
FN:6729,_ZNK5Catch10RunContext27makeUnexpectedResultBuilderEv
FN:6736,_ZN5Catch10RunContext24handleUnfinishedSectionsEv
FN:6764,_ZN5Catch16getResultCaptureEv
FN:6779,_ZN5Catch7VersionD2Ev
FN:6809,_ZN5Catch14createReporterERKSsRKNS_3PtrINS_6ConfigEEE
FN:6819,_ZN5Catch12makeReporterERKNS_3PtrINS_6ConfigEEE
FN:6831,_ZN5Catch12addListenersERKNS_3PtrIKNS_7IConfigEEENS0_INS_18IStreamingReporterEEE
FN:6840,_ZN5Catch8runTestsERKNS_3PtrINS_6ConfigEEE
FN:6871,_ZN5Catch20applyFilenamesAsTagsERKNS_7IConfigE
FN:6898,_ZN5Catch7SessionC2Ev
FN:6907,_ZN5Catch7SessionD0Ev
FN:6907,_ZN5Catch7SessionD2Ev
FN:6911,_ZN5Catch7Session8showHelpERKSs
FN:6918,_ZN5Catch7Session16applyCommandLineEiPKPKcNS0_15OnUnusedOptions6DoWhatE
FN:6945,_ZN5Catch7Session3runEiPKPKc
FN:6953,_ZN5Catch7Session3runEv
FN:6987,_ZN5Catch7Session6configEv
FN:7023,_ZN5Catch21RandomNumberGenerator3maxEv
FN:7024,_ZNK5Catch21RandomNumberGeneratorclEv
FN:7027,_ZN5Catch21RandomNumberGenerator7shuffleISt6vectorINS_8TestCaseESaIS3_EEEEvRT_
FN:7037,_ZN5Catch9sortTestsERKNS_7IConfigERKSt6vectorINS_8TestCaseESaIS4_EE
FN:7057,_ZN5Catch9matchTestERKNS_8TestCaseERKNS_8TestSpecERKNS_7IConfigE
FN:7061,_ZN5Catch27enforceNoDuplicateTestCasesERKSt6vectorINS_8TestCaseESaIS1_EE
FN:7080,_ZN5Catch11filterTestsERKSt6vectorINS_8TestCaseESaIS1_EERKNS_8TestSpecERKNS_7IConfigE
FN:7090,_ZN5Catch21getAllTestCasesSortedERKNS_7IConfigE
FN:7096,_ZN5Catch12TestRegistryC2Ev
FN:7102,_ZN5Catch12TestRegistry12registerTestERKNS_8TestCaseE
FN:7112,_ZNK5Catch12TestRegistry11getAllTestsEv
FN:7115,_ZNK5Catch12TestRegistry17getAllTestsSortedERKNS_7IConfigE
FN:7139,_ZN5Catch20FreeFunctionTestCaseC2EPFvvE
FN:7141,_ZNK5Catch20FreeFunctionTestCase6invokeEv
FN:7151,_ZN5Catch16extractClassNameERKSs
FN:7164,_ZN5Catch16registerTestCaseEPNS_9ITestCaseEPKcRKNS_11NameAndDescERKNS_14SourceLineInfoE
FN:7178,_ZN5Catch24registerTestCaseFunctionEPFvvERKNS_14SourceLineInfoERKNS_11NameAndDescE
FN:7187,_ZN5Catch7AutoRegC2EPFvvERKNS_14SourceLineInfoERKNS_11NameAndDescE
FN:7194,_ZN5Catch7AutoRegD2Ev
FN:7205,_ZN5Catch16ReporterRegistryC2Ev
FN:7209,_ZN5Catch16ReporterRegistryD2Ev
FN:7209,_ZN5Catch16ReporterRegistryD0Ev
FN:7211,_ZNK5Catch16ReporterRegistry6createERKSsRKNS_3PtrIKNS_7IConfigEEE
FN:7218,_ZN5Catch16ReporterRegistry16registerReporterERKSsRKNS_3PtrINS_16IReporterFactoryEEE
FN:7221,_ZN5Catch16ReporterRegistry16registerListenerERKNS_3PtrINS_16IReporterFactoryEEE
FN:7225,_ZNK5Catch16ReporterRegistry12getFactoriesEv
FN:7228,_ZNK5Catch16ReporterRegistry12getListenersEv
FN:7247,_ZN5Catch27ExceptionTranslatorRegistryC2Ev
FN:7249,_ZN5Catch27ExceptionTranslatorRegistryD2Ev
FN:7249,_ZN5Catch27ExceptionTranslatorRegistryD0Ev
FN:7253,_ZN5Catch27ExceptionTranslatorRegistry18registerTranslatorEPKNS_20IExceptionTranslatorE
FN:7257,_ZNK5Catch27ExceptionTranslatorRegistry24translateActiveExceptionEv
FN:7288,_ZNK5Catch27ExceptionTranslatorRegistry14tryTranslatorsEv
FN:7304,_ZN5Catch12_GLOBAL__N_111RegistryHubD0Ev
FN:7304,_ZN5Catch12_GLOBAL__N_111RegistryHubD2Ev
FN:7310,_ZN5Catch12_GLOBAL__N_111RegistryHubC2Ev
FN:7312,_ZNK5Catch12_GLOBAL__N_111RegistryHub19getReporterRegistryEv
FN:7315,_ZNK5Catch12_GLOBAL__N_111RegistryHub19getTestCaseRegistryEv
FN:7318,_ZN5Catch12_GLOBAL__N_111RegistryHub30getExceptionTranslatorRegistryEv
FN:7323,_ZN5Catch12_GLOBAL__N_111RegistryHub16registerReporterERKSsRKNS_3PtrINS_16IReporterFactoryEEE
FN:7326,_ZN5Catch12_GLOBAL__N_111RegistryHub16registerListenerERKNS_3PtrINS_16IReporterFactoryEEE
FN:7329,_ZN5Catch12_GLOBAL__N_111RegistryHub12registerTestERKNS_8TestCaseE
FN:7332,_ZN5Catch12_GLOBAL__N_111RegistryHub18registerTranslatorEPKNS_20IExceptionTranslatorE
FN:7343,_ZN5Catch12_GLOBAL__N_117getTheRegistryHubEv
FN:7351,_ZN5Catch14getRegistryHubEv
FN:7354,_ZN5Catch21getMutableRegistryHubEv
FN:7357,_ZN5Catch7cleanUpEv
FN:7362,_ZN5Catch24translateActiveExceptionEv
FN:7375,_ZN5Catch23NotImplementedExceptionC2ERKNS_14SourceLineInfoE
FN:7383,_ZNK5Catch23NotImplementedException4whatEv
FN:7407,_ZN5Catch13StreamBufImplINS_17OutputDebugWriterELj256EEC2Ev
FN:7411,_ZN5Catch13StreamBufImplINS_17OutputDebugWriterELj256EED0Ev
FN:7411,_ZN5Catch13StreamBufImplINS_17OutputDebugWriterELj256EED2Ev
FN:7416,_ZN5Catch13StreamBufImplINS_17OutputDebugWriterELj256EE8overflowEi
FN:7428,_ZN5Catch13StreamBufImplINS_17OutputDebugWriterELj256EE4syncEv
FN:7439,_ZN5Catch10FileStreamC2ERKSs
FN:7448,_ZNK5Catch10FileStream6streamEv
FN:7454,_ZN5Catch17OutputDebugWriterclERKSs
FN:7459,_ZN5Catch14DebugOutStreamC2Ev
FN:7464,_ZNK5Catch14DebugOutStream6streamEv
FN:7470,_ZN5Catch10CoutStreamC2Ev
FN:7474,_ZNK5Catch10CoutStream6streamEv
FN:7479,_ZN5Catch4coutEv
FN:7482,_ZN5Catch4cerrEv
FN:7492,_ZN5Catch7ContextC2Ev
FN:7497,_ZN5Catch7ContextD0Ev
FN:7497,_ZN5Catch7ContextD2Ev
FN:7502,_ZN5Catch7Context16getResultCaptureEv
FN:7505,_ZN5Catch7Context9getRunnerEv
FN:7508,_ZN5Catch7Context17getGeneratorIndexERKSsj
FN:7513,_ZN5Catch7Context31advanceGeneratorsForCurrentTestEv
FN:7518,_ZNK5Catch7Context9getConfigEv
FN:7523,_ZN5Catch7Context16setResultCaptureEPNS_14IResultCaptureE
FN:7526,_ZN5Catch7Context9setRunnerEPNS_7IRunnerE
FN:7529,_ZN5Catch7Context9setConfigERKNS_3PtrIKNS_7IConfigEEE
FN:7536,_ZN5Catch7Context28findGeneratorsForCurrentTestEv
FN:7546,_ZN5Catch7Context27getGeneratorsForCurrentTestEv
FN:7566,_ZN5Catch24getCurrentMutableContextEv
FN:7571,_ZN5Catch17getCurrentContextEv
FN:7575,_ZN5Catch14cleanUpContextEv
FN:7588,_ZN5Catch12_GLOBAL__N_111IColourImplD2Ev
FN:7588,_ZN5Catch12_GLOBAL__N_111IColourImplD0Ev
FN:7592,_ZN5Catch12_GLOBAL__N_112NoColourImplD0Ev
FN:7592,_ZN5Catch12_GLOBAL__N_112NoColourImplD2Ev
FN:7593,_ZN5Catch12_GLOBAL__N_112NoColourImpl3useENS_6Colour4CodeE
FN:7595,_ZN5Catch12_GLOBAL__N_112NoColourImpl8instanceEv
FN:7596,__tcf_1
FN:7686,_ZN5Catch12_GLOBAL__N_115PosixColourImplD0Ev
FN:7686,_ZN5Catch12_GLOBAL__N_115PosixColourImplD2Ev
FN:7688,_ZN5Catch12_GLOBAL__N_115PosixColourImpl3useENS_6Colour4CodeE
FN:7707,_ZN5Catch12_GLOBAL__N_115PosixColourImpl8instanceEv
FN:7708,__tcf_2
FN:7713,_ZN5Catch12_GLOBAL__N_115PosixColourImpl9setColourEPKc
FN:7718,_ZN5Catch12_GLOBAL__N_122platformColourInstanceEv
FN:7747,_ZN5Catch6ColourC2ENS0_4CodeE
FN:7748,_ZN5Catch6ColourC2ERKS0_
FN:7749,_ZN5Catch6ColourD2Ev
FN:7751,_ZN5Catch6Colour3useENS0_4CodeE
FN:7767,_ZN5Catch13GeneratorInfoD2Ev
FN:7767,_ZN5Catch13GeneratorInfoD0Ev
FN:7769,_ZN5Catch13GeneratorInfoC2Ej
FN:7774,_ZN5Catch13GeneratorInfo8moveNextEv
FN:7782,_ZNK5Catch13GeneratorInfo15getCurrentIndexEv
FN:7792,_ZN5Catch17GeneratorsForTestC2Ev
FN:7795,_ZN5Catch17GeneratorsForTestD0Ev
FN:7795,_ZN5Catch17GeneratorsForTestD2Ev
FN:7799,_ZN5Catch17GeneratorsForTest16getGeneratorInfoERKSsj
FN:7810,_ZN5Catch17GeneratorsForTest8moveNextEv
FN:7825,_ZN5Catch23createGeneratorsForTestEv
FN:7837,_ZN5Catch13AssertionInfoC2ERKSsRKNS_14SourceLineInfoES2_NS_17ResultDisposition5FlagsE
FN:7847,_ZN5Catch15AssertionResultC2Ev
FN:7849,_ZN5Catch15AssertionResultC2ERKNS_13AssertionInfoERKNS_19AssertionResultDataE
FN:7854,_ZN5Catch15AssertionResultD2Ev
FN:7857,_ZNK5Catch15AssertionResult9succeededEv
FN:7862,_ZNK5Catch15AssertionResult4isOkEv
FN:7866,_ZNK5Catch15AssertionResult13getResultTypeEv
FN:7870,_ZNK5Catch15AssertionResult13hasExpressionEv
FN:7874,_ZNK5Catch15AssertionResult10hasMessageEv
FN:7878,_ZNK5Catch15AssertionResult13getExpressionEv
FN:7884,_ZNK5Catch15AssertionResult20getExpressionInMacroEv
FN:7891,_ZNK5Catch15AssertionResult21hasExpandedExpressionEv
FN:7895,_ZNK5Catch15AssertionResult21getExpandedExpressionEv
FN:7899,_ZNK5Catch15AssertionResult10getMessageEv
FN:7902,_ZNK5Catch15AssertionResult13getSourceInfoEv
FN:7906,_ZNK5Catch15AssertionResult16getTestMacroNameEv
FN:7910,_ZNK5Catch15AssertionResult27discardDecomposedExpressionEv
FN:7914,_ZNK5Catch15AssertionResult26expandDecomposedExpressionEv
FN:7927,_ZN5Catch15parseSpecialTagERKSs
FN:7943,_ZN5Catch13isReservedTagERKSs
FN:7946,_ZN5Catch21enforceNotReservedTagERKSsRKNS_14SourceLineInfoE
FN:7962,_ZN5Catch12makeTestCaseEPNS_9ITestCaseERKSsS3_S3_RKNS_14SourceLineInfoE
FN:8007,_ZN5Catch7setTagsERNS_12TestCaseInfoERKSt3setISsSt4lessISsESaISsEE
FN:8022,_ZN5Catch12TestCaseInfoC2ERKSsS2_S2_RKSt3setISsSt4lessISsESaISsEERKNS_14SourceLineInfoE
FN:8036,_ZN5Catch12TestCaseInfoC2ERKS0_
FN:8047,_ZNK5Catch12TestCaseInfo8isHiddenEv
FN:8050,_ZNK5Catch12TestCaseInfo6throwsEv
FN:8053,_ZNK5Catch12TestCaseInfo8okToFailEv
FN:8056,_ZNK5Catch12TestCaseInfo14expectedToFailEv
FN:8060,_ZN5Catch8TestCaseC2EPNS_9ITestCaseERKNS_12TestCaseInfoE
FN:8062,_ZN5Catch8TestCaseC2ERKS0_
FN:8067,_ZNK5Catch8TestCase8withNameERKSs
FN:8073,_ZN5Catch8TestCase4swapERS0_
FN:8085,_ZNK5Catch8TestCase6invokeEv
FN:8089,_ZNK5Catch8TestCaseeqERKS0_
FN:8095,_ZNK5Catch8TestCaseltERKS0_
FN:8098,_ZN5Catch8TestCaseaSERKS0_
FN:8104,_ZNK5Catch8TestCase15getTestCaseInfoEv
FN:8116,_ZN5Catch7VersionC2EjjjRKSsj
FN:8129,_ZN5CatchlsERSoRKNS_7VersionE
FN:8150,_ZN5Catch11MessageInfoC2ERKSsRKNS_14SourceLineInfoENS_9ResultWas6OfTypeE
FN:8164,_ZN5Catch13ScopedMessageC2ERKNS_14MessageBuilderE
FN:8170,_ZN5Catch13ScopedMessageC2ERKS0_
FN:8174,_ZN5Catch13ScopedMessageD2Ev
FN:8235,_ZN5Catch21LegacyReporterAdapterC2ERKNS_3PtrINS_9IReporterEEE
FN:8238,_ZN5Catch21LegacyReporterAdapterD0Ev
FN:8238,_ZN5Catch21LegacyReporterAdapterD2Ev
FN:8240,_ZNK5Catch21LegacyReporterAdapter14getPreferencesEv
FN:8246,_ZN5Catch21LegacyReporterAdapter19noMatchingTestCasesERKSs
FN:8247,_ZN5Catch21LegacyReporterAdapter15testRunStartingERKNS_11TestRunInfoE
FN:8250,_ZN5Catch21LegacyReporterAdapter17testGroupStartingERKNS_9GroupInfoE
FN:8253,_ZN5Catch21LegacyReporterAdapter16testCaseStartingERKNS_12TestCaseInfoE
FN:8256,_ZN5Catch21LegacyReporterAdapter15sectionStartingERKNS_11SectionInfoE
FN:8259,_ZN5Catch21LegacyReporterAdapter17assertionStartingERKNS_13AssertionInfoE
FN:8263,_ZN5Catch21LegacyReporterAdapter14assertionEndedERKNS_14AssertionStatsE
FN:8280,_ZN5Catch21LegacyReporterAdapter12sectionEndedERKNS_12SectionStatsE
FN:8285,_ZN5Catch21LegacyReporterAdapter13testCaseEndedERKNS_13TestCaseStatsE
FN:8292,_ZN5Catch21LegacyReporterAdapter14testGroupEndedERKNS_14TestGroupStatsE
FN:8297,_ZN5Catch21LegacyReporterAdapter12testRunEndedERKNS_12TestRunStatsE
FN:8300,_ZN5Catch21LegacyReporterAdapter8skipTestERKNS_12TestCaseInfoE
FN:8334,_ZN5Catch12_GLOBAL__N_115getCurrentTicksEv
FN:8342,_ZN5Catch5Timer5startEv
FN:8345,_ZNK5Catch5Timer22getElapsedMicrosecondsEv
FN:8348,_ZNK5Catch5Timer22getElapsedMillisecondsEv
FN:8351,_ZNK5Catch5Timer17getElapsedSecondsEv
FN:8368,_ZN5Catch10startsWithERKSsS1_
FN:8371,_ZN5Catch10startsWithERKSsc
FN:8374,_ZN5Catch8endsWithERKSsS1_
FN:8377,_ZN5Catch8endsWithERKSsc
FN:8380,_ZN5Catch8containsERKSsS1_
FN:8383,_ZN5Catch9toLowerChEc
FN:8386,_ZN5Catch14toLowerInPlaceERSs
FN:8389,_ZN5Catch7toLowerERKSs
FN:8394,_ZN5Catch4trimERKSs
FN:8402,_ZN5Catch14replaceInPlaceERSsRKSsS2_
FN:8416,_ZN5Catch9pluraliseC2EjRKSs
FN:8421,_ZN5CatchlsERSoRKNS_9pluraliseE
FN:8428,_ZN5Catch14SourceLineInfoC2Ev
FN:8429,_ZN5Catch14SourceLineInfoC2EPKcj
FN:8433,_ZNK5Catch14SourceLineInfo5emptyEv
FN:8436,_ZNK5Catch14SourceLineInfoeqERKS0_
FN:8439,_ZNK5Catch14SourceLineInfoltERKS0_
FN:8443,_ZN5Catch7seedRngERKNS_7IConfigE
FN:8447,_ZN5Catch7rngSeedEv
FN:8451,_ZN5CatchlsERSoRKNS_14SourceLineInfoE
FN:8460,_ZN5Catch15throwLogicErrorERKSsRKNS_14SourceLineInfoE
FN:8473,_ZN5Catch11SectionInfoC2ERKNS_14SourceLineInfoERKSsS5_
FN:8482,_ZN5Catch7SectionC2ERKNS_11SectionInfoE
FN:8489,_ZN5Catch7SectionD2Ev
FN:8489,_ZN5Catch7SectionD0Ev
FN:8500,_ZNK5Catch7SectioncvbEv
FN:8569,_ZN5Catch16isDebuggerActiveEv
FN:8613,_ZN5Catch19writeToDebugConsoleERKSs
FN:8635,_ZN5Catch6Detail12_GLOBAL__N_110Endianness5whichEv
FN:8647,_ZN5Catch6Detail17rawMemoryToStringEPKvj
FN:8665,_ZN5Catch8toStringERKSs
FN:8683,_ZN5Catch8toStringERKSbIwSt11char_traitsIwESaIwEE
FN:8692,_ZN5Catch8toStringEPKc
FN:8696,_ZN5Catch8toStringEPc
FN:8700,_ZN5Catch8toStringEPKw
FN:8705,_ZN5Catch8toStringEPw
FN:8710,_ZN5Catch8toStringEi
FN:8718,_ZN5Catch8toStringEm
FN:8726,_ZN5Catch8toStringEj
FN:8731,_ZN5Catch10fpToStringIdEESsT_i
FN:8731,_ZN5Catch10fpToStringIfEESsT_i
FN:8746,_ZN5Catch8toStringEd
FN:8749,_ZN5Catch8toStringEf
FN:8753,_ZN5Catch8toStringEb
FN:8757,_ZN5Catch8toStringEc
FN:8773,_ZN5Catch8toStringEa
FN:8777,_ZN5Catch8toStringEh
FN:8782,_ZN5Catch8toStringEx
FN:8789,_ZN5Catch8toStringEy
FN:8799,_ZN5Catch8toStringEDn
FN:8827,_ZN5Catch36capturedExpressionWithSecondArgumentERKSsS1_
FN:8832,_ZN5Catch13ResultBuilderC2EPKcRKNS_14SourceLineInfoES2_NS_17ResultDisposition5FlagsES2_
FN:8842,_ZN5Catch13ResultBuilder13setResultTypeENS_9ResultWas6OfTypeE
FN:8846,_ZN5Catch13ResultBuilder13setResultTypeEb
FN:8851,_ZN5Catch13ResultBuilder13endExpressionERKNS_20DecomposedExpressionE
FN:8856,_ZN5Catch13ResultBuilder18useActiveExceptionENS_17ResultDisposition5FlagsE
FN:8862,_ZN5Catch13ResultBuilder13captureResultENS_9ResultWas6OfTypeE
FN:8867,_ZN5Catch13ResultBuilder24captureExpectedExceptionERKSs
FN:8874,_ZN5Catch13ResultBuilder24captureExpectedExceptionERKNS_8Matchers4Impl11MatcherBaseISsSsEE
FN:8890,_ZN5Catch13ResultBuilder17captureExpressionEv
FN:8895,_ZN5Catch13ResultBuilder12handleResultERKNS_15AssertionResultE
FN:8907,_ZN5Catch13ResultBuilder5reactEv
FN:8921,_ZNK5Catch13ResultBuilder16shouldDebugBreakEv
FN:8922,_ZNK5Catch13ResultBuilder11allowThrowsEv
FN:8924,_ZNK5Catch13ResultBuilder5buildEv
FN:8935,_ZNK5Catch13ResultBuilder5buildERKNS_20DecomposedExpressionE
FN:8950,_ZNK5Catch13ResultBuilder21reconstructExpressionERSs
FN:8966,_ZN5Catch16TagAliasRegistryC2Ev
FN:8982,_ZN5Catch16TagAliasRegistryD0Ev
FN:8982,_ZN5Catch16TagAliasRegistryD2Ev
FN:8984,_ZNK5Catch16TagAliasRegistry4findERKSs
FN:8992,_ZNK5Catch16TagAliasRegistry13expandAliasesERKSs
FN:9007,_ZN5Catch16TagAliasRegistry3addEPKcS2_RKNS_14SourceLineInfoE
FN:9023,_ZN5Catch16TagAliasRegistry3getEv
FN:9024,__tcf_3
FN:9029,_ZN5Catch17ITagAliasRegistryD0Ev
FN:9029,_ZN5Catch17ITagAliasRegistryD2Ev
FN:9030,_ZN5Catch17ITagAliasRegistry3getEv
FN:9032,_ZN5Catch22RegistrarForTagAliasesC2EPKcS2_RKNS_14SourceLineInfoE
FN:9052,_ZN5Catch8Matchers9StdString11CasedStringC2ERKSsNS_13CaseSensitive6ChoiceE
FN:9056,_ZNK5Catch8Matchers9StdString11CasedString12adjustStringERKSs
FN:9061,_ZNK5Catch8Matchers9StdString11CasedString21caseSensitivitySuffixEv
FN:9067,_ZN5Catch8Matchers9StdString17StringMatcherBaseC2ESsRKNS1_11CasedStringE
FN:9072,_ZNK5Catch8Matchers9StdString17StringMatcherBase8describeEv
FN:9084,_ZN5Catch8Matchers9StdString13EqualsMatcherC2ERKNS1_11CasedStringE
FN:9086,_ZNK5Catch8Matchers9StdString13EqualsMatcher5matchERKSs
FN:9090,_ZN5Catch8Matchers9StdString15ContainsMatcherC2ERKNS1_11CasedStringE
FN:9092,_ZNK5Catch8Matchers9StdString15ContainsMatcher5matchERKSs
FN:9096,_ZN5Catch8Matchers9StdString17StartsWithMatcherC2ERKNS1_11CasedStringE
FN:9098,_ZNK5Catch8Matchers9StdString17StartsWithMatcher5matchERKSs
FN:9102,_ZN5Catch8Matchers9StdString15EndsWithMatcherC2ERKNS1_11CasedStringE
FN:9104,_ZNK5Catch8Matchers9StdString15EndsWithMatcher5matchERKSs
FN:9110,_ZN5Catch8Matchers6EqualsERKSsNS_13CaseSensitive6ChoiceE
FN:9113,_ZN5Catch8Matchers8ContainsERKSsNS_13CaseSensitive6ChoiceE
FN:9116,_ZN5Catch8Matchers8EndsWithERKSsNS_13CaseSensitive6ChoiceE
FN:9119,_ZN5Catch8Matchers10StartsWithERKSsNS_13CaseSensitive6ChoiceE
FN:9130,_ZN5Catch17MultipleReportersC2Ev
FN:9130,_ZN5Catch17MultipleReportersD0Ev
FN:9130,_ZN5Catch17MultipleReportersD2Ev
FN:9135,_ZN5Catch17MultipleReporters3addERKNS_3PtrINS_18IStreamingReporterEEE
FN:9141,_ZNK5Catch17MultipleReporters14getPreferencesEv
FN:9145,_ZN5Catch17MultipleReporters19noMatchingTestCasesERKSs
FN:9152,_ZN5Catch17MultipleReporters15testRunStartingERKNS_11TestRunInfoE
FN:9159,_ZN5Catch17MultipleReporters17testGroupStartingERKNS_9GroupInfoE
FN:9166,_ZN5Catch17MultipleReporters16testCaseStartingERKNS_12TestCaseInfoE
FN:9173,_ZN5Catch17MultipleReporters15sectionStartingERKNS_11SectionInfoE
FN:9180,_ZN5Catch17MultipleReporters17assertionStartingERKNS_13AssertionInfoE
FN:9188,_ZN5Catch17MultipleReporters14assertionEndedERKNS_14AssertionStatsE
FN:9197,_ZN5Catch17MultipleReporters12sectionEndedERKNS_12SectionStatsE
FN:9204,_ZN5Catch17MultipleReporters13testCaseEndedERKNS_13TestCaseStatsE
FN:9211,_ZN5Catch17MultipleReporters14testGroupEndedERKNS_14TestGroupStatsE
FN:9218,_ZN5Catch17MultipleReporters12testRunEndedERKNS_12TestRunStatsE
FN:9225,_ZN5Catch17MultipleReporters8skipTestERKNS_12TestCaseInfoE
FN:9232,_ZN5Catch17MultipleReporters10tryAsMultiEv
FN:9238,_ZN5Catch11addReporterERKNS_3PtrINS_18IStreamingReporterEEES4_
FN:9274,_ZN5Catch21StreamingReporterBaseC2ERKNS_14ReporterConfigE
FN:9281,_ZNK5Catch21StreamingReporterBase14getPreferencesEv
FN:9287,_ZN5Catch21StreamingReporterBase19noMatchingTestCasesERKSs
FN:9289,_ZN5Catch21StreamingReporterBase15testRunStartingERKNS_11TestRunInfoE
FN:9292,_ZN5Catch21StreamingReporterBase17testGroupStartingERKNS_9GroupInfoE
FN:9296,_ZN5Catch21StreamingReporterBase16testCaseStartingERKNS_12TestCaseInfoE
FN:9299,_ZN5Catch21StreamingReporterBase15sectionStartingERKNS_11SectionInfoE
FN:9303,_ZN5Catch21StreamingReporterBase12sectionEndedERKNS_12SectionStatsE
FN:9306,_ZN5Catch21StreamingReporterBase13testCaseEndedERKNS_13TestCaseStatsE
FN:9309,_ZN5Catch21StreamingReporterBase14testGroupEndedERKNS_14TestGroupStatsE
FN:9312,_ZN5Catch21StreamingReporterBase12testRunEndedERKNS_12TestRunStatsE
FN:9318,_ZN5Catch21StreamingReporterBase8skipTestERKNS_12TestCaseInfoE
FN:9337,_ZN5Catch22CumulativeReporterBase4NodeINS_12TestRunStatsENS1_INS_14TestGroupStatsENS1_INS_13TestCaseStatsENS0_11SectionNodeEEEEEEC2ERKS2_
FN:9337,_ZN5Catch22CumulativeReporterBase4NodeINS_13TestCaseStatsENS0_11SectionNodeEEC2ERKS2_
FN:9337,_ZN5Catch22CumulativeReporterBase4NodeINS_14TestGroupStatsENS1_INS_13TestCaseStatsENS0_11SectionNodeEEEEC2ERKS2_
FN:9338,_ZN5Catch22CumulativeReporterBase4NodeINS_12TestRunStatsENS1_INS_14TestGroupStatsENS1_INS_13TestCaseStatsENS0_11SectionNodeEEEEEED2Ev
FN:9338,_ZN5Catch22CumulativeReporterBase4NodeINS_14TestGroupStatsENS1_INS_13TestCaseStatsENS0_11SectionNodeEEEED0Ev
FN:9338,_ZN5Catch22CumulativeReporterBase4NodeINS_13TestCaseStatsENS0_11SectionNodeEED0Ev
FN:9338,_ZN5Catch22CumulativeReporterBase4NodeINS_13TestCaseStatsENS0_11SectionNodeEED2Ev
FN:9338,_ZN5Catch22CumulativeReporterBase4NodeINS_12TestRunStatsENS1_INS_14TestGroupStatsENS1_INS_13TestCaseStatsENS0_11SectionNodeEEEEEED0Ev
FN:9338,_ZN5Catch22CumulativeReporterBase4NodeINS_14TestGroupStatsENS1_INS_13TestCaseStatsENS0_11SectionNodeEEEED2Ev
FN:9345,_ZN5Catch22CumulativeReporterBase11SectionNodeC2ERKNS_12SectionStatsE
FN:9365,_ZN5Catch22CumulativeReporterBase13BySectionInfoC2ERKNS_11SectionInfoE
FN:9366,_ZN5Catch22CumulativeReporterBase13BySectionInfoC2ERKS1_
FN:9367,_ZNK5Catch22CumulativeReporterBase13BySectionInfoclERKNS_3PtrINS0_11SectionNodeEEE
FN:9379,_ZN5Catch22CumulativeReporterBaseC2ERKNS_14ReporterConfigE
FN:9387,_ZNK5Catch22CumulativeReporterBase14getPreferencesEv
FN:9391,_ZN5Catch22CumulativeReporterBase15testRunStartingERKNS_11TestRunInfoE
FN:9392,_ZN5Catch22CumulativeReporterBase17testGroupStartingERKNS_9GroupInfoE
FN:9394,_ZN5Catch22CumulativeReporterBase16testCaseStartingERKNS_12TestCaseInfoE
FN:9396,_ZN5Catch22CumulativeReporterBase15sectionStartingERKNS_11SectionInfoE
FN:9421,_ZN5Catch22CumulativeReporterBase17assertionStartingERKNS_13AssertionInfoE
FN:9423,_ZN5Catch22CumulativeReporterBase14assertionEndedERKNS_14AssertionStatsE
FN:9435,_ZN5Catch22CumulativeReporterBase12sectionEndedERKNS_12SectionStatsE
FN:9441,_ZN5Catch22CumulativeReporterBase13testCaseEndedERKNS_13TestCaseStatsE
FN:9452,_ZN5Catch22CumulativeReporterBase14testGroupEndedERKNS_14TestGroupStatsE
FN:9457,_ZN5Catch22CumulativeReporterBase12testRunEndedERKNS_12TestRunStatsE
FN:9465,_ZN5Catch22CumulativeReporterBase8skipTestERKNS_12TestCaseInfoE
FN:9467,_ZNK5Catch22CumulativeReporterBase25prepareExpandedExpressionERNS_15AssertionResultE
FN:9491,_ZN5Catch14getLineOfCharsILc126EEEPKcv
FN:9491,_ZN5Catch14getLineOfCharsILc45EEEPKcv
FN:9491,_ZN5Catch14getLineOfCharsILc46EEEPKcv
FN:9541,_ZN5Catch17ReporterRegistrarINS_11XmlReporterEE15ReporterFactoryC2Ev
FN:9541,_ZN5Catch17ReporterRegistrarINS_13JunitReporterEE15ReporterFactoryD2Ev
FN:9541,_ZN5Catch17ReporterRegistrarINS_13JunitReporterEE15ReporterFactoryC2Ev
FN:9541,_ZN5Catch17ReporterRegistrarINS_15CompactReporterEE15ReporterFactoryD0Ev
FN:9541,_ZN5Catch17ReporterRegistrarINS_15ConsoleReporterEE15ReporterFactoryD2Ev
FN:9541,_ZN5Catch17ReporterRegistrarINS_11XmlReporterEE15ReporterFactoryD2Ev
FN:9541,_ZN5Catch17ReporterRegistrarINS_15ConsoleReporterEE15ReporterFactoryD0Ev
FN:9541,_ZN5Catch17ReporterRegistrarINS_15CompactReporterEE15ReporterFactoryC2Ev
FN:9541,_ZN5Catch17ReporterRegistrarINS_15CompactReporterEE15ReporterFactoryD2Ev
FN:9541,_ZN5Catch17ReporterRegistrarINS_11XmlReporterEE15ReporterFactoryD0Ev
FN:9541,_ZN5Catch17ReporterRegistrarINS_15ConsoleReporterEE15ReporterFactoryC2Ev
FN:9541,_ZN5Catch17ReporterRegistrarINS_13JunitReporterEE15ReporterFactoryD0Ev
FN:9554,_ZNK5Catch17ReporterRegistrarINS_13JunitReporterEE15ReporterFactory6createERKNS_14ReporterConfigE
FN:9554,_ZNK5Catch17ReporterRegistrarINS_11XmlReporterEE15ReporterFactory6createERKNS_14ReporterConfigE
FN:9554,_ZNK5Catch17ReporterRegistrarINS_15ConsoleReporterEE15ReporterFactory6createERKNS_14ReporterConfigE
FN:9554,_ZNK5Catch17ReporterRegistrarINS_15CompactReporterEE15ReporterFactory6createERKNS_14ReporterConfigE
FN:9558,_ZNK5Catch17ReporterRegistrarINS_15CompactReporterEE15ReporterFactory14getDescriptionEv
FN:9558,_ZNK5Catch17ReporterRegistrarINS_13JunitReporterEE15ReporterFactory14getDescriptionEv
FN:9558,_ZNK5Catch17ReporterRegistrarINS_15ConsoleReporterEE15ReporterFactory14getDescriptionEv
FN:9558,_ZNK5Catch17ReporterRegistrarINS_11XmlReporterEE15ReporterFactory14getDescriptionEv
FN:9565,_ZN5Catch17ReporterRegistrarINS_15ConsoleReporterEEC2ERKSs
FN:9565,_ZN5Catch17ReporterRegistrarINS_15CompactReporterEEC2ERKSs
FN:9565,_ZN5Catch17ReporterRegistrarINS_11XmlReporterEEC2ERKSs
FN:9565,_ZN5Catch17ReporterRegistrarINS_13JunitReporterEEC2ERKSs
FN:9610,_ZN5Catch9XmlEncodeD2Ev
FN:9614,_ZN5Catch9XmlEncodeC2ERKSsNS0_7ForWhatE
FN:9619,_ZNK5Catch9XmlEncode8encodeToERSo
FN:9659,_ZN5CatchlsERSoRKNS_9XmlEncodeE
FN:9674,_ZN5Catch9XmlWriter13ScopedElementC2EPS0_
FN:9683,_ZN5Catch9XmlWriter13ScopedElementD2Ev
FN:9688,_ZN5Catch9XmlWriter13ScopedElement9writeTextERKSsb
FN:9694,_ZN5Catch9XmlWriter13ScopedElement14writeAttributeIjEERS1_RKSsRKT_
FN:9694,_ZN5Catch9XmlWriter13ScopedElement14writeAttributeIbEERS1_RKSsRKT_
FN:9694,_ZN5Catch9XmlWriter13ScopedElement14writeAttributeIdEERS1_RKSsRKT_
FN:9711,_ZN5Catch9XmlWriterC2ERSo
FN:9719,_ZN5Catch9XmlWriterD2Ev
FN:9724,_ZN5Catch9XmlWriter12startElementERKSs
FN:9734,_ZN5Catch9XmlWriter13scopedElementERKSs
FN:9740,_ZN5Catch9XmlWriter10endElementEv
FN:9755,_ZN5Catch9XmlWriter14writeAttributeERKSsS2_
FN:9761,_ZN5Catch9XmlWriter14writeAttributeERKSsb
FN:9767,_ZN5Catch9XmlWriter14writeAttributeIA4_cEERS0_RKSsRKT_
FN:9767,_ZN5Catch9XmlWriter14writeAttributeIPKcEERS0_RKSsRKT_
FN:9767,_ZN5Catch9XmlWriter14writeAttributeIjEERS0_RKSsRKT_
FN:9767,_ZN5Catch9XmlWriter14writeAttributeIA1_cEERS0_RKSsRKT_
FN:9767,_ZN5Catch9XmlWriter14writeAttributeIdEERS0_RKSsRKT_
FN:9767,_ZN5Catch9XmlWriter14writeAttributeIA5_cEERS0_RKSsRKT_
FN:9773,_ZN5Catch9XmlWriter9writeTextERKSsb
FN:9792,_ZN5Catch9XmlWriter18writeStylesheetRefERKSs
FN:9802,_ZN5Catch9XmlWriter15ensureTagClosedEv
FN:9813,_ZN5Catch9XmlWriter16writeDeclarationEv
FN:9817,_ZN5Catch9XmlWriter18newlineIfNecessaryEv
FN:9850,_ZN5Catch11XmlReporterC2ERKNS_14ReporterConfigE
FN:9860,_ZN5Catch11XmlReporter14getDescriptionEv
FN:9864,_ZNK5Catch11XmlReporter16getStylesheetRefEv
FN:9868,_ZN5Catch11XmlReporter15writeSourceInfoERKNS_14SourceLineInfoE
FN:9876,_ZN5Catch11XmlReporter19noMatchingTestCasesERKSs
FN:9880,_ZN5Catch11XmlReporter15testRunStartingERKNS_11TestRunInfoE
FN:9890,_ZN5Catch11XmlReporter17testGroupStartingERKNS_9GroupInfoE
FN:9896,_ZN5Catch11XmlReporter16testCaseStartingERKNS_12TestCaseInfoE
FN:9910,_ZN5Catch11XmlReporter15sectionStartingERKNS_11SectionInfoE
FN:9921,_ZN5Catch11XmlReporter17assertionStartingERKNS_13AssertionInfoE
FN:9923,_ZN5Catch11XmlReporter14assertionEndedERKNS_14AssertionStatsE
FN:9996,_ZN5Catch11XmlReporter12sectionEndedERKNS_12SectionStatsE
FN:10011,_ZN5Catch11XmlReporter13testCaseEndedERKNS_13TestCaseStatsE
FN:10027,_ZN5Catch11XmlReporter14testGroupEndedERKNS_14TestGroupStatsE
FN:10037,_ZN5Catch11XmlReporter12testRunEndedERKNS_12TestRunStatsE
FN:10064,_ZN5Catch12_GLOBAL__N_119getCurrentTimestampEv
FN:10094,_ZN5Catch13JunitReporterC2ERKNS_14ReporterConfigE
FN:10103,_ZN5Catch13JunitReporter14getDescriptionEv
FN:10107,_ZN5Catch13JunitReporter19noMatchingTestCasesERKSs
FN:10109,_ZN5Catch13JunitReporter15testRunStartingERKNS_11TestRunInfoE
FN:10114,_ZN5Catch13JunitReporter17testGroupStartingERKNS_9GroupInfoE
FN:10122,_ZN5Catch13JunitReporter14assertionEndedERKNS_14AssertionStatsE
FN:10128,_ZN5Catch13JunitReporter13testCaseEndedERKNS_13TestCaseStatsE
FN:10134,_ZN5Catch13JunitReporter14testGroupEndedERKNS_14TestGroupStatsE
FN:10140,_ZN5Catch13JunitReporter22testRunEndedCumulativeEv
FN:10144,_ZN5Catch13JunitReporter10writeGroupERKNS_22CumulativeReporterBase4NodeINS_14TestGroupStatsENS2_INS_13TestCaseStatsENS1_11SectionNodeEEEEEd
FN:10169,_ZN5Catch13JunitReporter13writeTestCaseERKNS_22CumulativeReporterBase4NodeINS_13TestCaseStatsENS1_11SectionNodeEEE
FN:10186,_ZN5Catch13JunitReporter12writeSectionERKSsS2_RKNS_22CumulativeReporterBase11SectionNodeE
FN:10225,_ZN5Catch13JunitReporter15writeAssertionsERKNS_22CumulativeReporterBase11SectionNodeE
FN:10232,_ZN5Catch13JunitReporter14writeAssertionERKNS_14AssertionStatsE
FN:10305,_ZN5Catch12_GLOBAL__N_120getFormattedDurationEd
FN:10322,_ZN5Catch15ConsoleReporterC2ERKNS_14ReporterConfigE
FN:10328,_ZN5Catch15ConsoleReporter14getDescriptionEv
FN:10332,_ZN5Catch15ConsoleReporter19noMatchingTestCasesERKSs
FN:10336,_ZN5Catch15ConsoleReporter17assertionStartingERKNS_13AssertionInfoE
FN:10339,_ZN5Catch15ConsoleReporter14assertionEndedERKNS_14AssertionStatsE
FN:10359,_ZN5Catch15ConsoleReporter15sectionStartingERKNS_11SectionInfoE
FN:10363,_ZN5Catch15ConsoleReporter12sectionEndedERKNS_12SectionStatsE
FN:10382,_ZN5Catch15ConsoleReporter13testCaseEndedERKNS_13TestCaseStatsE
FN:10386,_ZN5Catch15ConsoleReporter14testGroupEndedERKNS_14TestGroupStatsE
FN:10395,_ZN5Catch15ConsoleReporter12testRunEndedERKNS_12TestRunStatsE
FN:10404,_ZN5Catch15ConsoleReporter16AssertionPrinterD2Ev
FN:10407,_ZN5Catch15ConsoleReporter16AssertionPrinterC2ERSoRKNS_14AssertionStatsEb
FN:10479,_ZNK5Catch15ConsoleReporter16AssertionPrinter5printEv
FN:10495,_ZNK5Catch15ConsoleReporter16AssertionPrinter15printResultTypeEv
FN:10501,_ZNK5Catch15ConsoleReporter16AssertionPrinter23printOriginalExpressionEv
FN:10509,_ZNK5Catch15ConsoleReporter16AssertionPrinter28printReconstructedExpressionEv
FN:10516,_ZNK5Catch15ConsoleReporter16AssertionPrinter12printMessageEv
FN:10527,_ZNK5Catch15ConsoleReporter16AssertionPrinter15printSourceInfoEv
FN:10543,_ZN5Catch15ConsoleReporter9lazyPrintEv
FN:10555,_ZN5Catch15ConsoleReporter16lazyPrintRunInfoEv
FN:10567,_ZN5Catch15ConsoleReporter18lazyPrintGroupInfoEv
FN:10573,_ZN5Catch15ConsoleReporter29printTestCaseAndSectionHeaderEv
FN:10597,_ZN5Catch15ConsoleReporter17printClosedHeaderERKSs
FN:10601,_ZN5Catch15ConsoleReporter15printOpenHeaderERKSs
FN:10611,_ZN5Catch15ConsoleReporter17printHeaderStringERKSsj
FN:10622,_ZN5Catch15ConsoleReporter13SummaryColumnC2ERKS1_
FN:10622,_ZN5Catch15ConsoleReporter13SummaryColumnD2Ev
FN:10622,_ZN5Catch15ConsoleReporter13SummaryColumnC2EOS1_
FN:10624,_ZN5Catch15ConsoleReporter13SummaryColumnC2ERKSsNS_6Colour4CodeE
FN:10628,_ZN5Catch15ConsoleReporter13SummaryColumn6addRowEj
FN:10648,_ZN5Catch15ConsoleReporter11printTotalsERKNS_6TotalsE
FN:10679,_ZN5Catch15ConsoleReporter15printSummaryRowERKSsRKSt6vectorINS0_13SummaryColumnESaIS4_EEj
FN:10698,_ZN5Catch15ConsoleReporter9makeRatioEjj
FN:10702,_ZN5Catch15ConsoleReporter7findMaxERjS1_S1_
FN:10711,_ZN5Catch15ConsoleReporter18printTotalsDividerERKNS_6TotalsE
FN:10733,_ZN5Catch15ConsoleReporter19printSummaryDividerEv
FN:10752,_ZN5Catch15CompactReporterC2ERKNS_14ReporterConfigE
FN:10758,_ZN5Catch15CompactReporter14getDescriptionEv
FN:10762,_ZNK5Catch15CompactReporter14getPreferencesEv
FN:10768,_ZN5Catch15CompactReporter19noMatchingTestCasesERKSs
FN:10772,_ZN5Catch15CompactReporter17assertionStartingERKNS_13AssertionInfoE
FN:10775,_ZN5Catch15CompactReporter14assertionEndedERKNS_14AssertionStatsE
FN:10794,_ZN5Catch15CompactReporter12testRunEndedERKNS_12TestRunStatsE
FN:10801,_ZN5Catch15CompactReporter16AssertionPrinterD2Ev
FN:10804,_ZN5Catch15CompactReporter16AssertionPrinterC2ERSoRKNS_14AssertionStatsEb
FN:10813,_ZN5Catch15CompactReporter16AssertionPrinter5printEv
FN:10884,_ZN5Catch15CompactReporter16AssertionPrinter9dimColourEv
FN:10890,_ZN5Catch15CompactReporter16AssertionPrinter12failedStringEv
FN:10891,_ZN5Catch15CompactReporter16AssertionPrinter12passedStringEv
FN:10894,_ZNK5Catch15CompactReporter16AssertionPrinter15printSourceInfoEv
FN:10899,_ZNK5Catch15CompactReporter16AssertionPrinter15printResultTypeENS_6Colour4CodeESs
FN:10909,_ZNK5Catch15CompactReporter16AssertionPrinter10printIssueESs
FN:10913,_ZN5Catch15CompactReporter16AssertionPrinter18printExpressionWasEv
FN:10924,_ZNK5Catch15CompactReporter16AssertionPrinter23printOriginalExpressionEv
FN:10930,_ZNK5Catch15CompactReporter16AssertionPrinter28printReconstructedExpressionEv
FN:10940,_ZN5Catch15CompactReporter16AssertionPrinter12printMessageEv
FN:10947,_ZN5Catch15CompactReporter16AssertionPrinter22printRemainingMessagesENS_6Colour4CodeE
FN:10988,_ZNK5Catch15CompactReporter9bothOrAllEj
FN:10992,_ZNK5Catch15CompactReporter11printTotalsERKNS_6TotalsE
FN:11036,_ZN5Catch11NonCopyableD0Ev
FN:11036,_ZN5Catch11NonCopyableD2Ev
FN:11037,_ZN5Catch7ISharedD0Ev
FN:11037,_ZN5Catch7ISharedD2Ev
FN:11038,_ZN5Catch7IStreamD0Ev
FN:11038,_ZN5Catch7IStreamD2Ev
FN:11039,_ZN5Catch10FileStreamD2Ev
FN:11039,_ZN5Catch10FileStreamD0Ev
FN:11040,_ZN5Catch10CoutStreamD0Ev
FN:11040,_ZN5Catch10CoutStreamD2Ev
FN:11041,_ZN5Catch14DebugOutStreamD2Ev
FN:11041,_ZN5Catch14DebugOutStreamD0Ev
FN:11042,_ZN5Catch13StreamBufBaseD2Ev
FN:11042,_ZN5Catch13StreamBufBaseD0Ev
FN:11043,_ZN5Catch8IContextD2Ev
FN:11043,_ZN5Catch8IContextD0Ev
FN:11044,_ZN5Catch14IResultCaptureD0Ev
FN:11044,_ZN5Catch14IResultCaptureD2Ev
FN:11045,_ZN5Catch9ITestCaseD0Ev
FN:11045,_ZN5Catch9ITestCaseD2Ev
FN:11046,_ZN5Catch17ITestCaseRegistryD0Ev
FN:11046,_ZN5Catch17ITestCaseRegistryD2Ev
FN:11047,_ZN5Catch12IRegistryHubD2Ev
FN:11047,_ZN5Catch12IRegistryHubD0Ev
FN:11048,_ZN5Catch19IMutableRegistryHubD2Ev
FN:11048,_ZN5Catch19IMutableRegistryHubD0Ev
FN:11049,_ZN5Catch20IExceptionTranslatorD0Ev
FN:11049,_ZN5Catch20IExceptionTranslatorD2Ev
FN:11050,_ZN5Catch28IExceptionTranslatorRegistryD2Ev
FN:11050,_ZN5Catch28IExceptionTranslatorRegistryD0Ev
FN:11051,_ZN5Catch9IReporterD0Ev
FN:11051,_ZN5Catch9IReporterD2Ev
FN:11052,_ZN5Catch16IReporterFactoryD0Ev
FN:11052,_ZN5Catch16IReporterFactoryD2Ev
FN:11053,_ZN5Catch17IReporterRegistryD2Ev
FN:11053,_ZN5Catch17IReporterRegistryD0Ev
FN:11054,_ZN5Catch18IStreamingReporterD0Ev
FN:11054,_ZN5Catch18IStreamingReporterD2Ev
FN:11055,_ZN5Catch14AssertionStatsD0Ev
FN:11055,_ZN5Catch14AssertionStatsD2Ev
FN:11056,_ZN5Catch12SectionStatsD0Ev
FN:11056,_ZN5Catch12SectionStatsD2Ev
FN:11057,_ZN5Catch13TestCaseStatsD2Ev
FN:11057,_ZN5Catch13TestCaseStatsD0Ev
FN:11058,_ZN5Catch14TestGroupStatsD0Ev
FN:11058,_ZN5Catch14TestGroupStatsD2Ev
FN:11059,_ZN5Catch12TestRunStatsD0Ev
FN:11059,_ZN5Catch12TestRunStatsD2Ev
FN:11060,_ZN5Catch22CumulativeReporterBase11SectionNodeD0Ev
FN:11060,_ZN5Catch22CumulativeReporterBase11SectionNodeD2Ev
FN:11061,_ZN5Catch22CumulativeReporterBaseD0Ev
FN:11061,_ZN5Catch22CumulativeReporterBaseD2Ev
FN:11063,_ZN5Catch21StreamingReporterBaseD0Ev
FN:11063,_ZN5Catch21StreamingReporterBaseD2Ev
FN:11064,_ZN5Catch15ConsoleReporterD2Ev
FN:11064,_ZN5Catch15ConsoleReporterD0Ev
FN:11065,_ZN5Catch15CompactReporterD2Ev
FN:11065,_ZN5Catch15CompactReporterD0Ev
FN:11066,_ZN5Catch7IRunnerD2Ev
FN:11066,_ZN5Catch7IRunnerD0Ev
FN:11067,_ZN5Catch15IMutableContextD2Ev
FN:11067,_ZN5Catch15IMutableContextD0Ev
FN:11068,_ZN5Catch7IConfigD0Ev
FN:11068,_ZN5Catch7IConfigD2Ev
FN:11069,_ZN5Catch11XmlReporterD0Ev
FN:11069,_ZN5Catch11XmlReporterD2Ev
FN:11070,_ZN5Catch13JunitReporterD0Ev
FN:11070,_ZN5Catch13JunitReporterD2Ev
FN:11071,_ZN5Catch12TestRegistryD0Ev
FN:11071,_ZN5Catch12TestRegistryD2Ev
FN:11072,_ZN5Catch20FreeFunctionTestCaseD2Ev
FN:11072,_ZN5Catch20FreeFunctionTestCaseD0Ev
FN:11073,_ZN5Catch14IGeneratorInfoD0Ev
FN:11073,_ZN5Catch14IGeneratorInfoD2Ev
FN:11074,_ZN5Catch18IGeneratorsForTestD0Ev
FN:11074,_ZN5Catch18IGeneratorsForTestD2Ev
FN:11075,_ZN5Catch15WildcardPatternD2Ev
FN:11075,_ZN5Catch15WildcardPatternD0Ev
FN:11076,_ZN5Catch8TestSpec7PatternD0Ev
FN:11076,_ZN5Catch8TestSpec7PatternD2Ev
FN:11077,_ZN5Catch8TestSpec11NamePatternD2Ev
FN:11077,_ZN5Catch8TestSpec11NamePatternD0Ev
FN:11078,_ZN5Catch8TestSpec10TagPatternD0Ev
FN:11078,_ZN5Catch8TestSpec10TagPatternD2Ev
FN:11079,_ZN5Catch8TestSpec15ExcludedPatternD2Ev
FN:11079,_ZN5Catch8TestSpec15ExcludedPatternD0Ev
FN:11081,_ZN5Catch6Config5dummyEv
FN:11084,_ZN5Catch16TestCaseTracking8ITrackerD0Ev
FN:11084,_ZN5Catch16TestCaseTracking8ITrackerD2Ev
FN:11085,_ZN5Catch16TestCaseTracking11TrackerBaseD2Ev
FN:11085,_ZN5Catch16TestCaseTracking11TrackerBaseD0Ev
FN:11086,_ZN5Catch16TestCaseTracking14SectionTrackerD2Ev
FN:11086,_ZN5Catch16TestCaseTracking14SectionTrackerD0Ev
FN:11087,_ZN5Catch16TestCaseTracking12IndexTrackerD2Ev
FN:11087,_ZN5Catch16TestCaseTracking12IndexTrackerD0Ev
FN:11104,main
FN:11279,_GLOBAL__sub_I_leakDetector
FN:11279,_Z41__static_initialization_and_destruction_0ii
FN:11279,_GLOBAL__sub_D_leakDetector
FNDA:21,_ZN5Catch11NonCopyableC2Ev
FNDA:4,_ZN5Catch8SafeBool8makeSafeEb
FNDA:0,_ZNK5Catch8SafeBool9trueValueEv
FNDA:0,_ZN5Catch9deleteAllISt6vectorIPNS_14IGeneratorInfoESaIS3_EEEEvRT_
FNDA:1,_ZN5Catch9deleteAllISt6vectorIPKNS_20IExceptionTranslatorESaIS4_EEEEvRT_
FNDA:1,_ZN5Catch15deleteAllValuesISt3mapISsPNS_18IGeneratorsForTestESt4lessISsESaISt4pairIKSsS3_EEEEEvRT_
FNDA:0,_ZN5Catch9pluraliseD2Ev
FNDA:0,_ZN5Catch10alwaysTrueEv
FNDA:0,_ZN5Catch23NotImplementedExceptionD0Ev
FNDA:0,_ZN5Catch23NotImplementedExceptionD2Ev
FNDA:0,_ZN5Catch14IGeneratorInfoC2Ev
FNDA:0,_ZN5Catch18IGeneratorsForTestC2Ev
FNDA:4,_ZN5Catch3PtrINS_22CumulativeReporterBase11SectionNodeEEC2Ev
FNDA:1,_ZN5Catch3PtrINS_6ConfigEEC2Ev
FNDA:2,_ZN5Catch3PtrINS_18IStreamingReporterEEC2Ev
FNDA:1,_ZN5Catch3PtrINS_16TestCaseTracking8ITrackerEEC2Ev
FNDA:4,_ZN5Catch3PtrINS_16IReporterFactoryEEC2EPS1_
FNDA:2,_ZN5Catch3PtrINS_22CumulativeReporterBase11SectionNodeEEC2EPS2_
FNDA:1,_ZN5Catch3PtrINS_6ConfigEEC2EPS1_
FNDA:2,_ZN5Catch3PtrINS_8TestSpec7PatternEEC2EPS2_
FNDA:1,_ZN5Catch3PtrINS_22CumulativeReporterBase4NodeINS_12TestRunStatsENS2_INS_14TestGroupStatsENS2_INS_13TestCaseStatsENS1_11SectionNodeEEEEEEEEC2EPS9_
FNDA:1,_ZN5Catch3PtrINS_22CumulativeReporterBase4NodeINS_14TestGroupStatsENS2_INS_13TestCaseStatsENS1_11SectionNodeEEEEEEC2EPS7_
FNDA:2,_ZN5Catch3PtrINS_22CumulativeReporterBase4NodeINS_13TestCaseStatsENS1_11SectionNodeEEEEC2EPS5_
FNDA:2,_ZN5Catch3PtrINS_9ITestCaseEEC2EPS1_
FNDA:1,_ZN5Catch3PtrINS_18IStreamingReporterEEC2EPS1_
FNDA:3,_ZN5Catch3PtrIKNS_7IConfigEEC2EPS2_
FNDA:4,_ZN5Catch3PtrINS_16TestCaseTracking8ITrackerEEC2EPS2_
FNDA:2,_ZN5Catch3PtrINS_16TestCaseTracking8ITrackerEEC2ERKS3_
FNDA:8,_ZN5Catch3PtrINS_22CumulativeReporterBase11SectionNodeEEC2ERKS3_
FNDA:1,_ZN5Catch3PtrINS_22CumulativeReporterBase4NodeINS_12TestRunStatsENS2_INS_14TestGroupStatsENS2_INS_13TestCaseStatsENS1_11SectionNodeEEEEEEEEC2ERKSA_
FNDA:1,_ZN5Catch3PtrINS_22CumulativeReporterBase4NodeINS_14TestGroupStatsENS2_INS_13TestCaseStatsENS1_11SectionNodeEEEEEEC2ERKS8_
FNDA:3,_ZN5Catch3PtrINS_22CumulativeReporterBase4NodeINS_13TestCaseStatsENS1_11SectionNodeEEEEC2ERKS6_
FNDA:0,_ZN5Catch3PtrINS_9IReporterEEC2ERKS2_
FNDA:7,_ZN5Catch3PtrINS_9ITestCaseEEC2ERKS2_
FNDA:8,_ZN5Catch3PtrINS_16IReporterFactoryEEC2ERKS2_
FNDA:6,_ZN5Catch3PtrINS_18IStreamingReporterEEC2ERKS2_
FNDA:4,_ZN5Catch3PtrIKNS_7IConfigEEC2ERKS3_
FNDA:4,_ZN5Catch3PtrINS_8TestSpec7PatternEEC2ERKS3_
FNDA:2,_ZN5Catch3PtrINS_22CumulativeReporterBase4NodeINS_12TestRunStatsENS2_INS_14TestGroupStatsENS2_INS_13TestCaseStatsENS1_11SectionNodeEEEEEEEED2Ev
FNDA:2,_ZN5Catch3PtrINS_22CumulativeReporterBase4NodeINS_14TestGroupStatsENS2_INS_13TestCaseStatsENS1_11SectionNodeEEEEEED2Ev
FNDA:5,_ZN5Catch3PtrINS_22CumulativeReporterBase4NodeINS_13TestCaseStatsENS1_11SectionNodeEEEED2Ev
FNDA:14,_ZN5Catch3PtrINS_22CumulativeReporterBase11SectionNodeEED2Ev
FNDA:0,_ZN5Catch3PtrINS_9IReporterEED2Ev
FNDA:12,_ZN5Catch3PtrINS_16IReporterFactoryEED2Ev
FNDA:9,_ZN5Catch3PtrINS_9ITestCaseEED2Ev
FNDA:2,_ZN5Catch3PtrINS_6ConfigEED2Ev
FNDA:9,_ZN5Catch3PtrINS_18IStreamingReporterEED2Ev
FNDA:7,_ZN5Catch3PtrINS_16TestCaseTracking8ITrackerEED2Ev
FNDA:7,_ZN5Catch3PtrIKNS_7IConfigEED2Ev
FNDA:6,_ZN5Catch3PtrINS_8TestSpec7PatternEED2Ev
FNDA:2,_ZN5Catch3PtrINS_22CumulativeReporterBase11SectionNodeEE5resetEv
FNDA:1,_ZN5Catch3PtrINS_6ConfigEE5resetEv
FNDA:1,_ZN5Catch3PtrINS_8TestSpec7PatternEEaSEPS2_
FNDA:2,_ZN5Catch3PtrINS_22CumulativeReporterBase11SectionNodeEEaSEPS2_
FNDA:1,_ZN5Catch3PtrINS_6ConfigEEaSEPS1_
FNDA:2,_ZN5Catch3PtrINS_16TestCaseTracking8ITrackerEEaSEPS2_
FNDA:4,_ZN5Catch3PtrINS_22CumulativeReporterBase11SectionNodeEEaSERKS3_
FNDA:1,_ZN5Catch3PtrIKNS_7IConfigEEaSERKS3_
FNDA:3,_ZN5Catch3PtrINS_18IStreamingReporterEEaSERKS2_
FNDA:1,_ZN5Catch3PtrINS_8TestSpec7PatternEE4swapERS3_
FNDA:6,_ZN5Catch3PtrINS_22CumulativeReporterBase11SectionNodeEE4swapERS3_
FNDA:1,_ZN5Catch3PtrIKNS_7IConfigEE4swapERS3_
FNDA:1,_ZN5Catch3PtrINS_6ConfigEE4swapERS2_
FNDA:3,_ZN5Catch3PtrINS_18IStreamingReporterEE4swapERS2_
FNDA:2,_ZN5Catch3PtrINS_16TestCaseTracking8ITrackerEE4swapERS3_
FNDA:0,_ZN5Catch3PtrINS_9ITestCaseEE4swapERS2_
FNDA:0,_ZNK5Catch3PtrINS_9ITestCaseEE3getEv
FNDA:2,_ZNK5Catch3PtrINS_6ConfigEE3getEv
FNDA:2,_ZNK5Catch3PtrINS_16TestCaseTracking8ITrackerEE3getEv
FNDA:2,_ZNK5Catch3PtrINS_22CumulativeReporterBase4NodeINS_13TestCaseStatsENS1_11SectionNodeEEEEdeEv
FNDA:1,_ZNK5Catch3PtrINS_22CumulativeReporterBase4NodeINS_14TestGroupStatsENS2_INS_13TestCaseStatsENS1_11SectionNodeEEEEEEdeEv
FNDA:8,_ZNK5Catch3PtrINS_22CumulativeReporterBase11SectionNodeEEdeEv
FNDA:3,_ZNK5Catch3PtrINS_6ConfigEEdeEv
FNDA:5,_ZNK5Catch3PtrIKNS_7IConfigEEdeEv
FNDA:2,_ZNK5Catch3PtrINS_16TestCaseTracking8ITrackerEEdeEv
FNDA:1,_ZNK5Catch3PtrINS_22CumulativeReporterBase4NodeINS_12TestRunStatsENS2_INS_14TestGroupStatsENS2_INS_13TestCaseStatsENS1_11SectionNodeEEEEEEEEptEv
FNDA:1,_ZNK5Catch3PtrINS_22CumulativeReporterBase4NodeINS_14TestGroupStatsENS2_INS_13TestCaseStatsENS1_11SectionNodeEEEEEEptEv
FNDA:2,_ZNK5Catch3PtrINS_22CumulativeReporterBase4NodeINS_13TestCaseStatsENS1_11SectionNodeEEEEptEv
FNDA:4,_ZNK5Catch3PtrINS_22CumulativeReporterBase11SectionNodeEEptEv
FNDA:0,_ZNK5Catch3PtrINS_9IReporterEEptEv
FNDA:2,_ZNK5Catch3PtrINS_9ITestCaseEEptEv
FNDA:3,_ZNK5Catch3PtrINS_6ConfigEEptEv
FNDA:18,_ZNK5Catch3PtrINS_18IStreamingReporterEEptEv
FNDA:0,_ZNK5Catch3PtrINS_16TestCaseTracking8ITrackerEEptEv
FNDA:1,_ZNK5Catch3PtrINS_16IReporterFactoryEEptEv
FNDA:12,_ZNK5Catch3PtrIKNS_7IConfigEEptEv
FNDA:4,_ZNK5Catch3PtrINS_8TestSpec7PatternEEptEv
FNDA:2,_ZNK5Catch3PtrINS_22CumulativeReporterBase11SectionNodeEEntEv
FNDA:2,_ZNK5Catch3PtrINS_6ConfigEEntEv
FNDA:1,_ZNK5Catch3PtrINS_18IStreamingReporterEEntEv
FNDA:2,_ZNK5Catch3PtrINS_22CumulativeReporterBase11SectionNodeEEcvMNS_8SafeBoolEKFvvEEv
FNDA:1,_ZNK5Catch3PtrINS_18IStreamingReporterEEcvMNS_8SafeBoolEKFvvEEv
FNDA:0,_ZNK5Catch3PtrIKNS_7IConfigEEcvMNS_8SafeBoolEKFvvEEv
FNDA:20,_ZN5Catch7ISharedC2Ev
FNDA:0,_ZN5Catch10SharedImplINS_16IReporterFactoryEED0Ev
FNDA:4,_ZN5Catch10SharedImplINS_16IReporterFactoryEED2Ev
FNDA:0,_ZN5Catch10SharedImplINS_18IStreamingReporterEED0Ev
FNDA:1,_ZN5Catch10SharedImplINS_18IStreamingReporterEED2Ev
FNDA:0,_ZN5Catch10SharedImplINS_9ITestCaseEED0Ev
FNDA:2,_ZN5Catch10SharedImplINS_9ITestCaseEED2Ev
FNDA:0,_ZN5Catch10SharedImplINS_7IConfigEED0Ev
FNDA:1,_ZN5Catch10SharedImplINS_7IConfigEED2Ev
FNDA:0,_ZN5Catch10SharedImplINS_7ISharedEED0Ev
FNDA:12,_ZN5Catch10SharedImplINS_7ISharedEED2Ev
FNDA:4,_ZN5Catch10SharedImplINS_16IReporterFactoryEEC2Ev
FNDA:1,_ZN5Catch10SharedImplINS_18IStreamingReporterEEC2Ev
FNDA:2,_ZN5Catch10SharedImplINS_9ITestCaseEEC2Ev
FNDA:1,_ZN5Catch10SharedImplINS_7IConfigEEC2Ev
FNDA:12,_ZN5Catch10SharedImplINS_7ISharedEEC2Ev
FNDA:9,_ZNK5Catch10SharedImplINS_9ITestCaseEE6addRefEv
FNDA:7,_ZNK5Catch10SharedImplINS_18IStreamingReporterEE6addRefEv
FNDA:12,_ZNK5Catch10SharedImplINS_16IReporterFactoryEE6addRefEv
FNDA:7,_ZNK5Catch10SharedImplINS_7IConfigEE6addRefEv
FNDA:31,_ZNK5Catch10SharedImplINS_7ISharedEE6addRefEv
FNDA:9,_ZNK5Catch10SharedImplINS_9ITestCaseEE7releaseEv
FNDA:7,_ZNK5Catch10SharedImplINS_18IStreamingReporterEE7releaseEv
FNDA:12,_ZNK5Catch10SharedImplINS_16IReporterFactoryEE7releaseEv
FNDA:7,_ZNK5Catch10SharedImplINS_7IConfigEE7releaseEv
FNDA:31,_ZNK5Catch10SharedImplINS_7ISharedEE7releaseEv
FNDA:1,_ZN5Catch8IContextC2Ev
FNDA:1,_ZN5Catch15IMutableContextC2Ev
FNDA:2,_ZN5Catch9ITestCaseC2Ev
FNDA:1,_ZN5Catch17ITestCaseRegistryC2Ev
FNDA:12,_ZN5Catch4isOkENS_9ResultWas6OfTypeE
FNDA:4,_ZN5Catch11isFalseTestEi
FNDA:0,_ZN5Catch21shouldSuppressFailureEi
FNDA:0,_ZN5Catch20DecomposedExpressionC2Ev
FNDA:0,_ZN5Catch20DecomposedExpressionD0Ev
FNDA:0,_ZN5Catch20DecomposedExpressionD2Ev
FNDA:0,_ZNK5Catch20DecomposedExpression18isBinaryExpressionEv
FNDA:2,_ZN5Catch13AssertionInfoC2EOS0_
FNDA:4,_ZN5Catch13AssertionInfoaSERKS0_
FNDA:6,_ZN5Catch13AssertionInfoaSEOS0_
FNDA:0,_ZN5Catch13AssertionInfoD2Ev
FNDA:12,_ZN5Catch13AssertionInfoC2ERKS0_
FNDA:2,_ZN5Catch13AssertionInfoC2Ev
FNDA:2,_ZN5Catch19AssertionResultDataC2EOS0_
FNDA:4,_ZN5Catch19AssertionResultDataaSERKS0_
FNDA:0,_ZN5Catch19AssertionResultDataD2Ev
FNDA:16,_ZN5Catch19AssertionResultDataC2ERKS0_
FNDA:5,_ZN5Catch19AssertionResultDataC2Ev
FNDA:0,_ZN5Catch19AssertionResultData6negateEb
FNDA:0,_ZNK5Catch19AssertionResultData21reconstructExpressionEv
FNDA:4,_ZN5Catch15AssertionResultaSERKS0_
FNDA:8,_ZN5Catch15AssertionResultC2ERKS0_
FNDA:2,_ZN5Catch15AssertionResultC2EOS0_
FNDA:0,_ZN5Catch8Matchers4Impl18MatcherUntypedBaseD2Ev
FNDA:0,_ZN5Catch8Matchers4Impl18MatcherUntypedBaseC2Ev
FNDA:0,_ZNK5Catch8Matchers4Impl18MatcherUntypedBase8toStringEv
FNDA:0,_ZN5Catch8Matchers4Impl11MatcherBaseISsSsED2Ev
FNDA:0,_ZN5Catch8Matchers4Impl11MatcherBaseISsSsEC2Ev
FNDA:0,_ZN5Catch8Matchers4Impl10MatchAllOfISsED2Ev
FNDA:0,_ZN5Catch8Matchers4Impl10MatchAllOfISsEC2Ev
FNDA:0,_ZNK5Catch8Matchers4Impl10MatchAllOfISsE5matchERKSs
FNDA:0,_ZNK5Catch8Matchers4Impl10MatchAllOfISsE8describeEv
FNDA:0,_ZN5Catch14CopyableStreamD2Ev
FNDA:4,_ZN5Catch14CopyableStreamC2Ev
FNDA:0,_ZN5Catch13ResultBuilderD0Ev
FNDA:0,_ZN5Catch13ResultBuilderD2Ev
FNDA:0,_ZN5Catch13ResultBuilderlsISsEERS0_RKT_
FNDA:0,_ZN5Catch11MessageInfoC2EOS0_
FNDA:0,_ZN5Catch11MessageInfoaSEOS0_
FNDA:0,_ZN5Catch11MessageInfoC2ERKS0_
FNDA:0,_ZN5Catch11MessageInfoD2Ev
FNDA:0,_ZNK5Catch11MessageInfoeqERKS0_
FNDA:0,_ZN5Catch14MessageBuilderD2Ev
FNDA:0,_ZN5Catch14MessageBuilderC2ERKSsRKNS_14SourceLineInfoENS_9ResultWas6OfTypeE
FNDA:0,_ZN5Catch14MessageBuilderlsISsEERS0_RKT_
FNDA:1,_ZN5Catch14IResultCaptureC2Ev
FNDA:1,_ZN5Catch7IRunnerC2Ev
FNDA:16,_ZN5Catch6CountsC2Ev
FNDA:6,_ZNK5Catch6CountsmiERKS0_
FNDA:6,_ZN5Catch6CountspLERKS0_
FNDA:3,_ZNK5Catch6Counts5totalEv
FNDA:0,_ZNK5Catch6Counts9allPassedEv
FNDA:0,_ZNK5Catch6Counts5allOkEv
FNDA:4,_ZN5Catch6TotalsC2Ev
FNDA:2,_ZNK5Catch6TotalsmiERKS0_
FNDA:2,_ZNK5Catch6Totals5deltaERKS0_
FNDA:2,_ZN5Catch6TotalspLERKS0_
FNDA:0,_ZN5Catch11SectionInfoC2EOS0_
FNDA:2,_ZN5Catch11SectionInfoaSERKS0_
FNDA:8,_ZN5Catch11SectionInfoD2Ev
FNDA:6,_ZN5Catch11SectionInfoC2ERKS0_
FNDA:0,_ZN5Catch14SectionEndInfoC2EOS0_
FNDA:0,_ZN5Catch14SectionEndInfoC2ERKS0_
FNDA:0,_ZN5Catch14SectionEndInfoD2Ev
FNDA:0,_ZN5Catch14SectionEndInfoC2ERKNS_11SectionInfoERKNS_6CountsEd
FNDA:3,_ZN5Catch5TimerC2Ev
FNDA:1,_ZN5Catch12IRegistryHubC2Ev
FNDA:1,_ZN5Catch19IMutableRegistryHubC2Ev
FNDA:1,_ZN5Catch28IExceptionTranslatorRegistryC2Ev
FNDA:0,_ZN5Catch8Matchers9StdString11CasedStringC2ERKS2_
FNDA:0,_ZN5Catch8Matchers9StdString11CasedStringD2Ev
FNDA:0,_ZN5Catch8Matchers9StdString17StringMatcherBaseD2Ev
FNDA:0,_ZN5Catch8Matchers9StdString13EqualsMatcherD2Ev
FNDA:0,_ZN5Catch8TagAliasC2ERKS0_
FNDA:0,_ZN5Catch8TagAliasC2EOS0_
FNDA:0,_ZN5Catch8TagAliasD2Ev
FNDA:0,_ZN5Catch8TagAliasC2ESsNS_14SourceLineInfoE
FNDA:0,_ZN5Catch6OptionINS_12TestCaseInfoEEC2Ev
FNDA:0,_ZN5Catch6OptionINS_9GroupInfoEEC2Ev
FNDA:0,_ZN5Catch6OptionINS_11TestRunInfoEEC2Ev
FNDA:0,_ZN5Catch6OptionINS_8TagAliasEEC2Ev
FNDA:1,_ZN5Catch6OptionIjEC2Ev
FNDA:0,_ZN5Catch6OptionINS_8TagAliasEEC2ERKS1_
FNDA:0,_ZN5Catch6OptionINS_12TestCaseInfoEED2Ev
FNDA:0,_ZN5Catch6OptionINS_9GroupInfoEED2Ev
FNDA:0,_ZN5Catch6OptionINS_11TestRunInfoEED2Ev
FNDA:0,_ZN5Catch6OptionINS_8TagAliasEED2Ev
FNDA:1,_ZN5Catch6OptionIjED2Ev
FNDA:0,_ZN5Catch6OptionINS_12TestCaseInfoEEaSERKS1_
FNDA:0,_ZN5Catch6OptionINS_9GroupInfoEEaSERKS1_
FNDA:0,_ZN5Catch6OptionINS_11TestRunInfoEEaSERKS1_
FNDA:0,_ZN5Catch6OptionIjEaSERKj
FNDA:0,_ZN5Catch6OptionINS_12TestCaseInfoEE5resetEv
FNDA:0,_ZN5Catch6OptionINS_9GroupInfoEE5resetEv
FNDA:0,_ZN5Catch6OptionINS_11TestRunInfoEE5resetEv
FNDA:0,_ZN5Catch6OptionINS_8TagAliasEE5resetEv
FNDA:1,_ZN5Catch6OptionIjE5resetEv
FNDA:0,_ZN5Catch6OptionIjEdeEv
FNDA:0,_ZN5Catch6OptionINS_12TestCaseInfoEEptEv
FNDA:0,_ZN5Catch6OptionINS_9GroupInfoEEptEv
FNDA:0,_ZN5Catch6OptionINS_11TestRunInfoEEptEv
FNDA:0,_ZN5Catch6OptionINS_8TagAliasEEptEv
FNDA:0,_ZNK5Catch6OptionIjE7valueOrERKj
FNDA:1,_ZNK5Catch6OptionIjE4someEv
FNDA:1,_ZNK5Catch6OptionIjEcvMNS_8SafeBoolEKFvvEEv
FNDA:1,_ZN5Catch17ITagAliasRegistryC2Ev
FNDA:17,_ZN5Catch12TestCaseInfoD2Ev
FNDA:9,_ZN5Catch8TestCaseD2Ev
FNDA:0,_ZN5Catch15WildcardPatternC2ERKSsNS_13CaseSensitive6ChoiceE
FNDA:0,_ZNK5Catch15WildcardPattern7matchesERKSs
FNDA:0,_ZNK5Catch15WildcardPattern10adjustCaseERKSs
FNDA:1,_ZN5Catch8TestSpecaSEOS0_
FNDA:2,_ZN5Catch8TestSpecC2ERKS0_
FNDA:4,_ZN5Catch8TestSpecD2Ev
FNDA:2,_ZN5Catch8TestSpecC2Ev
FNDA:2,_ZN5Catch8TestSpec7PatternC2Ev
FNDA:0,_ZN5Catch8TestSpec11NamePatternC2ERKSs
FNDA:0,_ZNK5Catch8TestSpec11NamePattern7matchesERKNS_12TestCaseInfoE
FNDA:1,_ZN5Catch8TestSpec10TagPatternC2ERKSs
FNDA:2,_ZNK5Catch8TestSpec10TagPattern7matchesERKNS_12TestCaseInfoE
FNDA:1,_ZN5Catch8TestSpec15ExcludedPatternC2ERKNS_3PtrINS0_7PatternEEE
FNDA:2,_ZNK5Catch8TestSpec15ExcludedPattern7matchesERKNS_12TestCaseInfoE
FNDA:0,_ZN5Catch8TestSpec6FilterC2EOS1_
FNDA:2,_ZN5Catch8TestSpec6FilterC2ERKS1_
FNDA:1,_ZN5Catch8TestSpec6FilteraSEOS1_
FNDA:4,_ZN5Catch8TestSpec6FilterD2Ev
FNDA:2,_ZN5Catch8TestSpec6FilterC2Ev
FNDA:2,_ZNK5Catch8TestSpec6Filter7matchesERKNS_12TestCaseInfoE
FNDA:1,_ZNK5Catch8TestSpec10hasFiltersEv
FNDA:2,_ZNK5Catch8TestSpec7matchesERKNS_12TestCaseInfoE
FNDA:1,_ZN5Catch14TestSpecParserD2Ev
FNDA:1,_ZN5Catch14TestSpecParserC2ERKNS_17ITagAliasRegistryE
FNDA:1,_ZN5Catch14TestSpecParser5parseERKSs
FNDA:1,_ZN5Catch14TestSpecParser8testSpecEv
FNDA:3,_ZN5Catch14TestSpecParser9visitCharEc
FNDA:1,_ZN5Catch14TestSpecParser12startNewModeENS0_4ModeEj
FNDA:0,_ZN5Catch14TestSpecParser6escapeEv
FNDA:1,_ZNK5Catch14TestSpecParser9subStringEv
FNDA:1,_ZN5Catch14TestSpecParser10addPatternINS_8TestSpec10TagPatternEEEvv
FNDA:0,_ZN5Catch14TestSpecParser10addPatternINS_8TestSpec11NamePatternEEEvv
FNDA:1,_ZN5Catch14TestSpecParser9addFilterEv
FNDA:1,_ZN5Catch7IConfigC2Ev
FNDA:0,_ZN5Catch13StreamBufBaseC2Ev
FNDA:1,_ZN5Catch7IStreamC2Ev
FNDA:1,_ZN5Catch10ConfigDataC2ERKS0_
FNDA:2,_ZN5Catch10ConfigDataD2Ev
FNDA:1,_ZN5Catch10ConfigDataC2Ev
FNDA:1,_ZN5Catch6ConfigC2ERKNS_10ConfigDataE
FNDA:1,_ZN5Catch6ConfigD0Ev
FNDA:1,_ZN5Catch6ConfigD2Ev
FNDA:1,_ZNK5Catch6Config9listTestsEv
FNDA:1,_ZNK5Catch6Config17listTestNamesOnlyEv
FNDA:1,_ZNK5Catch6Config8listTagsEv
FNDA:1,_ZNK5Catch6Config13listReportersEv
FNDA:1,_ZNK5Catch6Config16getReporterNamesEv
FNDA:2,_ZNK5Catch6Config16getSectionsToRunEv
FNDA:1,_ZNK5Catch6Config8testSpecEv
FNDA:2,_ZNK5Catch6Config11allowThrowsEv
FNDA:1,_ZNK5Catch6Config6streamEv
FNDA:3,_ZNK5Catch6Config4nameEv
FNDA:0,_ZNK5Catch6Config24includeSuccessfulResultsEv
FNDA:0,_ZNK5Catch6Config26warnAboutMissingAssertionsEv
FNDA:1,_ZNK5Catch6Config13showDurationsEv
FNDA:3,_ZNK5Catch6Config8runOrderEv
FNDA:3,_ZNK5Catch6Config7rngSeedEv
FNDA:0,_ZNK5Catch6Config9useColourEv
FNDA:0,_ZNK5Catch6Config16shouldDebugBreakEv
FNDA:6,_ZNK5Catch6Config10abortAfterEv
FNDA:0,_ZNK5Catch6Config14showInvisiblesEv
FNDA:1,_ZN5Catch6Config10openStreamEv
FNDA:0,_ZN3Tbc14TextAttributesC2Ev
FNDA:0,_ZN3Tbc14TextAttributes9setIndentEj
FNDA:0,_ZN3Tbc14TextAttributes8setWidthEj
FNDA:0,_ZN3Tbc4TextD2Ev
FNDA:0,_ZN3Tbc4TextC2ERKSsRKNS_14TextAttributesE
FNDA:0,_ZN3Tbc4Text10spliceLineEjRSsj
FNDA:0,_ZNK3Tbc4Text4sizeEv
FNDA:0,_ZNK3Tbc4TextixEj
FNDA:59,_ZN5Catch5Clara6Detail10startsWithERKSsS3_
FNDA:0,_ZN5Catch5Clara6Detail11convertIntoIiEEvRKSsRT_
FNDA:2,_ZN5Catch5Clara6Detail11convertIntoERKSsRSs
FNDA:0,_ZN5Catch5Clara6Detail9toLowerChEc
FNDA:0,_ZN5Catch5Clara6Detail11convertIntoERKSsRb
FNDA:0,_ZN5Catch5Clara6Detail12IArgFunctionINS_10ConfigDataEED0Ev
FNDA:82,_ZN5Catch5Clara6Detail12IArgFunctionINS_10ConfigDataEED2Ev
FNDA:26,_ZN5Catch5Clara6Detail12IArgFunctionINS_10ConfigDataEEC2Ev
FNDA:56,_ZN5Catch5Clara6Detail12IArgFunctionINS_10ConfigDataEEC2ERKS4_
FNDA:24,_ZN5Catch5Clara6Detail16BoundArgFunctionINS_10ConfigDataEEC2Ev
FNDA:26,_ZN5Catch5Clara6Detail16BoundArgFunctionINS_10ConfigDataEEC2EPNS1_12IArgFunctionIS3_EE
FNDA:54,_ZN5Catch5Clara6Detail16BoundArgFunctionINS_10ConfigDataEEC2ERKS4_
FNDA:25,_ZN5Catch5Clara6Detail16BoundArgFunctionINS_10ConfigDataEEaSERKS4_
FNDA:104,_ZN5Catch5Clara6Detail16BoundArgFunctionINS_10ConfigDataEED2Ev
FNDA:2,_ZNK5Catch5Clara6Detail16BoundArgFunctionINS_10ConfigDataEE3setERS3_RKSs
FNDA:23,_ZNK5Catch5Clara6Detail16BoundArgFunctionINS_10ConfigDataEE5isSetEv
FNDA:0,_ZN5Catch5Clara6Detail10NullBinderINS_10ConfigDataEEC2ERKS4_
FNDA:1,_ZN5Catch5Clara6Detail10NullBinderINS_10ConfigDataEED0Ev
FNDA:1,_ZN5Catch5Clara6Detail10NullBinderINS_10ConfigDataEED2Ev
FNDA:1,_ZN5Catch5Clara6Detail10NullBinderINS_10ConfigDataEEC2Ev
FNDA:0,_ZNK5Catch5Clara6Detail10NullBinderINS_10ConfigDataEE3setERS3_RKSs
FNDA:0,_ZNK5Catch5Clara6Detail10NullBinderINS_10ConfigDataEE8takesArgEv
FNDA:0,_ZNK5Catch5Clara6Detail10NullBinderINS_10ConfigDataEE5cloneEv
FNDA:6,_ZN5Catch5Clara6Detail15BoundDataMemberINS_10ConfigDataESsEC2ERKS4_
FNDA:32,_ZN5Catch5Clara6Detail15BoundDataMemberINS_10ConfigDataEbEC2ERKS4_
FNDA:9,_ZN5Catch5Clara6Detail15BoundDataMemberINS_10ConfigDataESsED0Ev
FNDA:9,_ZN5Catch5Clara6Detail15BoundDataMemberINS_10ConfigDataESsED2Ev
FNDA:42,_ZN5Catch5Clara6Detail15BoundDataMemberINS_10ConfigDataEbED0Ev
FNDA:42,_ZN5Catch5Clara6Detail15BoundDataMemberINS_10ConfigDataEbED2Ev
FNDA:10,_ZN5Catch5Clara6Detail15BoundDataMemberINS_10ConfigDataEbEC2EMS3_b
FNDA:3,_ZN5Catch5Clara6Detail15BoundDataMemberINS_10ConfigDataESsEC2EMS3_Ss
FNDA:1,_ZNK5Catch5Clara6Detail15BoundDataMemberINS_10ConfigDataESsE3setERS3_RKSs
FNDA:0,_ZNK5Catch5Clara6Detail15BoundDataMemberINS_10ConfigDataEbE3setERS3_RKSs
FNDA:0,_ZNK5Catch5Clara6Detail15BoundDataMemberINS_10ConfigDataESsE8takesArgEv
FNDA:0,_ZNK5Catch5Clara6Detail15BoundDataMemberINS_10ConfigDataEbE8takesArgEv
FNDA:6,_ZNK5Catch5Clara6Detail15BoundDataMemberINS_10ConfigDataESsE5cloneEv
FNDA:32,_ZNK5Catch5Clara6Detail15BoundDataMemberINS_10ConfigDataEbE5cloneEv
FNDA:3,_ZN5Catch5Clara6Detail18BoundUnaryFunctionINS_10ConfigDataEEC2ERKS4_
FNDA:5,_ZN5Catch5Clara6Detail18BoundUnaryFunctionINS_10ConfigDataEED0Ev
FNDA:5,_ZN5Catch5Clara6Detail18BoundUnaryFunctionINS_10ConfigDataEED2Ev
FNDA:2,_ZN5Catch5Clara6Detail18BoundUnaryFunctionINS_10ConfigDataEEC2EPFvRS3_E
FNDA:0,_ZNK5Catch5Clara6Detail18BoundUnaryFunctionINS_10ConfigDataEE3setERS3_RKSs
FNDA:0,_ZNK5Catch5Clara6Detail18BoundUnaryFunctionINS_10ConfigDataEE8takesArgEv
FNDA:3,_ZNK5Catch5Clara6Detail18BoundUnaryFunctionINS_10ConfigDataEE5cloneEv
FNDA:11,_ZN5Catch5Clara6Detail19BoundBinaryFunctionINS_10ConfigDataERKSsEC2ERKS6_
FNDA:2,_ZN5Catch5Clara6Detail19BoundBinaryFunctionINS_10ConfigDataEiEC2ERKS4_
FNDA:2,_ZN5Catch5Clara6Detail19BoundBinaryFunctionINS_10ConfigDataEbEC2ERKS4_
FNDA:19,_ZN5Catch5Clara6Detail19BoundBinaryFunctionINS_10ConfigDataERKSsED0Ev
FNDA:19,_ZN5Catch5Clara6Detail19BoundBinaryFunctionINS_10ConfigDataERKSsED2Ev
FNDA:3,_ZN5Catch5Clara6Detail19BoundBinaryFunctionINS_10ConfigDataEiED0Ev
FNDA:3,_ZN5Catch5Clara6Detail19BoundBinaryFunctionINS_10ConfigDataEiED2Ev
FNDA:3,_ZN5Catch5Clara6Detail19BoundBinaryFunctionINS_10ConfigDataEbED0Ev
FNDA:3,_ZN5Catch5Clara6Detail19BoundBinaryFunctionINS_10ConfigDataEbED2Ev
FNDA:1,_ZN5Catch5Clara6Detail19BoundBinaryFunctionINS_10ConfigDataEbEC2EPFvRS3_bE
FNDA:1,_ZN5Catch5Clara6Detail19BoundBinaryFunctionINS_10ConfigDataEiEC2EPFvRS3_iE
FNDA:8,_ZN5Catch5Clara6Detail19BoundBinaryFunctionINS_10ConfigDataERKSsEC2EPFvRS3_S5_E
FNDA:1,_ZNK5Catch5Clara6Detail19BoundBinaryFunctionINS_10ConfigDataERKSsE3setERS3_S5_
FNDA:0,_ZNK5Catch5Clara6Detail19BoundBinaryFunctionINS_10ConfigDataEiE3setERS3_RKSs
FNDA:0,_ZNK5Catch5Clara6Detail19BoundBinaryFunctionINS_10ConfigDataEbE3setERS3_RKSs
FNDA:0,_ZNK5Catch5Clara6Detail19BoundBinaryFunctionINS_10ConfigDataERKSsE8takesArgEv
FNDA:0,_ZNK5Catch5Clara6Detail19BoundBinaryFunctionINS_10ConfigDataEiE8takesArgEv
FNDA:0,_ZNK5Catch5Clara6Detail19BoundBinaryFunctionINS_10ConfigDataEbE8takesArgEv
FNDA:11,_ZNK5Catch5Clara6Detail19BoundBinaryFunctionINS_10ConfigDataERKSsE5cloneEv
FNDA:2,_ZNK5Catch5Clara6Detail19BoundBinaryFunctionINS_10ConfigDataEiE5cloneEv
FNDA:2,_ZNK5Catch5Clara6Detail19BoundBinaryFunctionINS_10ConfigDataEbE5cloneEv
FNDA:1,_ZN5Catch5Clara12argsToVectorEiPKPKc
FNDA:0,_ZN5Catch5Clara6Parser5TokenC2ERKS2_
FNDA:3,_ZN5Catch5Clara6Parser5TokenC2EOS2_
FNDA:5,_ZN5Catch5Clara6Parser5TokenD2Ev
FNDA:2,_ZN5Catch5Clara6Parser5TokenC2ENS2_4TypeERKSs
FNDA:1,_ZN5Catch5Clara6ParserC2Ev
FNDA:1,_ZN5Catch5Clara6Parser15parseIntoTokensERKSt6vectorISsSaISsEERS2_INS1_5TokenESaIS7_EE
FNDA:2,_ZN5Catch5Clara6Parser15parseIntoTokensERKSsRSt6vectorINS1_5TokenESaIS5_EE
FNDA:9,_ZN5Catch5Clara6Parser10handleModeEjcRKSsRSt6vectorINS1_5TokenESaIS5_EE
FNDA:2,_ZN5Catch5Clara6Parser10handleNoneEjc
FNDA:1,_ZN5Catch5Clara6Parser19handleMaybeShortOptEjc
FNDA:1,_ZN5Catch5Clara6Parser9handleOptEjcRKSsRSt6vectorINS1_5TokenESaIS5_EE
FNDA:5,_ZN5Catch5Clara6Parser16handlePositionalEjcRKSsRSt6vectorINS1_5TokenESaIS5_EE
FNDA:23,_ZN5Catch5Clara19CommonArgPropertiesINS_10ConfigDataEEC2EOS3_
FNDA:31,_ZN5Catch5Clara19CommonArgPropertiesINS_10ConfigDataEEC2ERKS3_
FNDA:78,_ZN5Catch5Clara19CommonArgPropertiesINS_10ConfigDataEED2Ev
FNDA:24,_ZN5Catch5Clara19CommonArgPropertiesINS_10ConfigDataEEC2Ev
FNDA:1,_ZNK5Catch5Clara19CommonArgPropertiesINS_10ConfigDataEE8takesArgEv
FNDA:23,_ZNK5Catch5Clara19CommonArgPropertiesINS_10ConfigDataEE8validateEv
FNDA:23,_ZN5Catch5Clara19OptionArgPropertiesC2EOS1_
FNDA:24,_ZN5Catch5Clara19OptionArgPropertiesC2Ev
FNDA:31,_ZN5Catch5Clara19OptionArgPropertiesC2ERKS1_
FNDA:78,_ZN5Catch5Clara19OptionArgPropertiesD2Ev
FNDA:9,_ZNK5Catch5Clara19OptionArgProperties12hasShortNameERKSs
FNDA:0,_ZNK5Catch5Clara19OptionArgProperties11hasLongNameERKSs
FNDA:24,_ZN5Catch5Clara23PositionalArgPropertiesC2Ev
FNDA:1,_ZN5Catch5Clara11CommandLineINS_10ConfigDataEED2Ev
FNDA:23,_ZN5Catch5Clara11CommandLineINS_10ConfigDataEE3ArgC2EOS4_
FNDA:31,_ZN5Catch5Clara11CommandLineINS_10ConfigDataEE3ArgC2ERKS4_
FNDA:78,_ZN5Catch5Clara11CommandLineINS_10ConfigDataEE3ArgD2Ev
FNDA:24,_ZN5Catch5Clara11CommandLineINS_10ConfigDataEE3ArgC2Ev
FNDA:0,_ZNK5Catch5Clara11CommandLineINS_10ConfigDataEE3Arg8commandsEv
FNDA:41,_ZN5Catch5Clara10addOptNameERNS0_11CommandLineINS_10ConfigDataEE3ArgERKSs
FNDA:24,_ZN5Catch5Clara11CommandLineINS_10ConfigDataEE10ArgBuilderC2EPNS3_3ArgE
FNDA:2,_ZN5Catch5Clara11CommandLineINS_10ConfigDataEE10ArgBuilder4bindIS2_SsEEvMT_T0_RKSs
FNDA:10,_ZN5Catch5Clara11CommandLineINS_10ConfigDataEE10ArgBuilder4bindIS2_EEvMT_b
FNDA:2,_ZN5Catch5Clara11CommandLineINS_10ConfigDataEE10ArgBuilder4bindIS2_EEvPFvRT_E
FNDA:1,_ZN5Catch5Clara11CommandLineINS_10ConfigDataEE10ArgBuilder4bindIS2_bEEvPFvRT_T0_ERKSs
FNDA:1,_ZN5Catch5Clara11CommandLineINS_10ConfigDataEE10ArgBuilder4bindIS2_iEEvPFvRT_T0_ERKSs
FNDA:8,_ZN5Catch5Clara11CommandLineINS_10ConfigDataEE10ArgBuilder4bindIS2_RKSsEEvPFvRT_T0_ES7_
FNDA:24,_ZN5Catch5Clara11CommandLineINS_10ConfigDataEE10ArgBuilder8describeERKSs
FNDA:23,_ZN5Catch5Clara11CommandLineINS_10ConfigDataEE10OptBuilderC2EPNS3_3ArgE
FNDA:18,_ZN5Catch5Clara11CommandLineINS_10ConfigDataEE10OptBuilderixERKSs
FNDA:1,_ZN5Catch5Clara11CommandLineINS_10ConfigDataEEC2Ev
FNDA:1,_ZN5Catch5Clara11CommandLineINS_10ConfigDataEE28setThrowOnUnrecognisedTokensEb
FNDA:23,_ZN5Catch5Clara11CommandLineINS_10ConfigDataEEixERKSs
FNDA:1,_ZN5Catch5Clara11CommandLineINS_10ConfigDataEEixENS0_15UnpositionalTagE
FNDA:1,_ZN5Catch5Clara11CommandLineINS_10ConfigDataEE15bindProcessNameIS2_SsEEvMT_T0_
FNDA:0,_ZNK5Catch5Clara11CommandLineINS_10ConfigDataEE8optUsageERSojj
FNDA:0,_ZNK5Catch5Clara11CommandLineINS_10ConfigDataEE11argSynopsisERSo
FNDA:0,_ZNK5Catch5Clara11CommandLineINS_10ConfigDataEE5usageERSoRKSs
FNDA:1,_ZNK5Catch5Clara11CommandLineINS_10ConfigDataEE9parseIntoERKSt6vectorISsSaISsEERS2_
FNDA:1,_ZNK5Catch5Clara11CommandLineINS_10ConfigDataEE8populateERKSt6vectorINS0_6Parser5TokenESaIS6_EERS2_
FNDA:1,_ZNK5Catch5Clara11CommandLineINS_10ConfigDataEE15populateOptionsERKSt6vectorINS0_6Parser5TokenESaIS6_EERS2_
FNDA:1,_ZNK5Catch5Clara11CommandLineINS_10ConfigDataEE17populateFixedArgsERKSt6vectorINS0_6Parser5TokenESaIS6_EERS2_
FNDA:1,_ZNK5Catch5Clara11CommandLineINS_10ConfigDataEE20populateFloatingArgsERKSt6vectorINS0_6Parser5TokenESaIS6_EERS2_
FNDA:1,_ZNK5Catch5Clara11CommandLineINS_10ConfigDataEE8validateEv
FNDA:0,_ZN5Catch15abortAfterFirstERNS_10ConfigDataE
FNDA:0,_ZN5Catch11abortAfterXERNS_10ConfigDataEi
FNDA:0,_ZN5Catch13addTestOrTagsERNS_10ConfigDataERKSs
FNDA:0,_ZN5Catch15addSectionToRunERNS_10ConfigDataERKSs
FNDA:1,_ZN5Catch15addReporterNameERNS_10ConfigDataERKSs
FNDA:0,_ZN5Catch10addWarningERNS_10ConfigDataERKSs
FNDA:0,_ZN5Catch8setOrderERNS_10ConfigDataERKSs
FNDA:0,_ZN5Catch10setRngSeedERNS_10ConfigDataERKSs
FNDA:0,_ZN5Catch16setShowDurationsERNS_10ConfigDataEb
FNDA:0,_ZN5Catch12setUseColourERNS_10ConfigDataERKSs
FNDA:0,_ZN5Catch11forceColourERNS_10ConfigDataE
FNDA:0,_ZN5Catch21loadTestNamesFromFileERNS_10ConfigDataERKSs
FNDA:1,_ZN5Catch21makeCommandLineParserEv
FNDA:0,_ZN5Catch3Tbc14TextAttributesC2Ev
FNDA:0,_ZN5Catch3Tbc14TextAttributes16setInitialIndentEj
FNDA:0,_ZN5Catch3Tbc14TextAttributes9setIndentEj
FNDA:0,_ZN5Catch3Tbc14TextAttributes8setWidthEj
FNDA:0,_ZN5Catch3Tbc4TextD2Ev
FNDA:0,_ZN5Catch3Tbc4TextC2ERKSsRKNS0_14TextAttributesE
FNDA:0,_ZNK5Catch3Tbc4Text5beginEv
FNDA:0,_ZNK5Catch3Tbc4Text3endEv
FNDA:0,_ZN5Catch3TbclsERSoRKNS0_4TextE
FNDA:0,_ZN5CatchlsERSoRKNS_6ColourE
FNDA:1,_ZN5Catch14ReporterConfigD2Ev
FNDA:1,_ZN5Catch14ReporterConfigC2ERKNS_3PtrIKNS_7IConfigEEE
FNDA:2,_ZNK5Catch14ReporterConfig6streamEv
FNDA:1,_ZNK5Catch14ReporterConfig10fullConfigEv
FNDA:1,_ZN5Catch19ReporterPreferencesC2Ev
FNDA:0,_ZN5Catch8LazyStatINS_12TestCaseInfoEED2Ev
FNDA:0,_ZN5Catch8LazyStatINS_9GroupInfoEED2Ev
FNDA:0,_ZN5Catch8LazyStatINS_11TestRunInfoEED2Ev
FNDA:0,_ZN5Catch8LazyStatINS_12TestCaseInfoEEC2Ev
FNDA:0,_ZN5Catch8LazyStatINS_9GroupInfoEEC2Ev
FNDA:0,_ZN5Catch8LazyStatINS_11TestRunInfoEEC2Ev
FNDA:0,_ZN5Catch8LazyStatINS_12TestCaseInfoEEaSERKS1_
FNDA:0,_ZN5Catch8LazyStatINS_9GroupInfoEEaSERKS1_
FNDA:0,_ZN5Catch8LazyStatINS_11TestRunInfoEEaSERKS1_
FNDA:0,_ZN5Catch8LazyStatINS_11TestRunInfoEE5resetEv
FNDA:0,_ZN5Catch8LazyStatINS_9GroupInfoEE5resetEv
FNDA:0,_ZN5Catch8LazyStatINS_12TestCaseInfoEE5resetEv
FNDA:3,_ZN5Catch11TestRunInfoD2Ev
FNDA:2,_ZN5Catch11TestRunInfoC2ERKS0_
FNDA:1,_ZN5Catch11TestRunInfoC2ERKSs
FNDA:4,_ZN5Catch9GroupInfoD2Ev
FNDA:2,_ZN5Catch9GroupInfoC2ERKS0_
FNDA:2,_ZN5Catch9GroupInfoC2ERKSsjj
FNDA:4,_ZN5Catch14AssertionStatsC2ERKNS_15AssertionResultERKSt6vectorINS_11MessageInfoESaIS5_EERKNS_6TotalsE
FNDA:4,_ZN5Catch14AssertionStatsC2ERKS0_
FNDA:2,_ZN5Catch14AssertionStatsC2EOS0_
FNDA:2,_ZN5Catch12SectionStatsaSERKS0_
FNDA:4,_ZN5Catch12SectionStatsC2ERKNS_11SectionInfoERKNS_6CountsEdb
FNDA:2,_ZN5Catch12SectionStatsC2ERKS0_
FNDA:2,_ZN5Catch13TestCaseStatsC2ERKNS_12TestCaseInfoERKNS_6TotalsERKSsS8_b
FNDA:2,_ZN5Catch13TestCaseStatsC2ERKS0_
FNDA:1,_ZN5Catch14TestGroupStatsC2ERKNS_9GroupInfoERKNS_6TotalsEb
FNDA:1,_ZN5Catch14TestGroupStatsC2ERKS0_
FNDA:1,_ZN5Catch12TestRunStatsC2ERKNS_11TestRunInfoERKNS_6TotalsEb
FNDA:1,_ZN5Catch12TestRunStatsC2ERKS0_
FNDA:1,_ZN5Catch18IStreamingReporterC2Ev
FNDA:0,_ZN5Catch18IStreamingReporter10tryAsMultiEv
FNDA:4,_ZN5Catch16IReporterFactoryC2Ev
FNDA:1,_ZN5Catch17IReporterRegistryC2Ev
FNDA:0,_ZN5Catch9listTestsERKNS_6ConfigE
FNDA:0,_ZN5Catch18listTestsNamesOnlyERKNS_6ConfigE
FNDA:0,_ZN5Catch7TagInfoC2EOS0_
FNDA:0,_ZN5Catch7TagInfoD2Ev
FNDA:0,_ZN5Catch7TagInfoC2Ev
FNDA:0,_ZN5Catch7TagInfo3addERKSs
FNDA:0,_ZNK5Catch7TagInfo3allEv
FNDA:0,_ZN5Catch8listTagsERKNS_6ConfigE
FNDA:0,_ZN5Catch13listReportersERKNS_6ConfigE
FNDA:1,_ZN5Catch4listERKNS_6ConfigE
FNDA:12,_ZN5Catch16TestCaseTracking15NameAndLocationD2Ev
FNDA:8,_ZN5Catch16TestCaseTracking15NameAndLocationC2ERKS1_
FNDA:4,_ZN5Catch16TestCaseTracking15NameAndLocationC2ERKSsRKNS_14SourceLineInfoE
FNDA:4,_ZN5Catch16TestCaseTracking8ITrackerC2Ev
FNDA:1,_ZN5Catch16TestCaseTracking14TrackerContextD2Ev
FNDA:1,_ZN5Catch16TestCaseTracking14TrackerContextC2Ev
FNDA:2,_ZN5Catch16TestCaseTracking14TrackerContext10startCycleEv
FNDA:2,_ZN5Catch16TestCaseTracking14TrackerContext13completeCycleEv
FNDA:2,_ZNK5Catch16TestCaseTracking14TrackerContext14completedCycleEv
FNDA:4,_ZN5Catch16TestCaseTracking14TrackerContext14currentTrackerEv
FNDA:4,_ZN5Catch16TestCaseTracking14TrackerContext17setCurrentTrackerEPNS0_8ITrackerE
FNDA:2,_ZN5Catch16TestCaseTracking11TrackerBase14TrackerHasNameC2ERKS2_
FNDA:4,_ZN5Catch16TestCaseTracking11TrackerBase14TrackerHasNameD2Ev
FNDA:2,_ZN5Catch16TestCaseTracking11TrackerBase14TrackerHasNameC2ERKNS0_15NameAndLocationE
FNDA:0,_ZN5Catch16TestCaseTracking11TrackerBase14TrackerHasNameclERKNS_3PtrINS0_8ITrackerEEE
FNDA:4,_ZN5Catch16TestCaseTracking11TrackerBaseC2ERKNS0_15NameAndLocationERNS0_14TrackerContextEPNS0_8ITrackerE
FNDA:0,_ZNK5Catch16TestCaseTracking11TrackerBase15nameAndLocationEv
FNDA:2,_ZNK5Catch16TestCaseTracking11TrackerBase10isCompleteEv
FNDA:2,_ZNK5Catch16TestCaseTracking11TrackerBase23isSuccessfullyCompletedEv
FNDA:0,_ZNK5Catch16TestCaseTracking11TrackerBase6isOpenEv
FNDA:0,_ZNK5Catch16TestCaseTracking11TrackerBase11hasChildrenEv
FNDA:2,_ZN5Catch16TestCaseTracking11TrackerBase8addChildERKNS_3PtrINS0_8ITrackerEEE
FNDA:2,_ZN5Catch16TestCaseTracking11TrackerBase9findChildERKNS0_15NameAndLocationE
FNDA:0,_ZN5Catch16TestCaseTracking11TrackerBase6parentEv
FNDA:2,_ZN5Catch16TestCaseTracking11TrackerBase9openChildEv
FNDA:0,_ZNK5Catch16TestCaseTracking11TrackerBase16isSectionTrackerEv
FNDA:0,_ZNK5Catch16TestCaseTracking11TrackerBase14isIndexTrackerEv
FNDA:2,_ZN5Catch16TestCaseTracking11TrackerBase4openEv
FNDA:2,_ZN5Catch16TestCaseTracking11TrackerBase5closeEv
FNDA:0,_ZN5Catch16TestCaseTracking11TrackerBase4failEv
FNDA:0,_ZN5Catch16TestCaseTracking11TrackerBase23markAsNeedingAnotherRunEv
FNDA:2,_ZN5Catch16TestCaseTracking11TrackerBase12moveToParentEv
FNDA:2,_ZN5Catch16TestCaseTracking11TrackerBase10moveToThisEv
FNDA:4,_ZN5Catch16TestCaseTracking14SectionTrackerC2ERKNS0_15NameAndLocationERNS0_14TrackerContextEPNS0_8ITrackerE
FNDA:4,_ZNK5Catch16TestCaseTracking14SectionTracker16isSectionTrackerEv
FNDA:2,_ZN5Catch16TestCaseTracking14SectionTracker7acquireERNS0_14TrackerContextERKNS0_15NameAndLocationE
FNDA:2,_ZN5Catch16TestCaseTracking14SectionTracker7tryOpenEv
FNDA:2,_ZN5Catch16TestCaseTracking14SectionTracker17addInitialFiltersERKSt6vectorISsSaISsEE
FNDA:2,_ZN5Catch16TestCaseTracking14SectionTracker14addNextFiltersERKSt6vectorISsSaISsEE
FNDA:0,_ZNK5Catch16TestCaseTracking12IndexTracker14isIndexTrackerEv
FNDA:0,_ZN5Catch16TestCaseTracking12IndexTracker5closeEv
FNDA:2,_ZN5Catch16TestCaseTracking14TrackerContext8startRunEv
FNDA:0,_ZN5Catch11reportFatalERKSs
FNDA:0,_ZN5Catch21FatalConditionHandler12handleSignalEi
FNDA:2,_ZN5Catch21FatalConditionHandlerC2Ev
FNDA:2,_ZN5Catch21FatalConditionHandlerD2Ev
FNDA:4,_ZN5Catch21FatalConditionHandler5resetEv
FNDA:4,_ZN5Catch14StreamRedirectC2ERSoRSs
FNDA:4,_ZN5Catch14StreamRedirectD2Ev
FNDA:1,_ZN5Catch10RunContextC2ERKNS_3PtrIKNS_7IConfigEEERKNS1_INS_18IStreamingReporterEEE
FNDA:0,_ZN5Catch10RunContextD0Ev
FNDA:1,_ZN5Catch10RunContextD2Ev
FNDA:1,_ZN5Catch10RunContext17testGroupStartingERKSsjj
FNDA:1,_ZN5Catch10RunContext14testGroupEndedERKSsRKNS_6TotalsEjj
FNDA:2,_ZN5Catch10RunContext7runTestERKNS_8TestCaseE
FNDA:4,_ZN5Catch10RunContext14assertionEndedERKNS_15AssertionResultE
FNDA:0,_ZN5Catch10RunContext14sectionStartedERKNS_11SectionInfoERNS_6CountsE
FNDA:2,_ZN5Catch10RunContext24testForMissingAssertionsERNS_6CountsE
FNDA:0,_ZN5Catch10RunContext12sectionEndedERKNS_14SectionEndInfoE
FNDA:0,_ZN5Catch10RunContext17sectionEndedEarlyERKNS_14SectionEndInfoE
FNDA:0,_ZN5Catch10RunContext17pushScopedMessageERKNS_11MessageInfoE
FNDA:0,_ZN5Catch10RunContext16popScopedMessageERKNS_11MessageInfoE
FNDA:2,_ZNK5Catch10RunContext18getCurrentTestNameEv
FNDA:0,_ZNK5Catch10RunContext13getLastResultEv
FNDA:0,_ZN5Catch10RunContext25handleFatalErrorConditionERKSs
FNDA:6,_ZNK5Catch10RunContext8abortingEv
FNDA:2,_ZN5Catch10RunContext14runCurrentTestERSsS1_
FNDA:2,_ZN5Catch10RunContext20invokeActiveTestCaseEv
FNDA:0,_ZNK5Catch10RunContext27makeUnexpectedResultBuilderEv
FNDA:2,_ZN5Catch10RunContext24handleUnfinishedSectionsEv
FNDA:4,_ZN5Catch16getResultCaptureEv
FNDA:0,_ZN5Catch7VersionD2Ev
FNDA:1,_ZN5Catch14createReporterERKSsRKNS_3PtrINS_6ConfigEEE
FNDA:1,_ZN5Catch12makeReporterERKNS_3PtrINS_6ConfigEEE
FNDA:1,_ZN5Catch12addListenersERKNS_3PtrIKNS_7IConfigEEENS0_INS_18IStreamingReporterEEE
FNDA:1,_ZN5Catch8runTestsERKNS_3PtrINS_6ConfigEEE
FNDA:0,_ZN5Catch20applyFilenamesAsTagsERKNS_7IConfigE
FNDA:1,_ZN5Catch7SessionC2Ev
FNDA:0,_ZN5Catch7SessionD0Ev
FNDA:1,_ZN5Catch7SessionD2Ev
FNDA:0,_ZN5Catch7Session8showHelpERKSs
FNDA:1,_ZN5Catch7Session16applyCommandLineEiPKPKcNS0_15OnUnusedOptions6DoWhatE
FNDA:1,_ZN5Catch7Session3runEiPKPKc
FNDA:1,_ZN5Catch7Session3runEv
FNDA:2,_ZN5Catch7Session6configEv
FNDA:0,_ZN5Catch21RandomNumberGenerator3maxEv
FNDA:0,_ZNK5Catch21RandomNumberGeneratorclEv
FNDA:0,_ZN5Catch21RandomNumberGenerator7shuffleISt6vectorINS_8TestCaseESaIS3_EEEEvRT_
FNDA:1,_ZN5Catch9sortTestsERKNS_7IConfigERKSt6vectorINS_8TestCaseESaIS4_EE
FNDA:2,_ZN5Catch9matchTestERKNS_8TestCaseERKNS_8TestSpecERKNS_7IConfigE
FNDA:1,_ZN5Catch27enforceNoDuplicateTestCasesERKSt6vectorINS_8TestCaseESaIS1_EE
FNDA:0,_ZN5Catch11filterTestsERKSt6vectorINS_8TestCaseESaIS1_EERKNS_8TestSpecERKNS_7IConfigE
FNDA:1,_ZN5Catch21getAllTestCasesSortedERKNS_7IConfigE
FNDA:1,_ZN5Catch12TestRegistryC2Ev
FNDA:2,_ZN5Catch12TestRegistry12registerTestERKNS_8TestCaseE
FNDA:0,_ZNK5Catch12TestRegistry11getAllTestsEv
FNDA:1,_ZNK5Catch12TestRegistry17getAllTestsSortedERKNS_7IConfigE
FNDA:2,_ZN5Catch20FreeFunctionTestCaseC2EPFvvE
FNDA:2,_ZNK5Catch20FreeFunctionTestCase6invokeEv
FNDA:2,_ZN5Catch16extractClassNameERKSs
FNDA:2,_ZN5Catch16registerTestCaseEPNS_9ITestCaseEPKcRKNS_11NameAndDescERKNS_14SourceLineInfoE
FNDA:2,_ZN5Catch24registerTestCaseFunctionEPFvvERKNS_14SourceLineInfoERKNS_11NameAndDescE
FNDA:2,_ZN5Catch7AutoRegC2EPFvvERKNS_14SourceLineInfoERKNS_11NameAndDescE
FNDA:0,_ZN5Catch7AutoRegD2Ev
FNDA:1,_ZN5Catch16ReporterRegistryC2Ev
FNDA:0,_ZN5Catch16ReporterRegistryD0Ev
FNDA:1,_ZN5Catch16ReporterRegistryD2Ev
FNDA:1,_ZNK5Catch16ReporterRegistry6createERKSsRKNS_3PtrIKNS_7IConfigEEE
FNDA:4,_ZN5Catch16ReporterRegistry16registerReporterERKSsRKNS_3PtrINS_16IReporterFactoryEEE
FNDA:0,_ZN5Catch16ReporterRegistry16registerListenerERKNS_3PtrINS_16IReporterFactoryEEE
FNDA:0,_ZNK5Catch16ReporterRegistry12getFactoriesEv
FNDA:1,_ZNK5Catch16ReporterRegistry12getListenersEv
FNDA:1,_ZN5Catch27ExceptionTranslatorRegistryC2Ev
FNDA:0,_ZN5Catch27ExceptionTranslatorRegistryD0Ev
FNDA:1,_ZN5Catch27ExceptionTranslatorRegistryD2Ev
FNDA:0,_ZN5Catch27ExceptionTranslatorRegistry18registerTranslatorEPKNS_20IExceptionTranslatorE
FNDA:0,_ZNK5Catch27ExceptionTranslatorRegistry24translateActiveExceptionEv
FNDA:0,_ZNK5Catch27ExceptionTranslatorRegistry14tryTranslatorsEv
FNDA:1,_ZN5Catch12_GLOBAL__N_111RegistryHubD0Ev
FNDA:1,_ZN5Catch12_GLOBAL__N_111RegistryHubD2Ev
FNDA:1,_ZN5Catch12_GLOBAL__N_111RegistryHubC2Ev
FNDA:2,_ZNK5Catch12_GLOBAL__N_111RegistryHub19getReporterRegistryEv
FNDA:1,_ZNK5Catch12_GLOBAL__N_111RegistryHub19getTestCaseRegistryEv
FNDA:0,_ZN5Catch12_GLOBAL__N_111RegistryHub30getExceptionTranslatorRegistryEv
FNDA:4,_ZN5Catch12_GLOBAL__N_111RegistryHub16registerReporterERKSsRKNS_3PtrINS_16IReporterFactoryEEE
FNDA:0,_ZN5Catch12_GLOBAL__N_111RegistryHub16registerListenerERKNS_3PtrINS_16IReporterFactoryEEE
FNDA:2,_ZN5Catch12_GLOBAL__N_111RegistryHub12registerTestERKNS_8TestCaseE
FNDA:0,_ZN5Catch12_GLOBAL__N_111RegistryHub18registerTranslatorEPKNS_20IExceptionTranslatorE
FNDA:11,_ZN5Catch12_GLOBAL__N_117getTheRegistryHubEv
FNDA:3,_ZN5Catch14getRegistryHubEv
FNDA:6,_ZN5Catch21getMutableRegistryHubEv
FNDA:1,_ZN5Catch7cleanUpEv
FNDA:0,_ZN5Catch24translateActiveExceptionEv
FNDA:0,_ZN5Catch23NotImplementedExceptionC2ERKNS_14SourceLineInfoE
FNDA:0,_ZNK5Catch23NotImplementedException4whatEv
FNDA:0,_ZN5Catch13StreamBufImplINS_17OutputDebugWriterELj256EEC2Ev
FNDA:0,_ZN5Catch13StreamBufImplINS_17OutputDebugWriterELj256EED0Ev
FNDA:0,_ZN5Catch13StreamBufImplINS_17OutputDebugWriterELj256EED2Ev
FNDA:0,_ZN5Catch13StreamBufImplINS_17OutputDebugWriterELj256EE8overflowEi
FNDA:0,_ZN5Catch13StreamBufImplINS_17OutputDebugWriterELj256EE4syncEv
FNDA:0,_ZN5Catch10FileStreamC2ERKSs
FNDA:0,_ZNK5Catch10FileStream6streamEv
FNDA:0,_ZN5Catch17OutputDebugWriterclERKSs
FNDA:0,_ZN5Catch14DebugOutStreamC2Ev
FNDA:0,_ZNK5Catch14DebugOutStream6streamEv
FNDA:1,_ZN5Catch10CoutStreamC2Ev
FNDA:1,_ZNK5Catch10CoutStream6streamEv
FNDA:3,_ZN5Catch4coutEv
FNDA:2,_ZN5Catch4cerrEv
FNDA:1,_ZN5Catch7ContextC2Ev
FNDA:1,_ZN5Catch7ContextD0Ev
FNDA:1,_ZN5Catch7ContextD2Ev
FNDA:6,_ZN5Catch7Context16getResultCaptureEv
FNDA:0,_ZN5Catch7Context9getRunnerEv
FNDA:0,_ZN5Catch7Context17getGeneratorIndexERKSsj
FNDA:2,_ZN5Catch7Context31advanceGeneratorsForCurrentTestEv
FNDA:0,_ZNK5Catch7Context9getConfigEv
FNDA:1,_ZN5Catch7Context16setResultCaptureEPNS_14IResultCaptureE
FNDA:1,_ZN5Catch7Context9setRunnerEPNS_7IRunnerE
FNDA:1,_ZN5Catch7Context9setConfigERKNS_3PtrIKNS_7IConfigEEE
FNDA:2,_ZN5Catch7Context28findGeneratorsForCurrentTestEv
FNDA:0,_ZN5Catch7Context27getGeneratorsForCurrentTestEv
FNDA:7,_ZN5Catch24getCurrentMutableContextEv
FNDA:6,_ZN5Catch17getCurrentContextEv
FNDA:1,_ZN5Catch14cleanUpContextEv
FNDA:0,_ZN5Catch12_GLOBAL__N_111IColourImplD0Ev
FNDA:0,_ZN5Catch12_GLOBAL__N_111IColourImplD2Ev
FNDA:0,_ZN5Catch12_GLOBAL__N_112NoColourImplD0Ev
FNDA:0,_ZN5Catch12_GLOBAL__N_112NoColourImplD2Ev
FNDA:0,_ZN5Catch12_GLOBAL__N_112NoColourImpl3useENS_6Colour4CodeE
FNDA:0,_ZN5Catch12_GLOBAL__N_112NoColourImpl8instanceEv
FNDA:0,__tcf_1
FNDA:0,_ZN5Catch12_GLOBAL__N_115PosixColourImplD0Ev
FNDA:0,_ZN5Catch12_GLOBAL__N_115PosixColourImplD2Ev
FNDA:0,_ZN5Catch12_GLOBAL__N_115PosixColourImpl3useENS_6Colour4CodeE
FNDA:0,_ZN5Catch12_GLOBAL__N_115PosixColourImpl8instanceEv
FNDA:0,__tcf_2
FNDA:0,_ZN5Catch12_GLOBAL__N_115PosixColourImpl9setColourEPKc
FNDA:0,_ZN5Catch12_GLOBAL__N_122platformColourInstanceEv
FNDA:0,_ZN5Catch6ColourC2ENS0_4CodeE
FNDA:0,_ZN5Catch6ColourC2ERKS0_
FNDA:0,_ZN5Catch6ColourD2Ev
FNDA:0,_ZN5Catch6Colour3useENS0_4CodeE
FNDA:0,_ZN5Catch13GeneratorInfoD0Ev
FNDA:0,_ZN5Catch13GeneratorInfoD2Ev
FNDA:0,_ZN5Catch13GeneratorInfoC2Ej
FNDA:0,_ZN5Catch13GeneratorInfo8moveNextEv
FNDA:0,_ZNK5Catch13GeneratorInfo15getCurrentIndexEv
FNDA:0,_ZN5Catch17GeneratorsForTestC2Ev
FNDA:0,_ZN5Catch17GeneratorsForTestD0Ev
FNDA:0,_ZN5Catch17GeneratorsForTestD2Ev
FNDA:0,_ZN5Catch17GeneratorsForTest16getGeneratorInfoERKSsj
FNDA:0,_ZN5Catch17GeneratorsForTest8moveNextEv
FNDA:0,_ZN5Catch23createGeneratorsForTestEv
FNDA:10,_ZN5Catch13AssertionInfoC2ERKSsRKNS_14SourceLineInfoES2_NS_17ResultDisposition5FlagsE
FNDA:1,_ZN5Catch15AssertionResultC2Ev
FNDA:4,_ZN5Catch15AssertionResultC2ERKNS_13AssertionInfoERKNS_19AssertionResultDataE
FNDA:15,_ZN5Catch15AssertionResultD2Ev
FNDA:0,_ZNK5Catch15AssertionResult9succeededEv
FNDA:12,_ZNK5Catch15AssertionResult4isOkEv
FNDA:8,_ZNK5Catch15AssertionResult13getResultTypeEv
FNDA:0,_ZNK5Catch15AssertionResult13hasExpressionEv
FNDA:4,_ZNK5Catch15AssertionResult10hasMessageEv
FNDA:0,_ZNK5Catch15AssertionResult13getExpressionEv
FNDA:0,_ZNK5Catch15AssertionResult20getExpressionInMacroEv
FNDA:0,_ZNK5Catch15AssertionResult21hasExpandedExpressionEv
FNDA:0,_ZNK5Catch15AssertionResult21getExpandedExpressionEv
FNDA:0,_ZNK5Catch15AssertionResult10getMessageEv
FNDA:0,_ZNK5Catch15AssertionResult13getSourceInfoEv
FNDA:0,_ZNK5Catch15AssertionResult16getTestMacroNameEv
FNDA:4,_ZNK5Catch15AssertionResult27discardDecomposedExpressionEv
FNDA:0,_ZNK5Catch15AssertionResult26expandDecomposedExpressionEv
FNDA:6,_ZN5Catch15parseSpecialTagERKSs
FNDA:2,_ZN5Catch13isReservedTagERKSs
FNDA:2,_ZN5Catch21enforceNotReservedTagERKSsRKNS_14SourceLineInfoE
FNDA:2,_ZN5Catch12makeTestCaseEPNS_9ITestCaseERKSsS3_S3_RKNS_14SourceLineInfoE
FNDA:2,_ZN5Catch7setTagsERNS_12TestCaseInfoERKSt3setISsSt4lessISsESaISsEE
FNDA:2,_ZN5Catch12TestCaseInfoC2ERKSsS2_S2_RKSt3setISsSt4lessISsESaISsEERKNS_14SourceLineInfoE
FNDA:15,_ZN5Catch12TestCaseInfoC2ERKS0_
FNDA:0,_ZNK5Catch12TestCaseInfo8isHiddenEv
FNDA:0,_ZNK5Catch12TestCaseInfo6throwsEv
FNDA:2,_ZNK5Catch12TestCaseInfo8okToFailEv
FNDA:2,_ZNK5Catch12TestCaseInfo14expectedToFailEv
FNDA:2,_ZN5Catch8TestCaseC2EPNS_9ITestCaseERKNS_12TestCaseInfoE
FNDA:7,_ZN5Catch8TestCaseC2ERKS0_
FNDA:0,_ZNK5Catch8TestCase8withNameERKSs
FNDA:0,_ZN5Catch8TestCase4swapERS0_
FNDA:2,_ZNK5Catch8TestCase6invokeEv
FNDA:0,_ZNK5Catch8TestCaseeqERKS0_
FNDA:3,_ZNK5Catch8TestCaseltERKS0_
FNDA:0,_ZN5Catch8TestCaseaSERKS0_
FNDA:8,_ZNK5Catch8TestCase15getTestCaseInfoEv
FNDA:1,_ZN5Catch7VersionC2EjjjRKSsj
FNDA:0,_ZN5CatchlsERSoRKNS_7VersionE
FNDA:0,_ZN5Catch11MessageInfoC2ERKSsRKNS_14SourceLineInfoENS_9ResultWas6OfTypeE
FNDA:0,_ZN5Catch13ScopedMessageC2ERKNS_14MessageBuilderE
FNDA:0,_ZN5Catch13ScopedMessageC2ERKS0_
FNDA:0,_ZN5Catch13ScopedMessageD2Ev
FNDA:0,_ZN5Catch21LegacyReporterAdapterC2ERKNS_3PtrINS_9IReporterEEE
FNDA:0,_ZN5Catch21LegacyReporterAdapterD0Ev
FNDA:0,_ZN5Catch21LegacyReporterAdapterD2Ev
FNDA:0,_ZNK5Catch21LegacyReporterAdapter14getPreferencesEv
FNDA:0,_ZN5Catch21LegacyReporterAdapter19noMatchingTestCasesERKSs
FNDA:0,_ZN5Catch21LegacyReporterAdapter15testRunStartingERKNS_11TestRunInfoE
FNDA:0,_ZN5Catch21LegacyReporterAdapter17testGroupStartingERKNS_9GroupInfoE
FNDA:0,_ZN5Catch21LegacyReporterAdapter16testCaseStartingERKNS_12TestCaseInfoE
FNDA:0,_ZN5Catch21LegacyReporterAdapter15sectionStartingERKNS_11SectionInfoE
FNDA:0,_ZN5Catch21LegacyReporterAdapter17assertionStartingERKNS_13AssertionInfoE
FNDA:0,_ZN5Catch21LegacyReporterAdapter14assertionEndedERKNS_14AssertionStatsE
FNDA:0,_ZN5Catch21LegacyReporterAdapter12sectionEndedERKNS_12SectionStatsE
FNDA:0,_ZN5Catch21LegacyReporterAdapter13testCaseEndedERKNS_13TestCaseStatsE
FNDA:0,_ZN5Catch21LegacyReporterAdapter14testGroupEndedERKNS_14TestGroupStatsE
FNDA:0,_ZN5Catch21LegacyReporterAdapter12testRunEndedERKNS_12TestRunStatsE
FNDA:0,_ZN5Catch21LegacyReporterAdapter8skipTestERKNS_12TestCaseInfoE
FNDA:6,_ZN5Catch12_GLOBAL__N_115getCurrentTicksEv
FNDA:3,_ZN5Catch5Timer5startEv
FNDA:3,_ZNK5Catch5Timer22getElapsedMicrosecondsEv
FNDA:0,_ZNK5Catch5Timer22getElapsedMillisecondsEv
FNDA:3,_ZNK5Catch5Timer17getElapsedSecondsEv
FNDA:3,_ZN5Catch10startsWithERKSsS1_
FNDA:8,_ZN5Catch10startsWithERKSsc
FNDA:0,_ZN5Catch8endsWithERKSsS1_
FNDA:0,_ZN5Catch8endsWithERKSsc
FNDA:0,_ZN5Catch8containsERKSsS1_
FNDA:32,_ZN5Catch9toLowerChEc
FNDA:3,_ZN5Catch14toLowerInPlaceERSs
FNDA:3,_ZN5Catch7toLowerERKSs
FNDA:6,_ZN5Catch4trimERKSs
FNDA:0,_ZN5Catch14replaceInPlaceERSsRKSsS2_
FNDA:0,_ZN5Catch9pluraliseC2EjRKSs
FNDA:0,_ZN5CatchlsERSoRKNS_9pluraliseE
FNDA:2,_ZN5Catch14SourceLineInfoC2Ev
FNDA:8,_ZN5Catch14SourceLineInfoC2EPKcj
FNDA:0,_ZNK5Catch14SourceLineInfo5emptyEv
FNDA:0,_ZNK5Catch14SourceLineInfoeqERKS0_
FNDA:0,_ZNK5Catch14SourceLineInfoltERKS0_
FNDA:3,_ZN5Catch7seedRngERKNS_7IConfigE
FNDA:0,_ZN5Catch7rngSeedEv
FNDA:0,_ZN5CatchlsERSoRKNS_14SourceLineInfoE
FNDA:0,_ZN5Catch15throwLogicErrorERKSsRKNS_14SourceLineInfoE
FNDA:2,_ZN5Catch11SectionInfoC2ERKNS_14SourceLineInfoERKSsS5_
FNDA:0,_ZN5Catch7SectionC2ERKNS_11SectionInfoE
FNDA:0,_ZN5Catch7SectionD0Ev
FNDA:0,_ZN5Catch7SectionD2Ev
FNDA:0,_ZNK5Catch7SectioncvbEv
FNDA:0,_ZN5Catch16isDebuggerActiveEv
FNDA:0,_ZN5Catch19writeToDebugConsoleERKSs
FNDA:0,_ZN5Catch6Detail12_GLOBAL__N_110Endianness5whichEv
FNDA:0,_ZN5Catch6Detail17rawMemoryToStringEPKvj
FNDA:0,_ZN5Catch8toStringERKSs
FNDA:0,_ZN5Catch8toStringERKSbIwSt11char_traitsIwESaIwEE
FNDA:0,_ZN5Catch8toStringEPKc
FNDA:0,_ZN5Catch8toStringEPc
FNDA:0,_ZN5Catch8toStringEPKw
FNDA:0,_ZN5Catch8toStringEPw
FNDA:0,_ZN5Catch8toStringEi
FNDA:0,_ZN5Catch8toStringEm
FNDA:0,_ZN5Catch8toStringEj
FNDA:0,_ZN5Catch10fpToStringIfEESsT_i
FNDA:2,_ZN5Catch10fpToStringIdEESsT_i
FNDA:2,_ZN5Catch8toStringEd
FNDA:0,_ZN5Catch8toStringEf
FNDA:0,_ZN5Catch8toStringEb
FNDA:0,_ZN5Catch8toStringEc
FNDA:0,_ZN5Catch8toStringEa
FNDA:0,_ZN5Catch8toStringEh
FNDA:0,_ZN5Catch8toStringEx
FNDA:0,_ZN5Catch8toStringEy
FNDA:0,_ZN5Catch8toStringEDn
FNDA:4,_ZN5Catch36capturedExpressionWithSecondArgumentERKSsS1_
FNDA:4,_ZN5Catch13ResultBuilderC2EPKcRKNS_14SourceLineInfoES2_NS_17ResultDisposition5FlagsES2_
FNDA:0,_ZN5Catch13ResultBuilder13setResultTypeENS_9ResultWas6OfTypeE
FNDA:4,_ZN5Catch13ResultBuilder13setResultTypeEb
FNDA:4,_ZN5Catch13ResultBuilder13endExpressionERKNS_20DecomposedExpressionE
FNDA:0,_ZN5Catch13ResultBuilder18useActiveExceptionENS_17ResultDisposition5FlagsE
FNDA:0,_ZN5Catch13ResultBuilder13captureResultENS_9ResultWas6OfTypeE
FNDA:0,_ZN5Catch13ResultBuilder24captureExpectedExceptionERKSs
FNDA:0,_ZN5Catch13ResultBuilder24captureExpectedExceptionERKNS_8Matchers4Impl11MatcherBaseISsSsEE
FNDA:0,_ZN5Catch13ResultBuilder17captureExpressionEv
FNDA:4,_ZN5Catch13ResultBuilder12handleResultERKNS_15AssertionResultE
FNDA:4,_ZN5Catch13ResultBuilder5reactEv
FNDA:4,_ZNK5Catch13ResultBuilder16shouldDebugBreakEv
FNDA:0,_ZNK5Catch13ResultBuilder11allowThrowsEv
FNDA:0,_ZNK5Catch13ResultBuilder5buildEv
FNDA:4,_ZNK5Catch13ResultBuilder5buildERKNS_20DecomposedExpressionE
FNDA:0,_ZNK5Catch13ResultBuilder21reconstructExpressionERSs
FNDA:1,_ZN5Catch16TagAliasRegistryC2Ev
FNDA:0,_ZN5Catch16TagAliasRegistryD0Ev
FNDA:1,_ZN5Catch16TagAliasRegistryD2Ev
FNDA:0,_ZNK5Catch16TagAliasRegistry4findERKSs
FNDA:1,_ZNK5Catch16TagAliasRegistry13expandAliasesERKSs
FNDA:0,_ZN5Catch16TagAliasRegistry3addEPKcS2_RKNS_14SourceLineInfoE
FNDA:1,_ZN5Catch16TagAliasRegistry3getEv
FNDA:1,__tcf_3
FNDA:0,_ZN5Catch17ITagAliasRegistryD0Ev
FNDA:1,_ZN5Catch17ITagAliasRegistryD2Ev
FNDA:1,_ZN5Catch17ITagAliasRegistry3getEv
FNDA:0,_ZN5Catch22RegistrarForTagAliasesC2EPKcS2_RKNS_14SourceLineInfoE
FNDA:0,_ZN5Catch8Matchers9StdString11CasedStringC2ERKSsNS_13CaseSensitive6ChoiceE
FNDA:0,_ZNK5Catch8Matchers9StdString11CasedString12adjustStringERKSs
FNDA:0,_ZNK5Catch8Matchers9StdString11CasedString21caseSensitivitySuffixEv
FNDA:0,_ZN5Catch8Matchers9StdString17StringMatcherBaseC2ESsRKNS1_11CasedStringE
FNDA:0,_ZNK5Catch8Matchers9StdString17StringMatcherBase8describeEv
FNDA:0,_ZN5Catch8Matchers9StdString13EqualsMatcherC2ERKNS1_11CasedStringE
FNDA:0,_ZNK5Catch8Matchers9StdString13EqualsMatcher5matchERKSs
FNDA:0,_ZN5Catch8Matchers9StdString15ContainsMatcherC2ERKNS1_11CasedStringE
FNDA:0,_ZNK5Catch8Matchers9StdString15ContainsMatcher5matchERKSs
FNDA:0,_ZN5Catch8Matchers9StdString17StartsWithMatcherC2ERKNS1_11CasedStringE
FNDA:0,_ZNK5Catch8Matchers9StdString17StartsWithMatcher5matchERKSs
FNDA:0,_ZN5Catch8Matchers9StdString15EndsWithMatcherC2ERKNS1_11CasedStringE
FNDA:0,_ZNK5Catch8Matchers9StdString15EndsWithMatcher5matchERKSs
FNDA:0,_ZN5Catch8Matchers6EqualsERKSsNS_13CaseSensitive6ChoiceE
FNDA:0,_ZN5Catch8Matchers8ContainsERKSsNS_13CaseSensitive6ChoiceE
FNDA:0,_ZN5Catch8Matchers8EndsWithERKSsNS_13CaseSensitive6ChoiceE
FNDA:0,_ZN5Catch8Matchers10StartsWithERKSsNS_13CaseSensitive6ChoiceE
FNDA:0,_ZN5Catch17MultipleReportersD0Ev
FNDA:0,_ZN5Catch17MultipleReportersD2Ev
FNDA:0,_ZN5Catch17MultipleReportersC2Ev
FNDA:0,_ZN5Catch17MultipleReporters3addERKNS_3PtrINS_18IStreamingReporterEEE
FNDA:0,_ZNK5Catch17MultipleReporters14getPreferencesEv
FNDA:0,_ZN5Catch17MultipleReporters19noMatchingTestCasesERKSs
FNDA:0,_ZN5Catch17MultipleReporters15testRunStartingERKNS_11TestRunInfoE
FNDA:0,_ZN5Catch17MultipleReporters17testGroupStartingERKNS_9GroupInfoE
FNDA:0,_ZN5Catch17MultipleReporters16testCaseStartingERKNS_12TestCaseInfoE
FNDA:0,_ZN5Catch17MultipleReporters15sectionStartingERKNS_11SectionInfoE
FNDA:0,_ZN5Catch17MultipleReporters17assertionStartingERKNS_13AssertionInfoE
FNDA:0,_ZN5Catch17MultipleReporters14assertionEndedERKNS_14AssertionStatsE
FNDA:0,_ZN5Catch17MultipleReporters12sectionEndedERKNS_12SectionStatsE
FNDA:0,_ZN5Catch17MultipleReporters13testCaseEndedERKNS_13TestCaseStatsE
FNDA:0,_ZN5Catch17MultipleReporters14testGroupEndedERKNS_14TestGroupStatsE
FNDA:0,_ZN5Catch17MultipleReporters12testRunEndedERKNS_12TestRunStatsE
FNDA:0,_ZN5Catch17MultipleReporters8skipTestERKNS_12TestCaseInfoE
FNDA:0,_ZN5Catch17MultipleReporters10tryAsMultiEv
FNDA:1,_ZN5Catch11addReporterERKNS_3PtrINS_18IStreamingReporterEEES4_
FNDA:0,_ZN5Catch21StreamingReporterBaseC2ERKNS_14ReporterConfigE
FNDA:0,_ZNK5Catch21StreamingReporterBase14getPreferencesEv
FNDA:0,_ZN5Catch21StreamingReporterBase19noMatchingTestCasesERKSs
FNDA:0,_ZN5Catch21StreamingReporterBase15testRunStartingERKNS_11TestRunInfoE
FNDA:0,_ZN5Catch21StreamingReporterBase17testGroupStartingERKNS_9GroupInfoE
FNDA:0,_ZN5Catch21StreamingReporterBase16testCaseStartingERKNS_12TestCaseInfoE
FNDA:0,_ZN5Catch21StreamingReporterBase15sectionStartingERKNS_11SectionInfoE
FNDA:0,_ZN5Catch21StreamingReporterBase12sectionEndedERKNS_12SectionStatsE
FNDA:0,_ZN5Catch21StreamingReporterBase13testCaseEndedERKNS_13TestCaseStatsE
FNDA:0,_ZN5Catch21StreamingReporterBase14testGroupEndedERKNS_14TestGroupStatsE
FNDA:0,_ZN5Catch21StreamingReporterBase12testRunEndedERKNS_12TestRunStatsE
FNDA:0,_ZN5Catch21StreamingReporterBase8skipTestERKNS_12TestCaseInfoE
FNDA:1,_ZN5Catch22CumulativeReporterBase4NodeINS_12TestRunStatsENS1_INS_14TestGroupStatsENS1_INS_13TestCaseStatsENS0_11SectionNodeEEEEEEC2ERKS2_
FNDA:1,_ZN5Catch22CumulativeReporterBase4NodeINS_14TestGroupStatsENS1_INS_13TestCaseStatsENS0_11SectionNodeEEEEC2ERKS2_
FNDA:2,_ZN5Catch22CumulativeReporterBase4NodeINS_13TestCaseStatsENS0_11SectionNodeEEC2ERKS2_
FNDA:2,_ZN5Catch22CumulativeReporterBase4NodeINS_13TestCaseStatsENS0_11SectionNodeEED0Ev
FNDA:2,_ZN5Catch22CumulativeReporterBase4NodeINS_13TestCaseStatsENS0_11SectionNodeEED2Ev
FNDA:1,_ZN5Catch22CumulativeReporterBase4NodeINS_14TestGroupStatsENS1_INS_13TestCaseStatsENS0_11SectionNodeEEEED0Ev
FNDA:1,_ZN5Catch22CumulativeReporterBase4NodeINS_14TestGroupStatsENS1_INS_13TestCaseStatsENS0_11SectionNodeEEEED2Ev
FNDA:1,_ZN5Catch22CumulativeReporterBase4NodeINS_12TestRunStatsENS1_INS_14TestGroupStatsENS1_INS_13TestCaseStatsENS0_11SectionNodeEEEEEED0Ev
FNDA:1,_ZN5Catch22CumulativeReporterBase4NodeINS_12TestRunStatsENS1_INS_14TestGroupStatsENS1_INS_13TestCaseStatsENS0_11SectionNodeEEEEEED2Ev
FNDA:2,_ZN5Catch22CumulativeReporterBase11SectionNodeC2ERKNS_12SectionStatsE
FNDA:0,_ZN5Catch22CumulativeReporterBase13BySectionInfoC2ERKNS_11SectionInfoE
FNDA:0,_ZN5Catch22CumulativeReporterBase13BySectionInfoC2ERKS1_
FNDA:0,_ZNK5Catch22CumulativeReporterBase13BySectionInfoclERKNS_3PtrINS0_11SectionNodeEEE
FNDA:1,_ZN5Catch22CumulativeReporterBaseC2ERKNS_14ReporterConfigE
FNDA:2,_ZNK5Catch22CumulativeReporterBase14getPreferencesEv
FNDA:1,_ZN5Catch22CumulativeReporterBase15testRunStartingERKNS_11TestRunInfoE
FNDA:1,_ZN5Catch22CumulativeReporterBase17testGroupStartingERKNS_9GroupInfoE
FNDA:2,_ZN5Catch22CumulativeReporterBase16testCaseStartingERKNS_12TestCaseInfoE
FNDA:2,_ZN5Catch22CumulativeReporterBase15sectionStartingERKNS_11SectionInfoE
FNDA:0,_ZN5Catch22CumulativeReporterBase17assertionStartingERKNS_13AssertionInfoE
FNDA:4,_ZN5Catch22CumulativeReporterBase14assertionEndedERKNS_14AssertionStatsE
FNDA:2,_ZN5Catch22CumulativeReporterBase12sectionEndedERKNS_12SectionStatsE
FNDA:2,_ZN5Catch22CumulativeReporterBase13testCaseEndedERKNS_13TestCaseStatsE
FNDA:1,_ZN5Catch22CumulativeReporterBase14testGroupEndedERKNS_14TestGroupStatsE
FNDA:1,_ZN5Catch22CumulativeReporterBase12testRunEndedERKNS_12TestRunStatsE
FNDA:0,_ZN5Catch22CumulativeReporterBase8skipTestERKNS_12TestCaseInfoE
FNDA:4,_ZNK5Catch22CumulativeReporterBase25prepareExpandedExpressionERNS_15AssertionResultE
FNDA:0,_ZN5Catch14getLineOfCharsILc46EEEPKcv
FNDA:0,_ZN5Catch14getLineOfCharsILc45EEEPKcv
FNDA:0,_ZN5Catch14getLineOfCharsILc126EEEPKcv
FNDA:1,_ZN5Catch17ReporterRegistrarINS_11XmlReporterEE15ReporterFactoryD0Ev
FNDA:1,_ZN5Catch17ReporterRegistrarINS_11XmlReporterEE15ReporterFactoryD2Ev
FNDA:1,_ZN5Catch17ReporterRegistrarINS_13JunitReporterEE15ReporterFactoryD0Ev
FNDA:1,_ZN5Catch17ReporterRegistrarINS_13JunitReporterEE15ReporterFactoryD2Ev
FNDA:1,_ZN5Catch17ReporterRegistrarINS_15ConsoleReporterEE15ReporterFactoryD0Ev
FNDA:1,_ZN5Catch17ReporterRegistrarINS_15ConsoleReporterEE15ReporterFactoryD2Ev
FNDA:1,_ZN5Catch17ReporterRegistrarINS_15CompactReporterEE15ReporterFactoryD0Ev
FNDA:1,_ZN5Catch17ReporterRegistrarINS_15CompactReporterEE15ReporterFactoryD2Ev
FNDA:1,_ZN5Catch17ReporterRegistrarINS_15CompactReporterEE15ReporterFactoryC2Ev
FNDA:1,_ZN5Catch17ReporterRegistrarINS_15ConsoleReporterEE15ReporterFactoryC2Ev
FNDA:1,_ZN5Catch17ReporterRegistrarINS_13JunitReporterEE15ReporterFactoryC2Ev
FNDA:1,_ZN5Catch17ReporterRegistrarINS_11XmlReporterEE15ReporterFactoryC2Ev
FNDA:0,_ZNK5Catch17ReporterRegistrarINS_11XmlReporterEE15ReporterFactory6createERKNS_14ReporterConfigE
FNDA:1,_ZNK5Catch17ReporterRegistrarINS_13JunitReporterEE15ReporterFactory6createERKNS_14ReporterConfigE
FNDA:0,_ZNK5Catch17ReporterRegistrarINS_15ConsoleReporterEE15ReporterFactory6createERKNS_14ReporterConfigE
FNDA:0,_ZNK5Catch17ReporterRegistrarINS_15CompactReporterEE15ReporterFactory6createERKNS_14ReporterConfigE
FNDA:0,_ZNK5Catch17ReporterRegistrarINS_11XmlReporterEE15ReporterFactory14getDescriptionEv
FNDA:0,_ZNK5Catch17ReporterRegistrarINS_13JunitReporterEE15ReporterFactory14getDescriptionEv
FNDA:0,_ZNK5Catch17ReporterRegistrarINS_15ConsoleReporterEE15ReporterFactory14getDescriptionEv
FNDA:0,_ZNK5Catch17ReporterRegistrarINS_15CompactReporterEE15ReporterFactory14getDescriptionEv
FNDA:1,_ZN5Catch17ReporterRegistrarINS_15CompactReporterEEC2ERKSs
FNDA:1,_ZN5Catch17ReporterRegistrarINS_15ConsoleReporterEEC2ERKSs
FNDA:1,_ZN5Catch17ReporterRegistrarINS_13JunitReporterEEC2ERKSs
FNDA:1,_ZN5Catch17ReporterRegistrarINS_11XmlReporterEEC2ERKSs
FNDA:16,_ZN5Catch9XmlEncodeD2Ev
FNDA:16,_ZN5Catch9XmlEncodeC2ERKSsNS0_7ForWhatE
FNDA:16,_ZNK5Catch9XmlEncode8encodeToERSo
FNDA:16,_ZN5CatchlsERSoRKNS_9XmlEncodeE
FNDA:7,_ZN5Catch9XmlWriter13ScopedElementC2EPS0_
FNDA:7,_ZN5Catch9XmlWriter13ScopedElementD2Ev
FNDA:4,_ZN5Catch9XmlWriter13ScopedElement9writeTextERKSsb
FNDA:0,_ZN5Catch9XmlWriter13ScopedElement14writeAttributeIbEERS1_RKSsRKT_
FNDA:0,_ZN5Catch9XmlWriter13ScopedElement14writeAttributeIdEERS1_RKSsRKT_
FNDA:0,_ZN5Catch9XmlWriter13ScopedElement14writeAttributeIjEERS1_RKSsRKT_
FNDA:1,_ZN5Catch9XmlWriterC2ERSo
FNDA:1,_ZN5Catch9XmlWriterD2Ev
FNDA:8,_ZN5Catch9XmlWriter12startElementERKSs
FNDA:7,_ZN5Catch9XmlWriter13scopedElementERKSs
FNDA:8,_ZN5Catch9XmlWriter10endElementEv
FNDA:13,_ZN5Catch9XmlWriter14writeAttributeERKSsS2_
FNDA:0,_ZN5Catch9XmlWriter14writeAttributeERKSsb
FNDA:0,_ZN5Catch9XmlWriter14writeAttributeIA5_cEERS0_RKSsRKT_
FNDA:1,_ZN5Catch9XmlWriter14writeAttributeIdEERS0_RKSsRKT_
FNDA:0,_ZN5Catch9XmlWriter14writeAttributeIA1_cEERS0_RKSsRKT_
FNDA:1,_ZN5Catch9XmlWriter14writeAttributeIA4_cEERS0_RKSsRKT_
FNDA:3,_ZN5Catch9XmlWriter14writeAttributeIjEERS0_RKSsRKT_
FNDA:0,_ZN5Catch9XmlWriter14writeAttributeIPKcEERS0_RKSsRKT_
FNDA:4,_ZN5Catch9XmlWriter9writeTextERKSsb
FNDA:0,_ZN5Catch9XmlWriter18writeStylesheetRefERKSs
FNDA:11,_ZN5Catch9XmlWriter15ensureTagClosedEv
FNDA:1,_ZN5Catch9XmlWriter16writeDeclarationEv
FNDA:16,_ZN5Catch9XmlWriter18newlineIfNecessaryEv
FNDA:0,_ZN5Catch11XmlReporterC2ERKNS_14ReporterConfigE
FNDA:0,_ZN5Catch11XmlReporter14getDescriptionEv
FNDA:0,_ZNK5Catch11XmlReporter16getStylesheetRefEv
FNDA:0,_ZN5Catch11XmlReporter15writeSourceInfoERKNS_14SourceLineInfoE
FNDA:0,_ZN5Catch11XmlReporter19noMatchingTestCasesERKSs
FNDA:0,_ZN5Catch11XmlReporter15testRunStartingERKNS_11TestRunInfoE
FNDA:0,_ZN5Catch11XmlReporter17testGroupStartingERKNS_9GroupInfoE
FNDA:0,_ZN5Catch11XmlReporter16testCaseStartingERKNS_12TestCaseInfoE
FNDA:0,_ZN5Catch11XmlReporter15sectionStartingERKNS_11SectionInfoE
FNDA:0,_ZN5Catch11XmlReporter17assertionStartingERKNS_13AssertionInfoE
FNDA:0,_ZN5Catch11XmlReporter14assertionEndedERKNS_14AssertionStatsE
FNDA:0,_ZN5Catch11XmlReporter12sectionEndedERKNS_12SectionStatsE
FNDA:0,_ZN5Catch11XmlReporter13testCaseEndedERKNS_13TestCaseStatsE
FNDA:0,_ZN5Catch11XmlReporter14testGroupEndedERKNS_14TestGroupStatsE
FNDA:0,_ZN5Catch11XmlReporter12testRunEndedERKNS_12TestRunStatsE
FNDA:1,_ZN5Catch12_GLOBAL__N_119getCurrentTimestampEv
FNDA:1,_ZN5Catch13JunitReporterC2ERKNS_14ReporterConfigE
FNDA:0,_ZN5Catch13JunitReporter14getDescriptionEv
FNDA:0,_ZN5Catch13JunitReporter19noMatchingTestCasesERKSs
FNDA:1,_ZN5Catch13JunitReporter15testRunStartingERKNS_11TestRunInfoE
FNDA:1,_ZN5Catch13JunitReporter17testGroupStartingERKNS_9GroupInfoE
FNDA:4,_ZN5Catch13JunitReporter14assertionEndedERKNS_14AssertionStatsE
FNDA:2,_ZN5Catch13JunitReporter13testCaseEndedERKNS_13TestCaseStatsE
FNDA:1,_ZN5Catch13JunitReporter14testGroupEndedERKNS_14TestGroupStatsE
FNDA:1,_ZN5Catch13JunitReporter22testRunEndedCumulativeEv
FNDA:1,_ZN5Catch13JunitReporter10writeGroupERKNS_22CumulativeReporterBase4NodeINS_14TestGroupStatsENS2_INS_13TestCaseStatsENS1_11SectionNodeEEEEEd
FNDA:2,_ZN5Catch13JunitReporter13writeTestCaseERKNS_22CumulativeReporterBase4NodeINS_13TestCaseStatsENS1_11SectionNodeEEE
FNDA:2,_ZN5Catch13JunitReporter12writeSectionERKSsS2_RKNS_22CumulativeReporterBase11SectionNodeE
FNDA:2,_ZN5Catch13JunitReporter15writeAssertionsERKNS_22CumulativeReporterBase11SectionNodeE
FNDA:4,_ZN5Catch13JunitReporter14writeAssertionERKNS_14AssertionStatsE
FNDA:0,_ZN5Catch12_GLOBAL__N_120getFormattedDurationEd
FNDA:0,_ZN5Catch15ConsoleReporterC2ERKNS_14ReporterConfigE
FNDA:0,_ZN5Catch15ConsoleReporter14getDescriptionEv
FNDA:0,_ZN5Catch15ConsoleReporter19noMatchingTestCasesERKSs
FNDA:0,_ZN5Catch15ConsoleReporter17assertionStartingERKNS_13AssertionInfoE
FNDA:0,_ZN5Catch15ConsoleReporter14assertionEndedERKNS_14AssertionStatsE
FNDA:0,_ZN5Catch15ConsoleReporter15sectionStartingERKNS_11SectionInfoE
FNDA:0,_ZN5Catch15ConsoleReporter12sectionEndedERKNS_12SectionStatsE
FNDA:0,_ZN5Catch15ConsoleReporter13testCaseEndedERKNS_13TestCaseStatsE
FNDA:0,_ZN5Catch15ConsoleReporter14testGroupEndedERKNS_14TestGroupStatsE
FNDA:0,_ZN5Catch15ConsoleReporter12testRunEndedERKNS_12TestRunStatsE
FNDA:0,_ZN5Catch15ConsoleReporter16AssertionPrinterD2Ev
FNDA:0,_ZN5Catch15ConsoleReporter16AssertionPrinterC2ERSoRKNS_14AssertionStatsEb
FNDA:0,_ZNK5Catch15ConsoleReporter16AssertionPrinter5printEv
FNDA:0,_ZNK5Catch15ConsoleReporter16AssertionPrinter15printResultTypeEv
FNDA:0,_ZNK5Catch15ConsoleReporter16AssertionPrinter23printOriginalExpressionEv
FNDA:0,_ZNK5Catch15ConsoleReporter16AssertionPrinter28printReconstructedExpressionEv
FNDA:0,_ZNK5Catch15ConsoleReporter16AssertionPrinter12printMessageEv
FNDA:0,_ZNK5Catch15ConsoleReporter16AssertionPrinter15printSourceInfoEv
FNDA:0,_ZN5Catch15ConsoleReporter9lazyPrintEv
FNDA:0,_ZN5Catch15ConsoleReporter16lazyPrintRunInfoEv
FNDA:0,_ZN5Catch15ConsoleReporter18lazyPrintGroupInfoEv
FNDA:0,_ZN5Catch15ConsoleReporter29printTestCaseAndSectionHeaderEv
FNDA:0,_ZN5Catch15ConsoleReporter17printClosedHeaderERKSs
FNDA:0,_ZN5Catch15ConsoleReporter15printOpenHeaderERKSs
FNDA:0,_ZN5Catch15ConsoleReporter17printHeaderStringERKSsj
FNDA:0,_ZN5Catch15ConsoleReporter13SummaryColumnC2EOS1_
FNDA:0,_ZN5Catch15ConsoleReporter13SummaryColumnD2Ev
FNDA:0,_ZN5Catch15ConsoleReporter13SummaryColumnC2ERKS1_
FNDA:0,_ZN5Catch15ConsoleReporter13SummaryColumnC2ERKSsNS_6Colour4CodeE
FNDA:0,_ZN5Catch15ConsoleReporter13SummaryColumn6addRowEj
FNDA:0,_ZN5Catch15ConsoleReporter11printTotalsERKNS_6TotalsE
FNDA:0,_ZN5Catch15ConsoleReporter15printSummaryRowERKSsRKSt6vectorINS0_13SummaryColumnESaIS4_EEj
FNDA:0,_ZN5Catch15ConsoleReporter9makeRatioEjj
FNDA:0,_ZN5Catch15ConsoleReporter7findMaxERjS1_S1_
FNDA:0,_ZN5Catch15ConsoleReporter18printTotalsDividerERKNS_6TotalsE
FNDA:0,_ZN5Catch15ConsoleReporter19printSummaryDividerEv
FNDA:0,_ZN5Catch15CompactReporterC2ERKNS_14ReporterConfigE
FNDA:0,_ZN5Catch15CompactReporter14getDescriptionEv
FNDA:0,_ZNK5Catch15CompactReporter14getPreferencesEv
FNDA:0,_ZN5Catch15CompactReporter19noMatchingTestCasesERKSs
FNDA:0,_ZN5Catch15CompactReporter17assertionStartingERKNS_13AssertionInfoE
FNDA:0,_ZN5Catch15CompactReporter14assertionEndedERKNS_14AssertionStatsE
FNDA:0,_ZN5Catch15CompactReporter12testRunEndedERKNS_12TestRunStatsE
FNDA:0,_ZN5Catch15CompactReporter16AssertionPrinterD2Ev
FNDA:0,_ZN5Catch15CompactReporter16AssertionPrinterC2ERSoRKNS_14AssertionStatsEb
FNDA:0,_ZN5Catch15CompactReporter16AssertionPrinter5printEv
FNDA:0,_ZN5Catch15CompactReporter16AssertionPrinter9dimColourEv
FNDA:0,_ZN5Catch15CompactReporter16AssertionPrinter12failedStringEv
FNDA:0,_ZN5Catch15CompactReporter16AssertionPrinter12passedStringEv
FNDA:0,_ZNK5Catch15CompactReporter16AssertionPrinter15printSourceInfoEv
FNDA:0,_ZNK5Catch15CompactReporter16AssertionPrinter15printResultTypeENS_6Colour4CodeESs
FNDA:0,_ZNK5Catch15CompactReporter16AssertionPrinter10printIssueESs
FNDA:0,_ZN5Catch15CompactReporter16AssertionPrinter18printExpressionWasEv
FNDA:0,_ZNK5Catch15CompactReporter16AssertionPrinter23printOriginalExpressionEv
FNDA:0,_ZNK5Catch15CompactReporter16AssertionPrinter28printReconstructedExpressionEv
FNDA:0,_ZN5Catch15CompactReporter16AssertionPrinter12printMessageEv
FNDA:0,_ZN5Catch15CompactReporter16AssertionPrinter22printRemainingMessagesENS_6Colour4CodeE
FNDA:0,_ZNK5Catch15CompactReporter9bothOrAllEj
FNDA:0,_ZNK5Catch15CompactReporter11printTotalsERKNS_6TotalsE
FNDA:0,_ZN5Catch11NonCopyableD0Ev
FNDA:21,_ZN5Catch11NonCopyableD2Ev
FNDA:0,_ZN5Catch7ISharedD0Ev
FNDA:20,_ZN5Catch7ISharedD2Ev
FNDA:0,_ZN5Catch7IStreamD0Ev
FNDA:1,_ZN5Catch7IStreamD2Ev
FNDA:0,_ZN5Catch10FileStreamD0Ev
FNDA:0,_ZN5Catch10FileStreamD2Ev
FNDA:1,_ZN5Catch10CoutStreamD0Ev
FNDA:1,_ZN5Catch10CoutStreamD2Ev
FNDA:0,_ZN5Catch14DebugOutStreamD0Ev
FNDA:0,_ZN5Catch14DebugOutStreamD2Ev
FNDA:0,_ZN5Catch13StreamBufBaseD0Ev
FNDA:0,_ZN5Catch13StreamBufBaseD2Ev
FNDA:0,_ZN5Catch8IContextD0Ev
FNDA:1,_ZN5Catch8IContextD2Ev
FNDA:0,_ZN5Catch14IResultCaptureD0Ev
FNDA:1,_ZN5Catch14IResultCaptureD2Ev
FNDA:0,_ZN5Catch9ITestCaseD0Ev
FNDA:2,_ZN5Catch9ITestCaseD2Ev
FNDA:0,_ZN5Catch17ITestCaseRegistryD0Ev
FNDA:1,_ZN5Catch17ITestCaseRegistryD2Ev
FNDA:0,_ZN5Catch12IRegistryHubD0Ev
FNDA:1,_ZN5Catch12IRegistryHubD2Ev
FNDA:0,_ZN5Catch19IMutableRegistryHubD0Ev
FNDA:1,_ZN5Catch19IMutableRegistryHubD2Ev
FNDA:0,_ZN5Catch20IExceptionTranslatorD0Ev
FNDA:0,_ZN5Catch20IExceptionTranslatorD2Ev
FNDA:0,_ZN5Catch28IExceptionTranslatorRegistryD0Ev
FNDA:1,_ZN5Catch28IExceptionTranslatorRegistryD2Ev
FNDA:0,_ZN5Catch9IReporterD0Ev
FNDA:0,_ZN5Catch9IReporterD2Ev
FNDA:0,_ZN5Catch16IReporterFactoryD0Ev
FNDA:4,_ZN5Catch16IReporterFactoryD2Ev
FNDA:0,_ZN5Catch17IReporterRegistryD0Ev
FNDA:1,_ZN5Catch17IReporterRegistryD2Ev
FNDA:0,_ZN5Catch18IStreamingReporterD0Ev
FNDA:1,_ZN5Catch18IStreamingReporterD2Ev
FNDA:0,_ZN5Catch14AssertionStatsD0Ev
FNDA:10,_ZN5Catch14AssertionStatsD2Ev
FNDA:0,_ZN5Catch12SectionStatsD0Ev
FNDA:6,_ZN5Catch12SectionStatsD2Ev
FNDA:0,_ZN5Catch13TestCaseStatsD0Ev
FNDA:4,_ZN5Catch13TestCaseStatsD2Ev
FNDA:0,_ZN5Catch14TestGroupStatsD0Ev
FNDA:2,_ZN5Catch14TestGroupStatsD2Ev
FNDA:0,_ZN5Catch12TestRunStatsD0Ev
FNDA:2,_ZN5Catch12TestRunStatsD2Ev
FNDA:2,_ZN5Catch22CumulativeReporterBase11SectionNodeD0Ev
FNDA:2,_ZN5Catch22CumulativeReporterBase11SectionNodeD2Ev
FNDA:0,_ZN5Catch22CumulativeReporterBaseD0Ev
FNDA:1,_ZN5Catch22CumulativeReporterBaseD2Ev
FNDA:0,_ZN5Catch21StreamingReporterBaseD0Ev
FNDA:0,_ZN5Catch21StreamingReporterBaseD2Ev
FNDA:0,_ZN5Catch15ConsoleReporterD0Ev
FNDA:0,_ZN5Catch15ConsoleReporterD2Ev
FNDA:0,_ZN5Catch15CompactReporterD0Ev
FNDA:0,_ZN5Catch15CompactReporterD2Ev
FNDA:0,_ZN5Catch7IRunnerD0Ev
FNDA:1,_ZN5Catch7IRunnerD2Ev
FNDA:0,_ZN5Catch15IMutableContextD0Ev
FNDA:1,_ZN5Catch15IMutableContextD2Ev
FNDA:0,_ZN5Catch7IConfigD0Ev
FNDA:1,_ZN5Catch7IConfigD2Ev
FNDA:0,_ZN5Catch11XmlReporterD0Ev
FNDA:0,_ZN5Catch11XmlReporterD2Ev
FNDA:1,_ZN5Catch13JunitReporterD0Ev
FNDA:1,_ZN5Catch13JunitReporterD2Ev
FNDA:0,_ZN5Catch12TestRegistryD0Ev
FNDA:1,_ZN5Catch12TestRegistryD2Ev
FNDA:2,_ZN5Catch20FreeFunctionTestCaseD0Ev
FNDA:2,_ZN5Catch20FreeFunctionTestCaseD2Ev
FNDA:0,_ZN5Catch14IGeneratorInfoD0Ev
FNDA:0,_ZN5Catch14IGeneratorInfoD2Ev
FNDA:0,_ZN5Catch18IGeneratorsForTestD0Ev
FNDA:0,_ZN5Catch18IGeneratorsForTestD2Ev
FNDA:0,_ZN5Catch15WildcardPatternD0Ev
FNDA:0,_ZN5Catch15WildcardPatternD2Ev
FNDA:0,_ZN5Catch8TestSpec7PatternD0Ev
FNDA:2,_ZN5Catch8TestSpec7PatternD2Ev
FNDA:0,_ZN5Catch8TestSpec11NamePatternD0Ev
FNDA:0,_ZN5Catch8TestSpec11NamePatternD2Ev
FNDA:1,_ZN5Catch8TestSpec10TagPatternD0Ev
FNDA:1,_ZN5Catch8TestSpec10TagPatternD2Ev
FNDA:1,_ZN5Catch8TestSpec15ExcludedPatternD0Ev
FNDA:1,_ZN5Catch8TestSpec15ExcludedPatternD2Ev
FNDA:0,_ZN5Catch6Config5dummyEv
FNDA:0,_ZN5Catch16TestCaseTracking8ITrackerD0Ev
FNDA:4,_ZN5Catch16TestCaseTracking8ITrackerD2Ev
FNDA:0,_ZN5Catch16TestCaseTracking11TrackerBaseD0Ev
FNDA:4,_ZN5Catch16TestCaseTracking11TrackerBaseD2Ev
FNDA:4,_ZN5Catch16TestCaseTracking14SectionTrackerD0Ev
FNDA:4,_ZN5Catch16TestCaseTracking14SectionTrackerD2Ev
FNDA:0,_ZN5Catch16TestCaseTracking12IndexTrackerD0Ev
FNDA:0,_ZN5Catch16TestCaseTracking12IndexTrackerD2Ev
FNDA:1,main
FNDA:0,_GLOBAL__sub_D_leakDetector
FNDA:1,_GLOBAL__sub_I_leakDetector
FNDA:1,_Z41__static_initialization_and_destruction_0ii
FNF:1152
FNH:594
DA:401,21
DA:409,4
DA:410,4
DA:413,0
DA:417,1
DA:418,1
DA:419,1
DA:420,1
DA:421,0
DA:422,1
DA:424,1
DA:425,1
DA:426,1
DA:427,1
DA:428,0
DA:429,1
DA:441,0
DA:472,0
DA:506,0
DA:530,0
DA:536,0
DA:563,8
DA:564,23
DA:565,23
DA:566,22
DA:567,23
DA:568,44
DA:569,44
DA:570,44
DA:571,44
DA:572,75
DA:573,75
DA:574,64
DA:575,75
DA:576,3
DA:577,3
DA:578,2
DA:579,3
DA:580,3
DA:581,6
DA:582,6
DA:583,6
DA:584,6
DA:586,8
DA:587,8
DA:588,8
DA:589,8
DA:591,14
DA:592,4
DA:593,21
DA:594,48
DA:595,5
DA:596,3
DA:602,20
DA:609,20
DA:611,20
DA:613,66
DA:614,66
DA:615,66
DA:616,66
DA:617,66
DA:618,20
DA:619,66
DA:639,1
DA:650,1
DA:677,2
DA:686,1
DA:860,12
DA:861,12
DA:881,4
DA:882,0
DA:895,0
DA:897,0
DA:898,0
DA:899,0
DA:917,24
DA:919,2
DA:931,22
DA:933,5
DA:936,5
DA:938,0
DA:939,0
DA:940,0
DA:941,0
DA:942,0
DA:943,0
DA:944,0
DA:945,0
DA:947,0
DA:948,0
DA:949,0
DA:950,0
DA:951,0
DA:952,0
DA:954,0
DA:955,0
DA:957,0
DA:959,0
DA:970,4
DA:976,8
DA:977,2
DA:1015,0
DA:1017,0
DA:1018,0
DA:1019,0
DA:1020,0
DA:1031,0
DA:1041,0
DA:1042,0
DA:1043,0
DA:1044,0
DA:1045,0
DA:1047,0
DA:1049,0
DA:1050,0
DA:1051,0
DA:1052,0
DA:1053,0
DA:1054,0
DA:1055,0
DA:1056,0
DA:1058,0
DA:1059,0
DA:1167,0
DA:1168,4
DA:1180,0
DA:1193,0
DA:1194,0
DA:1195,0
DA:1932,0
DA:1943,0
DA:1944,0
DA:1953,0
DA:1954,0
DA:1957,0
DA:1958,0
DA:1961,0
DA:1962,0
DA:1963,0
DA:1997,1
DA:2090,1
DA:2279,16
DA:2281,6
DA:2282,6
DA:2283,6
DA:2284,6
DA:2285,6
DA:2286,6
DA:2288,6
DA:2289,6
DA:2290,6
DA:2291,6
DA:2292,6
DA:2295,3
DA:2296,3
DA:2298,0
DA:2299,0
DA:2301,0
DA:2302,0
DA:2310,4
DA:2312,2
DA:2313,2
DA:2314,2
DA:2315,2
DA:2316,2
DA:2319,2
DA:2320,2
DA:2321,2
DA:2322,0
DA:2323,2
DA:2324,0
DA:2326,2
DA:2327,2
DA:2330,2
DA:2331,2
DA:2332,2
DA:2333,2
DA:2345,16
DA:2356,0
DA:2357,0
DA:2358,0
DA:2359,0
DA:2381,3
DA:2624,1
DA:2632,1
DA:2659,1
DA:2885,0
DA:2895,0
DA:2903,0
DA:3034,0
DA:3035,0
DA:3057,1
DA:3058,0
DA:3059,0
DA:3060,0
DA:3065,1
DA:3066,1
DA:3067,1
DA:3077,0
DA:3078,0
DA:3079,0
DA:3080,0
DA:3083,1
DA:3084,1
DA:3085,0
DA:3086,1
DA:3087,1
DA:3089,0
DA:3091,0
DA:3094,0
DA:3095,0
DA:3098,1
DA:3102,1
DA:3103,1
DA:3115,1
DA:3142,17
DA:3177,9
DA:3481,0
DA:3484,0
DA:3486,0
DA:3487,0
DA:3488,0
DA:3490,0
DA:3491,0
DA:3492,0
DA:3494,0
DA:3496,0
DA:3497,0
DA:3499,0
DA:3501,0
DA:3503,0
DA:3505,0
DA:3512,0
DA:3518,0
DA:3519,0
DA:3532,9
DA:3533,2
DA:3539,0
DA:3540,0
DA:3541,0
DA:3543,0
DA:3544,0
DA:3552,1
DA:3554,2
DA:3555,2
DA:3563,1
DA:3565,2
DA:3570,9
DA:3573,2
DA:3575,4
DA:3576,2
DA:3577,0
DA:3579,2
DA:3584,1
DA:3585,1
DA:3587,2
DA:3589,2
DA:3590,2
DA:3591,2
DA:3592,0
DA:3608,1
DA:3620,1
DA:3622,1
DA:3623,1
DA:3624,1
DA:3625,1
DA:3626,1
DA:3627,1
DA:3628,4
DA:3629,3
DA:3630,1
DA:3631,0
DA:3632,1
DA:3634,1
DA:3635,1
DA:3636,1
DA:3639,3
DA:3640,3
DA:3641,2
DA:3642,0
DA:3643,1
DA:3644,1
DA:3645,0
DA:3646,0
DA:3647,0
DA:3650,1
DA:3651,0
DA:3652,0
DA:3653,0
DA:3655,0
DA:3656,0
DA:3657,0
DA:3659,0
DA:3660,0
DA:3662,0
DA:3663,0
DA:3665,1
DA:3666,0
DA:3667,1
DA:3668,0
DA:3669,1
DA:3670,1
DA:3672,1
DA:3673,1
DA:3674,1
DA:3675,1
DA:3676,0
DA:3677,0
DA:3678,0
DA:3679,0
DA:3680,0
DA:3681,0
DA:3682,1
DA:3684,1
DA:3685,1
DA:3686,1
DA:3687,0
DA:3688,1
DA:3689,1
DA:3690,0
DA:3691,0
DA:3693,1
DA:3694,1
DA:3695,1
DA:3696,1
DA:3697,1
DA:3699,1
DA:3700,1
DA:3701,1
DA:3702,1
DA:3703,1
DA:3704,1
DA:3705,1
DA:3707,1
DA:3757,1
DA:3789,0
DA:3805,1
DA:3852,3
DA:3854,1
DA:3871,1
DA:3872,1
DA:3914,1
DA:3916,1
DA:3918,1
DA:3919,0
DA:3920,0
DA:3921,0
DA:3922,0
DA:3924,1
DA:3926,2
DA:3932,1
DA:3933,1
DA:3934,1
DA:3935,1
DA:3939,1
DA:3940,2
DA:3942,1
DA:3947,2
DA:3948,1
DA:3949,3
DA:3950,0
DA:3951,0
DA:3952,1
DA:3953,3
DA:3954,3
DA:3955,0
DA:3956,0
DA:3957,6
DA:3958,0
DA:3962,1
DA:3963,1
DA:3964,1
DA:3965,0
DA:3966,0
DA:3967,0
DA:3969,0
DA:3972,0
DA:4038,0
DA:4042,0
DA:4043,0
DA:4046,0
DA:4047,0
DA:4056,0
DA:4058,0
DA:4059,0
DA:4061,0
DA:4062,0
DA:4064,0
DA:4065,0
DA:4067,0
DA:4068,0
DA:4069,0
DA:4070,0
DA:4072,0
DA:4073,0
DA:4074,0
DA:4075,0
DA:4076,0
DA:4078,0
DA:4079,0
DA:4080,0
DA:4081,0
DA:4082,0
DA:4083,0
DA:4086,0
DA:4087,0
DA:4089,0
DA:4090,0
DA:4091,0
DA:4092,0
DA:4093,0
DA:4096,0
DA:4097,0
DA:4098,0
DA:4099,0
DA:4100,0
DA:4103,0
DA:4104,0
DA:4106,0
DA:4107,0
DA:4108,0
DA:4109,0
DA:4111,0
DA:4112,0
DA:4114,0
DA:4115,0
DA:4116,0
DA:4117,0
DA:4124,0
DA:4125,0
DA:4341,59
DA:4342,59
DA:4354,0
DA:4355,0
DA:4356,0
DA:4357,0
DA:4358,0
DA:4359,0
DA:4360,0
DA:4361,2
DA:4362,2
DA:4363,2
DA:4364,0
DA:4365,0
DA:4367,0
DA:4368,0
DA:4369,0
DA:4370,0
DA:4371,0
DA:4372,0
DA:4373,0
DA:4375,0
DA:4376,0
DA:4380,82
DA:4382,26
DA:4383,56
DA:4393,24
DA:4394,26
DA:4395,54
DA:4396,25
DA:4397,25
DA:4398,25
DA:4399,25
DA:4400,25
DA:4402,104
DA:4404,2
DA:4405,2
DA:4406,2
DA:4409,23
DA:4410,23
DA:4417,3
DA:4418,0
DA:4419,0
DA:4420,0
DA:4424,140
DA:4425,13
DA:4426,1
DA:4427,1
DA:4428,1
DA:4429,0
DA:4430,38
DA:4460,13
DA:4461,2
DA:4462,0
DA:4464,0
DA:4465,0
DA:4466,0
DA:4467,0
DA:4468,0
DA:4469,3
DA:4474,65
DA:4475,10
DA:4476,1
DA:4477,1
DA:4478,1
DA:4479,1
DA:4480,1
DA:4481,0
DA:4482,15
DA:4488,1
DA:4489,1
DA:4490,4
DA:4491,3
DA:4493,1
DA:4503,8
DA:4505,2
DA:4510,1
DA:4512,1
DA:4513,1
DA:4514,3
DA:4515,3
DA:4516,1
DA:4518,2
DA:4519,11
DA:4520,9
DA:4521,9
DA:4522,0
DA:4523,9
DA:4525,2
DA:4526,9
DA:4527,9
DA:4528,2
DA:4529,1
DA:4532,1
DA:4533,5
DA:4534,0
DA:4538,2
DA:4539,2
DA:4540,0
DA:4541,0
DA:4543,2
DA:4544,1
DA:4548,1
DA:4551,1
DA:4552,1
DA:4553,0
DA:4554,1
DA:4557,1
DA:4558,1
DA:4559,0
DA:4561,1
DA:4562,1
DA:4563,2
DA:4564,1
DA:4565,0
DA:4566,0
DA:4568,0
DA:4569,1
DA:4571,5
DA:4572,5
DA:4573,4
DA:4575,1
DA:4576,1
DA:4577,1
DA:4582,132
DA:4583,24
DA:4591,1
DA:4592,1
DA:4594,23
DA:4595,23
DA:4596,0
DA:4597,23
DA:4599,156
DA:4603,9
DA:4604,9
DA:4606,0
DA:4607,0
DA:4611,24
DA:4620,1
DA:4622,132
DA:4623,24
DA:4635,0
DA:4636,0
DA:4637,0
DA:4638,0
DA:4639,0
DA:4640,0
DA:4641,0
DA:4643,0
DA:4644,0
DA:4646,0
DA:4647,0
DA:4648,0
DA:4649,0
DA:4651,0
DA:4652,0
DA:4653,0
DA:4659,41
DA:4661,41
DA:4662,41
DA:4663,41
DA:4664,23
DA:4665,0
DA:4668,0
DA:4669,23
DA:4671,18
DA:4672,18
DA:4674,0
DA:4683,24
DA:4687,2
DA:4688,2
DA:4689,2
DA:4690,2
DA:4693,10
DA:4694,10
DA:4695,10
DA:4718,2
DA:4719,2
DA:4720,2
DA:4724,10
DA:4725,10
DA:4726,10
DA:4727,10
DA:4729,24
DA:4730,24
DA:4731,24
DA:4744,23
DA:4747,18
DA:4748,18
DA:4749,18
DA:4755,1
DA:4758,1
DA:4759,1
DA:4771,1
DA:4772,1
DA:4773,1
DA:4776,23
DA:4777,23
DA:4778,23
DA:4779,23
DA:4780,23
DA:4793,1
DA:4794,1
DA:4795,0
DA:4796,1
DA:4797,1
DA:4798,1
DA:4802,1
DA:4803,1
DA:4804,1
DA:4810,0
DA:4811,0
DA:4812,0
DA:4813,0
DA:4814,0
DA:4816,0
DA:4818,0
DA:4819,0
DA:4820,0
DA:4821,0
DA:4823,0
DA:4824,0
DA:4825,0
DA:4827,0
DA:4828,0
DA:4829,0
DA:4830,0
DA:4833,0
DA:4840,0
DA:4841,0
DA:4842,0
DA:4843,0
DA:4844,0
DA:4845,0
DA:4846,0
DA:4847,0
DA:4848,0
DA:4850,0
DA:4853,0
DA:4854,0
DA:4855,0
DA:4856,0
DA:4858,0
DA:4865,0
DA:4866,0
DA:4867,0
DA:4868,0
DA:4869,0
DA:4870,0
DA:4871,0
DA:4873,0
DA:4874,0
DA:4887,1
DA:4888,1
DA:4889,1
DA:4890,1
DA:4891,1
DA:4892,1
DA:4893,2
DA:4894,1
DA:4895,1
DA:4896,2
DA:4899,1
DA:4900,1
DA:4901,1
DA:4902,1
DA:4903,1
DA:4904,1
DA:4907,1
DA:4908,1
DA:4909,2
DA:4910,2
DA:4911,1
DA:4912,1
DA:4913,9
DA:4914,9
DA:4917,9
DA:4918,0
DA:4919,1
DA:4920,1
DA:4921,0
DA:4923,1
DA:4926,0
DA:4928,1
DA:4931,0
DA:4932,0
DA:4935,1
DA:4936,0
DA:4937,0
DA:4938,0
DA:4939,0
DA:4942,1
DA:4943,0
DA:4944,0
DA:4947,0
DA:4948,0
DA:4949,0
DA:4951,0
DA:4953,2
DA:4955,1
DA:4956,1
DA:4957,1
DA:4958,1
DA:4959,0
DA:4960,0
DA:4961,0
DA:4962,0
DA:4964,0
DA:4965,0
DA:4966,0
DA:4968,1
DA:4970,1
DA:4971,1
DA:4972,0
DA:4973,1
DA:4974,1
DA:4975,0
DA:4976,0
DA:4977,0
DA:4979,0
DA:4981,1
DA:4984,1
DA:4986,1
DA:4987,0
DA:4989,25
DA:4990,1
DA:4992,23
DA:4993,1
DA:5024,0
DA:5025,0
DA:5026,0
DA:5027,0
DA:5028,0
DA:5029,0
DA:5030,0
DA:5031,0
DA:5032,1
DA:5034,0
DA:5035,0
DA:5036,0
DA:5038,0
DA:5039,0
DA:5040,0
DA:5041,0
DA:5042,0
DA:5043,0
DA:5044,0
DA:5045,0
DA:5046,0
DA:5048,0
DA:5049,0
DA:5050,0
DA:5051,0
DA:5052,0
DA:5055,0
DA:5056,0
DA:5057,0
DA:5058,0
DA:5059,0
DA:5061,0
DA:5066,0
DA:5069,0
DA:5070,0
DA:5071,0
DA:5072,0
DA:5074,0
DA:5075,0
DA:5076,0
DA:5077,0
DA:5078,0
DA:5079,0
DA:5081,0
DA:5082,0
DA:5083,0
DA:5084,0
DA:5085,0
DA:5086,0
DA:5087,0
DA:5088,0
DA:5089,0
DA:5091,0
DA:5092,0
DA:5093,0
DA:5094,0
DA:5095,0
DA:5096,0
DA:5097,0
DA:5099,0
DA:5100,0
DA:5102,1
DA:5105,1
DA:5107,1
DA:5109,2
DA:5110,2
DA:5111,1
DA:5113,2
DA:5114,2
DA:5115,1
DA:5117,2
DA:5118,2
DA:5119,1
DA:5121,2
DA:5122,2
DA:5123,1
DA:5125,2
DA:5126,2
DA:5127,1
DA:5129,2
DA:5130,2
DA:5131,1
DA:5133,2
DA:5134,2
DA:5135,1
DA:5137,2
DA:5138,2
DA:5139,1
DA:5141,2
DA:5143,2
DA:5144,1
DA:5146,2
DA:5147,2
DA:5148,1
DA:5150,2
DA:5151,2
DA:5152,1
DA:5154,2
DA:5155,2
DA:5156,1
DA:5158,2
DA:5159,2
DA:5160,1
DA:5170,2
DA:5171,1
DA:5173,2
DA:5174,2
DA:5175,1
DA:5177,2
DA:5178,2
DA:5179,1
DA:5181,2
DA:5182,2
DA:5183,1
DA:5185,2
DA:5186,2
DA:5187,1
DA:5191,2
DA:5192,1
DA:5195,2
DA:5196,1
DA:5199,2
DA:5200,1
DA:5203,2
DA:5204,1
DA:5207,2
DA:5208,1
DA:5211,2
DA:5212,1
DA:5214,1
DA:5258,0
DA:5261,0
DA:5262,0
DA:5264,0
DA:5265,0
DA:5266,0
DA:5273,0
DA:5275,0
DA:5276,0
DA:5278,0
DA:5279,0
DA:5280,0
DA:5281,0
DA:5283,0
DA:5286,0
DA:5287,0
DA:5289,0
DA:5291,0
DA:5292,0
DA:5293,0
DA:5296,0
DA:5297,0
DA:5298,0
DA:5299,0
DA:5301,0
DA:5302,0
DA:5303,0
DA:5305,0
DA:5306,0
DA:5307,0
DA:5308,0
DA:5309,0
DA:5310,0
DA:5311,0
DA:5312,0
DA:5314,0
DA:5315,0
DA:5316,0
DA:5317,0
DA:5319,0
DA:5320,0
DA:5321,0
DA:5322,0
DA:5324,0
DA:5325,0
DA:5327,0
DA:5329,0
DA:5331,0
DA:5333,0
DA:5334,0
DA:5335,0
DA:5338,0
DA:5339,0
DA:5342,0
DA:5344,0
DA:5345,0
DA:5346,0
DA:5347,0
DA:5348,0
DA:5352,0
DA:5353,0
DA:5363,0
DA:5364,0
DA:5366,0
DA:5367,0
DA:5368,0
DA:5370,0
DA:5446,0
DA:5459,1
DA:5460,1
DA:5461,1
DA:5466,2
DA:5467,1
DA:5475,1
DA:5476,1
DA:5477,1
DA:5483,0
DA:5484,0
DA:5485,0
DA:5486,0
DA:5487,0
DA:5488,0
DA:5490,0
DA:5491,0
DA:5492,0
DA:5493,0
DA:5497,5
DA:5498,1
DA:5501,6
DA:5502,2
DA:5507,2
DA:5508,2
DA:5516,4
DA:5521,4
DA:5523,4
DA:5526,0
DA:5527,0
DA:5528,0
DA:5530,0
DA:5532,4
DA:5536,4
DA:5537,2
DA:5547,2
DA:5548,4
DA:5555,4
DA:5556,4
DA:5559,2
DA:5572,2
DA:5581,2
DA:5582,2
DA:5586,2
DA:5600,1
DA:5605,1
DA:5606,1
DA:5614,1
DA:5626,1
DA:5631,1
DA:5632,1
DA:5642,1
DA:5655,1
DA:5683,0
DA:5686,4
DA:5692,1
DA:5711,0
DA:5713,0
DA:5714,0
DA:5715,0
DA:5717,0
DA:5718,0
DA:5721,0
DA:5722,0
DA:5723,0
DA:5724,0
DA:5726,0
DA:5727,0
DA:5730,0
DA:5731,0
DA:5732,0
DA:5734,0
DA:5735,0
DA:5737,0
DA:5738,0
DA:5739,0
DA:5740,0
DA:5742,0
DA:5743,0
DA:5745,0
DA:5746,0
DA:5749,0
DA:5750,0
DA:5751,0
DA:5752,0
DA:5753,0
DA:5754,0
DA:5755,0
DA:5758,0
DA:5759,0
DA:5760,0
DA:5761,0
DA:5763,0
DA:5765,0
DA:5768,0
DA:5769,0
DA:5770,0
DA:5771,0
DA:5772,0
DA:5773,0
DA:5774,0
DA:5775,0
DA:5776,0
DA:5779,0
DA:5780,0
DA:5786,0
DA:5787,0
DA:5788,0
DA:5789,0
DA:5791,0
DA:5792,0
DA:5795,0
DA:5797,0
DA:5798,0
DA:5801,0
DA:5802,0
DA:5805,0
DA:5806,0
DA:5807,0
DA:5808,0
DA:5809,0
DA:5810,0
DA:5811,0
DA:5814,0
DA:5815,0
DA:5818,0
DA:5819,0
DA:5820,0
DA:5821,0
DA:5822,0
DA:5823,0
DA:5824,0
DA:5825,0
DA:5826,0
DA:5827,0
DA:5830,0
DA:5831,0
DA:5832,0
DA:5833,0
DA:5834,0
DA:5835,0
DA:5836,0
DA:5838,0
DA:5839,0
DA:5840,0
DA:5841,0
DA:5842,0
DA:5843,0
DA:5844,0
DA:5845,0
DA:5846,0
DA:5847,0
DA:5848,0
DA:5849,0
DA:5850,0
DA:5853,1
DA:5854,1
DA:5855,1
DA:5856,0
DA:5857,1
DA:5858,0
DA:5859,1
DA:5860,0
DA:5861,1
DA:5862,0
DA:5863,1
DA:5884,20
DA:5888,4
DA:5890,4
DA:5891,4
DA:5894,4
DA:5922,1
DA:5941,1
DA:5943,1
DA:5944,1
DA:5954,2
DA:5955,2
DA:5956,2
DA:5957,2
DA:5958,2
DA:5959,2
DA:5960,2
DA:5962,2
DA:5963,2
DA:5965,4
DA:5966,4
DA:5968,4
DA:5969,4
DA:5970,4
DA:5983,6
DA:5986,2
DA:5987,0
DA:5989,0
DA:5990,0
DA:6000,4
DA:6004,4
DA:6005,4
DA:6008,0
DA:6009,0
DA:6011,2
DA:6012,2
DA:6014,2
DA:6015,2
DA:6017,0
DA:6018,0
DA:6020,0
DA:6021,0
DA:6024,2
DA:6025,2
DA:6026,2
DA:6028,2
DA:6029,2
DA:6030,4
DA:6031,0
DA:6032,4
DA:6034,0
DA:6035,0
DA:6036,0
DA:6039,2
DA:6040,2
DA:6041,2
DA:6042,2
DA:6043,0
DA:6045,2
DA:6047,0
DA:6048,0
DA:6050,2
DA:6051,2
DA:6052,2
DA:6053,2
DA:6054,2
DA:6055,2
DA:6057,2
DA:6060,4
DA:6061,0
DA:6063,2
DA:6067,0
DA:6070,0
DA:6073,2
DA:6074,2
DA:6076,0
DA:6077,0
DA:6078,0
DA:6081,0
DA:6083,2
DA:6084,2
DA:6085,2
DA:6086,0
DA:6087,0
DA:6088,0
DA:6089,0
DA:6090,0
DA:6091,0
DA:6092,0
DA:6093,0
DA:6094,0
DA:6095,0
DA:6097,2
DA:6098,2
DA:6099,2
DA:6100,2
DA:6101,2
DA:6102,2
DA:6103,2
DA:6109,4
DA:6110,4
DA:6112,4
DA:6113,4
DA:6114,0
DA:6116,2
DA:6117,2
DA:6119,4
DA:6122,4
DA:6124,2
DA:6125,2
DA:6127,2
DA:6128,2
DA:6129,0
DA:6130,0
DA:6131,0
DA:6134,2
DA:6135,2
DA:6137,2
DA:6138,2
DA:6139,2
DA:6142,2
DA:6143,2
DA:6144,2
DA:6145,2
DA:6147,2
DA:6148,2
DA:6149,0
DA:6150,0
DA:6151,0
DA:6153,2
DA:6154,2
DA:6155,2
DA:6156,0
DA:6157,2
DA:6171,0
DA:6203,0
DA:6204,0
DA:6205,0
DA:6206,0
DA:6207,0
DA:6210,2
DA:6211,2
DA:6212,2
DA:6213,2
DA:6214,2
DA:6232,0
DA:6233,0
DA:6234,0
DA:6235,0
DA:6236,0
DA:6380,0
DA:6381,0
DA:6382,0
DA:6383,0
DA:6384,0
DA:6385,0
DA:6386,0
DA:6389,0
DA:6390,0
DA:6391,0
DA:6392,0
DA:6394,2
DA:6395,2
DA:6397,2
DA:6398,2
DA:6399,2
DA:6400,2
DA:6401,2
DA:6403,2
DA:6404,2
DA:6405,14
DA:6406,12
DA:6408,2
DA:6410,2
DA:6411,2
DA:6412,2
DA:6413,4
DA:6414,4
DA:6416,14
DA:6417,12
DA:6420,2
DA:6421,2
DA:6423,4
DA:6445,4
DA:6447,4
DA:6448,8
DA:6450,4
DA:6451,4
DA:6453,8
DA:6454,4
DA:6455,4
DA:6456,4
DA:6474,1
DA:6475,1
DA:6476,1
DA:6479,3
DA:6481,1
DA:6482,1
DA:6483,1
DA:6484,1
DA:6485,1
DA:6487,2
DA:6488,1
DA:6489,1
DA:6491,1
DA:6492,1
DA:6493,1
DA:6494,1
DA:6495,1
DA:6496,1
DA:6498,2
DA:6499,2
DA:6501,2
DA:6502,4
DA:6504,4
DA:6506,2
DA:6508,2
DA:6510,2
DA:6511,2
DA:6512,2
DA:6513,2
DA:6514,2
DA:6515,2
DA:6516,2
DA:6517,2
DA:6519,2
DA:6522,2
DA:6524,2
DA:6525,2
DA:6526,0
DA:6527,0
DA:6528,0
DA:6530,2
DA:6531,2
DA:6535,2
DA:6537,2
DA:6538,2
DA:6540,4
DA:6549,4
DA:6550,4
DA:6551,4
DA:6553,0
DA:6554,0
DA:6557,4
DA:6558,4
DA:6561,4
DA:6562,4
DA:6563,4
DA:6565,0
DA:6570,0
DA:6571,0
DA:6572,0
DA:6573,0
DA:6575,0
DA:6577,0
DA:6579,0
DA:6581,0
DA:6583,2
DA:6584,2
DA:6585,2
DA:6586,0
DA:6587,0
DA:6588,0
DA:6589,0
DA:6590,0
DA:6591,0
DA:6592,0
DA:6595,0
DA:6596,0
DA:6597,0
DA:6599,0
DA:6600,0
DA:6601,0
DA:6604,0
DA:6605,0
DA:6606,0
DA:6608,0
DA:6609,0
DA:6610,0
DA:6612,0
DA:6613,0
DA:6615,0
DA:6616,0
DA:6618,0
DA:6619,0
DA:6620,0
DA:6622,0
DA:6623,0
DA:6624,0
DA:6626,2
DA:6628,2
DA:6629,4
DA:6632,0
DA:6633,0
DA:6636,0
DA:6637,0
DA:6638,0
DA:6639,0
DA:6640,0
DA:6642,0
DA:6645,0
DA:6646,0
DA:6648,0
DA:6649,0
DA:6650,0
DA:6651,0
DA:6653,0
DA:6655,0
DA:6656,0
DA:6657,0
DA:6661,0
DA:6662,0
DA:6663,0
DA:6664,0
DA:6665,0
DA:6669,6
DA:6670,6
DA:6675,2
DA:6676,2
DA:6677,2
DA:6678,2
DA:6679,2
DA:6680,2
DA:6682,2
DA:6684,2
DA:6686,2
DA:6687,2
DA:6688,2
DA:6689,2
DA:6690,4
DA:6691,4
DA:6694,0
DA:6696,2
DA:6698,0
DA:6701,0
DA:6702,0
DA:6704,2
DA:6705,2
DA:6706,2
DA:6708,2
DA:6709,2
DA:6711,2
DA:6712,0
DA:6713,0
DA:6714,0
DA:6717,4
DA:6718,4
DA:6719,2
DA:6721,2
DA:6722,2
DA:6723,2
DA:6724,2
DA:6725,2
DA:6729,0
DA:6733,0
DA:6736,2
DA:6739,4
DA:6740,2
DA:6743,0
DA:6744,2
DA:6745,2
DA:6764,4
DA:6765,4
DA:6766,8
DA:6768,0
DA:6779,0
DA:6809,1
DA:6810,1
DA:6811,1
DA:6812,0
DA:6813,0
DA:6814,0
DA:6816,1
DA:6819,1
DA:6820,1
DA:6821,1
DA:6822,0
DA:6824,1
DA:6825,2
DA:6828,1
DA:6829,1
DA:6831,1
DA:6832,1
DA:6833,1
DA:6836,0
DA:6837,1
DA:6840,1
DA:6842,1
DA:6844,2
DA:6845,1
DA:6847,2
DA:6849,1
DA:6851,1
DA:6853,2
DA:6854,1
DA:6855,1
DA:6857,1
DA:6858,3
DA:6861,2
DA:6862,2
DA:6864,0
DA:6867,1
DA:6868,2
DA:6871,0
DA:6872,0
DA:6873,0
DA:6874,0
DA:6875,0
DA:6877,0
DA:6878,0
DA:6879,0
DA:6880,0
DA:6882,0
DA:6883,0
DA:6884,0
DA:6886,0
DA:6887,0
DA:6888,0
DA:6889,0
DA:6898,1
DA:6899,1
DA:6900,1
DA:6901,0
DA:6902,0
DA:6903,0
DA:6905,1
DA:6906,1
DA:6907,2
DA:6908,1
DA:6909,1
DA:6911,0
DA:6912,0
DA:6914,0
DA:6915,0
DA:6916,0
DA:6918,1
DA:6920,1
DA:6921,1
DA:6922,1
DA:6923,0
DA:6924,1
DA:6926,0
DA:6928,0
DA:6929,0
DA:6930,0
DA:6931,0
DA:6932,0
DA:6934,0
DA:6935,0
DA:6937,1
DA:6945,1
DA:6947,1
DA:6948,1
DA:6949,1
DA:6950,1
DA:6953,1
DA:6954,1
DA:6955,0
DA:6959,1
DA:6961,1
DA:6963,1
DA:6964,0
DA:6967,1
DA:6968,0
DA:6970,1
DA:6972,0
DA:6973,0
DA:6974,0
DA:6987,2
DA:6988,2
DA:6989,1
DA:6990,2
DA:7023,0
DA:7024,0
DA:7027,0
DA:7030,0
DA:7034,0
DA:7037,1
DA:7039,1
DA:7041,1
DA:7043,0
DA:7044,0
DA:7047,0
DA:7048,0
DA:7050,0
DA:7053,1
DA:7055,1
DA:7057,2
DA:7058,2
DA:7061,1
DA:7062,1
DA:7063,3
DA:7066,2
DA:7067,2
DA:7068,0
DA:7070,0
DA:7071,0
DA:7072,0
DA:7073,0
DA:7075,0
DA:7077,1
DA:7078,1
DA:7080,0
DA:7081,0
DA:7082,0
DA:7083,0
DA:7086,0
DA:7087,0
DA:7088,0
DA:7090,1
DA:7091,1
DA:7096,1
DA:7098,1
DA:7099,1
DA:7102,2
DA:7103,2
DA:7104,2
DA:7105,0
DA:7106,0
DA:7107,2
DA:7109,2
DA:7112,0
DA:7113,0
DA:7115,1
DA:7116,1
DA:7117,1
DA:7119,1
DA:7120,1
DA:7121,1
DA:7123,1
DA:7139,2
DA:7141,2
DA:7142,2
DA:7143,2
DA:7151,2
DA:7152,2
DA:7153,2
DA:7155,0
DA:7156,0
DA:7157,0
DA:7158,0
DA:7159,0
DA:7161,2
DA:7164,2
DA:7170,2
DA:7176,2
DA:7177,2
DA:7178,2
DA:7182,2
DA:7183,2
DA:7187,2
DA:7191,2
DA:7192,2
DA:7194,0
DA:7205,1
DA:7209,1
DA:7211,1
DA:7212,1
DA:7213,1
DA:7214,0
DA:7215,1
DA:7218,4
DA:7219,4
DA:7220,4
DA:7221,0
DA:7222,0
DA:7223,0
DA:7225,0
DA:7226,0
DA:7228,1
DA:7229,1
DA:7247,1
DA:7249,2
DA:7250,1
DA:7251,1
DA:7253,0
DA:7254,0
DA:7255,0
DA:7257,0
DA:7268,0
DA:7271,0
DA:7272,0
DA:7274,0
DA:7275,0
DA:7277,0
DA:7278,0
DA:7280,0
DA:7281,0
DA:7283,0
DA:7284,0
DA:7288,0
DA:7289,0
DA:7290,0
DA:7292,0
DA:7304,2
DA:7310,1
DA:7311,1
DA:7312,2
DA:7313,2
DA:7315,1
DA:7316,1
DA:7318,0
DA:7319,0
DA:7323,4
DA:7324,4
DA:7325,4
DA:7326,0
DA:7327,0
DA:7328,0
DA:7329,2
DA:7330,2
DA:7331,2
DA:7332,0
DA:7333,0
DA:7334,0
DA:7343,11
DA:7345,11
DA:7346,1
DA:7347,11
DA:7351,3
DA:7352,3
DA:7354,6
DA:7355,6
DA:7357,1
DA:7358,1
DA:7359,1
DA:7360,1
DA:7361,1
DA:7362,0
DA:7363,0
DA:7375,0
DA:7376,0
DA:7377,0
DA:7378,0
DA:7379,0
DA:7380,0
DA:7381,0
DA:7383,0
DA:7384,0
DA:7407,0
DA:7408,0
DA:7409,0
DA:7411,0
DA:7412,0
DA:7413,0
DA:7416,0
DA:7417,0
DA:7419,0
DA:7420,0
DA:7421,0
DA:7423,0
DA:7425,0
DA:7428,0
DA:7429,0
DA:7430,0
DA:7431,0
DA:7433,0
DA:7439,0
DA:7440,0
DA:7441,0
DA:7442,0
DA:7443,0
DA:7444,0
DA:7446,0
DA:7448,0
DA:7449,0
DA:7454,0
DA:7455,0
DA:7456,0
DA:7459,0
DA:7460,0
DA:7461,0
DA:7462,0
DA:7464,0
DA:7465,0
DA:7470,1
DA:7471,1
DA:7472,1
DA:7474,1
DA:7475,1
DA:7479,3
DA:7480,3
DA:7482,2
DA:7483,2
DA:7492,1
DA:7497,3
DA:7498,1
DA:7499,2
DA:7502,6
DA:7503,6
DA:7505,0
DA:7506,0
DA:7508,0
DA:7509,0
DA:7510,0
DA:7511,0
DA:7513,2
DA:7514,2
DA:7515,2
DA:7518,0
DA:7519,0
DA:7523,1
DA:7524,1
DA:7525,1
DA:7526,1
DA:7527,1
DA:7528,1
DA:7529,1
DA:7530,1
DA:7531,1
DA:7536,2
DA:7537,2
DA:7540,2
DA:7541,4
DA:7542,0
DA:7543,4
DA:7546,0
DA:7547,0
DA:7548,0
DA:7549,0
DA:7550,0
DA:7551,0
DA:7553,0
DA:7566,7
DA:7567,7
DA:7568,1
DA:7569,7
DA:7571,6
DA:7572,6
DA:7575,1
DA:7576,1
DA:7577,1
DA:7578,1
DA:7588,0
DA:7592,0
DA:7593,0
DA:7595,0
DA:7596,0
DA:7597,0
DA:7686,0
DA:7688,0
DA:7689,0
DA:7691,0
DA:7692,0
DA:7693,0
DA:7694,0
DA:7695,0
DA:7696,0
DA:7697,0
DA:7699,0
DA:7700,0
DA:7701,0
DA:7702,0
DA:7704,0
DA:7707,0
DA:7708,0
DA:7709,0
DA:7713,0
DA:7714,0
DA:7715,0
DA:7718,0
DA:7719,0
DA:7721,0
DA:7722,0
DA:7723,0
DA:7724,0
DA:7726,0
DA:7729,0
DA:7747,0
DA:7748,0
DA:7749,0
DA:7751,0
DA:7752,0
DA:7753,0
DA:7754,0
DA:7767,0
DA:7769,0
DA:7771,0
DA:7772,0
DA:7774,0
DA:7775,0
DA:7776,0
DA:7777,0
DA:7779,0
DA:7782,0
DA:7783,0
DA:7792,0
DA:7795,0
DA:7796,0
DA:7797,0
DA:7799,0
DA:7800,0
DA:7801,0
DA:7802,0
DA:7803,0
DA:7804,0
DA:7805,0
DA:7807,0
DA:7810,0
DA:7811,0
DA:7812,0
DA:7813,0
DA:7814,0
DA:7815,0
DA:7817,0
DA:7825,0
DA:7827,0
DA:7837,10
DA:7844,10
DA:7845,10
DA:7847,1
DA:7849,4
DA:7851,4
DA:7852,4
DA:7854,15
DA:7857,0
DA:7858,0
DA:7862,12
DA:7863,12
DA:7866,8
DA:7867,8
DA:7870,0
DA:7871,0
DA:7874,4
DA:7875,4
DA:7878,0
DA:7879,0
DA:7880,0
DA:7882,0
DA:7884,0
DA:7885,0
DA:7886,0
DA:7888,0
DA:7891,0
DA:7892,0
DA:7895,0
DA:7896,0
DA:7899,0
DA:7900,0
DA:7902,0
DA:7903,0
DA:7906,0
DA:7907,0
DA:7910,4
DA:7911,4
DA:7912,4
DA:7914,0
DA:7915,0
DA:7916,0
DA:7927,6
DA:7928,18
DA:7929,12
DA:7930,6
DA:7931,0
DA:7932,6
DA:7933,0
DA:7934,6
DA:7935,0
DA:7936,6
DA:7937,0
DA:7938,6
DA:7939,0
DA:7941,6
DA:7943,2
DA:7944,2
DA:7946,2
DA:7947,2
DA:7949,0
DA:7950,0
DA:7951,0
DA:7952,0
DA:7955,0
DA:7956,0
DA:7958,0
DA:7960,2
DA:7962,2
DA:7968,2
DA:7971,2
DA:7972,4
DA:7973,2
DA:7974,37
DA:7975,35
DA:7976,35
DA:7977,2
DA:7978,2
DA:7980,0
DA:7983,33
DA:7984,2
DA:7985,2
DA:7986,0
DA:7987,2
DA:7988,2
DA:7990,2
DA:7991,2
DA:7992,2
DA:7995,31
DA:7998,2
DA:7999,0
DA:8000,0
DA:8003,4
DA:8004,4
DA:8007,2
DA:8009,2
DA:8010,2
DA:8012,2
DA:8013,4
DA:8014,2
DA:8015,2
DA:8016,2
DA:8017,2
DA:8018,2
DA:8019,2
DA:8020,2
DA:8022,2
DA:8031,2
DA:8033,2
DA:8034,2
DA:8036,15
DA:8044,15
DA:8045,15
DA:8047,0
DA:8048,0
DA:8050,0
DA:8051,0
DA:8053,2
DA:8054,2
DA:8056,2
DA:8057,2
DA:8060,2
DA:8062,7
DA:8064,7
DA:8065,7
DA:8067,0
DA:8068,0
DA:8069,0
DA:8070,0
DA:8073,0
DA:8074,0
DA:8075,0
DA:8076,0
DA:8077,0
DA:8078,0
DA:8079,0
DA:8080,0
DA:8081,0
DA:8082,0
DA:8083,0
DA:8085,2
DA:8086,2
DA:8087,2
DA:8089,0
DA:8090,0
DA:8091,0
DA:8092,0
DA:8095,3
DA:8096,3
DA:8098,0
DA:8099,0
DA:8100,0
DA:8101,0
DA:8104,8
DA:8106,8
DA:8116,1
DA:8126,1
DA:8127,1
DA:8129,0
DA:8130,0
DA:8131,0
DA:8132,0
DA:8134,0
DA:8135,0
DA:8136,0
DA:8138,0
DA:8141,1
DA:8150,0
DA:8156,0
DA:8157,0
DA:8164,0
DA:8165,0
DA:8167,0
DA:8168,0
DA:8169,0
DA:8170,0
DA:8171,0
DA:8172,0
DA:8174,0
DA:8175,0
DA:8176,0
DA:8235,0
DA:8236,0
DA:8237,0
DA:8238,0
DA:8240,0
DA:8241,0
DA:8242,0
DA:8243,0
DA:8246,0
DA:8247,0
DA:8248,0
DA:8249,0
DA:8250,0
DA:8251,0
DA:8252,0
DA:8253,0
DA:8254,0
DA:8255,0
DA:8256,0
DA:8257,0
DA:8258,0
DA:8259,0
DA:8261,0
DA:8263,0
DA:8264,0
DA:8265,0
DA:8268,0
DA:8269,0
DA:8270,0
DA:8271,0
DA:8272,0
DA:8273,0
DA:8277,0
DA:8278,0
DA:8280,0
DA:8281,0
DA:8282,0
DA:8283,0
DA:8284,0
DA:8285,0
DA:8286,0
DA:8290,0
DA:8291,0
DA:8292,0
DA:8293,0
DA:8294,0
DA:8295,0
DA:8296,0
DA:8297,0
DA:8298,0
DA:8299,0
DA:8300,0
DA:8301,0
DA:8334,6
DA:8336,6
DA:8337,6
DA:8342,3
DA:8343,3
DA:8344,3
DA:8345,3
DA:8346,3
DA:8348,0
DA:8349,0
DA:8351,3
DA:8352,3
DA:8368,3
DA:8369,3
DA:8371,8
DA:8372,8
DA:8374,0
DA:8375,0
DA:8377,0
DA:8378,0
DA:8380,0
DA:8381,0
DA:8383,32
DA:8384,32
DA:8386,3
DA:8387,3
DA:8388,3
DA:8389,3
DA:8390,3
DA:8391,3
DA:8392,3
DA:8394,6
DA:8396,6
DA:8397,6
DA:8399,6
DA:8402,0
DA:8403,0
DA:8404,0
DA:8405,0
DA:8406,0
DA:8407,0
DA:8408,0
DA:8409,0
DA:8411,0
DA:8413,0
DA:8416,0
DA:8418,0
DA:8419,0
DA:8421,0
DA:8422,0
DA:8423,0
DA:8424,0
DA:8425,0
DA:8428,2
DA:8429,8
DA:8431,8
DA:8432,8
DA:8433,0
DA:8434,0
DA:8436,0
DA:8437,0
DA:8439,0
DA:8440,0
DA:8443,3
DA:8444,3
DA:8445,0
DA:8446,3
DA:8447,0
DA:8448,0
DA:8451,0
DA:8455,0
DA:8457,0
DA:8460,0
DA:8461,0
DA:8462,0
DA:8463,0
DA:8464,0
DA:8465,0
DA:8473,2
DA:8479,2
DA:8480,2
DA:8482,0
DA:8484,0
DA:8486,0
DA:8487,0
DA:8489,0
DA:8490,0
DA:8491,0
DA:8492,0
DA:8493,0
DA:8495,0
DA:8497,0
DA:8500,0
DA:8501,0
DA:8569,0
DA:8570,0
DA:8571,0
DA:8573,0
DA:8577,0
DA:8579,0
DA:8581,0
DA:8613,0
DA:8615,0
DA:8616,0
DA:8627,1
DA:8635,0
DA:8641,0
DA:8642,0
DA:8647,0
DA:8650,0
DA:8651,0
DA:8652,0
DA:8653,0
DA:8656,0
DA:8657,0
DA:8658,0
DA:8659,0
DA:8660,0
DA:8661,0
DA:8665,0
DA:8666,0
DA:8667,0
DA:8668,0
DA:8669,0
DA:8670,0
DA:8671,0
DA:8672,0
DA:8673,0
DA:8675,0
DA:8676,0
DA:8677,0
DA:8679,0
DA:8681,0
DA:8683,0
DA:8685,0
DA:8686,0
DA:8687,0
DA:8688,0
DA:8689,0
DA:8692,0
DA:8693,0
DA:8696,0
DA:8697,0
DA:8700,0
DA:8702,0
DA:8705,0
DA:8707,0
DA:8710,0
DA:8711,0
DA:8712,0
DA:8713,0
DA:8714,0
DA:8715,0
DA:8718,0
DA:8719,0
DA:8720,0
DA:8721,0
DA:8722,0
DA:8723,0
DA:8726,0
DA:8727,0
DA:8731,2
DA:8732,2
DA:8733,4
DA:8734,2
DA:8736,2
DA:8737,2
DA:8738,2
DA:8739,2
DA:8740,0
DA:8741,2
DA:8743,2
DA:8746,2
DA:8747,2
DA:8749,0
DA:8750,0
DA:8753,0
DA:8754,0
DA:8757,0
DA:8758,0
DA:8759,0
DA:8760,0
DA:8761,0
DA:8762,0
DA:8763,0
DA:8764,0
DA:8765,0
DA:8766,0
DA:8767,0
DA:8768,0
DA:8769,0
DA:8770,0
DA:8773,0
DA:8774,0
DA:8777,0
DA:8778,0
DA:8782,0
DA:8783,0
DA:8784,0
DA:8785,0
DA:8786,0
DA:8787,0
DA:8789,0
DA:8790,0
DA:8791,0
DA:8792,0
DA:8793,0
DA:8794,0
DA:8799,0
DA:8800,0
DA:8827,4
DA:8828,4
DA:8830,12
DA:8832,4
DA:8839,4
DA:8840,4
DA:8842,0
DA:8843,0
DA:8844,0
DA:8846,4
DA:8847,4
DA:8848,4
DA:8851,4
DA:8852,4
DA:8853,4
DA:8854,4
DA:8856,0
DA:8857,0
DA:8858,0
DA:8859,0
DA:8860,0
DA:8862,0
DA:8863,0
DA:8864,0
DA:8865,0
DA:8867,0
DA:8868,0
DA:8869,0
DA:8871,0
DA:8872,0
DA:8874,0
DA:8876,0
DA:8877,0
DA:8878,0
DA:8879,0
DA:8881,0
DA:8882,0
DA:8883,0
DA:8884,0
DA:8886,0
DA:8887,0
DA:8888,0
DA:8890,0
DA:8891,0
DA:8892,0
DA:8893,0
DA:8895,4
DA:8897,4
DA:8899,4
DA:8900,0
DA:8901,0
DA:8902,0
DA:8903,0
DA:8905,4
DA:8907,4
DA:8917,4
DA:8918,0
DA:8919,4
DA:8921,4
DA:8922,0
DA:8924,0
DA:8926,0
DA:8935,4
DA:8937,4
DA:8938,4
DA:8941,4
DA:8942,0
DA:8945,4
DA:8946,4
DA:8947,4
DA:8950,0
DA:8951,0
DA:8952,0
DA:8966,1
DA:8982,1
DA:8984,0
DA:8985,0
DA:8986,0
DA:8987,0
DA:8989,0
DA:8992,1
DA:8993,1
DA:8994,1
DA:8997,0
DA:8998,0
DA:8999,0
DA:9000,0
DA:9001,0
DA:9004,1
DA:9007,0
DA:9009,0
DA:9010,0
DA:9011,0
DA:9012,0
DA:9014,0
DA:9015,0
DA:9016,0
DA:9017,0
DA:9018,0
DA:9019,0
DA:9021,0
DA:9023,1
DA:9024,2
DA:9025,1
DA:9029,1
DA:9030,1
DA:9032,0
DA:9034,0
DA:9036,0
DA:9037,0
DA:9038,0
DA:9039,0
DA:9041,0
DA:9052,0
DA:9054,0
DA:9055,0
DA:9056,0
DA:9057,0
DA:9059,0
DA:9061,0
DA:9062,0
DA:9064,0
DA:9067,0
DA:9069,0
DA:9070,0
DA:9072,0
DA:9073,0
DA:9074,0
DA:9075,0
DA:9076,0
DA:9077,0
DA:9078,0
DA:9079,0
DA:9080,0
DA:9081,0
DA:9084,0
DA:9086,0
DA:9087,0
DA:9090,0
DA:9092,0
DA:9093,0
DA:9096,0
DA:9098,0
DA:9099,0
DA:9102,0
DA:9104,0
DA:9105,0
DA:9110,0
DA:9111,0
DA:9113,0
DA:9114,0
DA:9116,0
DA:9117,0
DA:9119,0
DA:9120,0
DA:9130,0
DA:9135,0
DA:9136,0
DA:9137,0
DA:9141,0
DA:9142,0
DA:9145,0
DA:9146,0
DA:9149,0
DA:9150,0
DA:9152,0
DA:9153,0
DA:9156,0
DA:9157,0
DA:9159,0
DA:9160,0
DA:9163,0
DA:9164,0
DA:9166,0
DA:9167,0
DA:9170,0
DA:9171,0
DA:9173,0
DA:9174,0
DA:9177,0
DA:9178,0
DA:9180,0
DA:9181,0
DA:9184,0
DA:9185,0
DA:9188,0
DA:9189,0
DA:9190,0
DA:9193,0
DA:9194,0
DA:9197,0
DA:9198,0
DA:9201,0
DA:9202,0
DA:9204,0
DA:9205,0
DA:9208,0
DA:9209,0
DA:9211,0
DA:9212,0
DA:9215,0
DA:9216,0
DA:9218,0
DA:9219,0
DA:9222,0
DA:9223,0
DA:9225,0
DA:9226,0
DA:9229,0
DA:9230,0
DA:9232,0
DA:9233,0
DA:9238,1
DA:9239,1
DA:9241,1
DA:9242,0
DA:9243,0
DA:9244,0
DA:9245,0
DA:9246,0
DA:9247,0
DA:9250,0
DA:9251,0
DA:9254,1
DA:9256,1
DA:9274,0
DA:9276,0
DA:9278,0
DA:9279,0
DA:9281,0
DA:9282,0
DA:9287,0
DA:9289,0
DA:9290,0
DA:9291,0
DA:9292,0
DA:9293,0
DA:9294,0
DA:9296,0
DA:9297,0
DA:9298,0
DA:9299,0
DA:9300,0
DA:9301,0
DA:9303,0
DA:9304,0
DA:9305,0
DA:9306,0
DA:9307,0
DA:9308,0
DA:9309,0
DA:9310,0
DA:9311,0
DA:9312,0
DA:9313,0
DA:9314,0
DA:9315,0
DA:9316,0
DA:9318,0
DA:9321,0
DA:9337,4
DA:9338,8
DA:9345,2
DA:9365,0
DA:9366,0
DA:9367,0
DA:9368,0
DA:9379,1
DA:9381,1
DA:9383,1
DA:9384,1
DA:9387,2
DA:9388,2
DA:9391,1
DA:9392,1
DA:9394,2
DA:9396,2
DA:9397,2
DA:9398,4
DA:9399,2
DA:9400,2
DA:9401,2
DA:9402,2
DA:9405,0
DA:9409,0
DA:9410,0
DA:9411,0
DA:9412,0
DA:9415,0
DA:9417,2
DA:9418,4
DA:9419,2
DA:9421,0
DA:9423,4
DA:9424,4
DA:9425,4
DA:9426,4
DA:9432,4
DA:9433,4
DA:9435,2
DA:9436,2
DA:9437,2
DA:9438,2
DA:9439,2
DA:9440,2
DA:9441,2
DA:9442,2
DA:9443,2
DA:9444,2
DA:9445,2
DA:9446,2
DA:9448,2
DA:9449,2
DA:9450,2
DA:9451,2
DA:9452,1
DA:9453,1
DA:9454,1
DA:9455,1
DA:9456,1
DA:9457,1
DA:9458,1
DA:9459,1
DA:9460,1
DA:9461,1
DA:9462,1
DA:9465,0
DA:9467,4
DA:9468,4
DA:9469,4
DA:9471,0
DA:9472,4
DA:9491,0
DA:9493,0
DA:9494,0
DA:9495,0
DA:9497,0
DA:9541,12
DA:9554,1
DA:9555,1
DA:9558,0
DA:9559,0
DA:9565,4
DA:9566,4
DA:9567,4
DA:9610,16
DA:9614,16
DA:9616,16
DA:9617,16
DA:9619,16
DA:9624,1243
DA:9625,1227
DA:9626,1227
DA:9627,0
DA:9628,0
DA:9632,0
DA:9633,0
DA:9635,0
DA:9636,0
DA:9639,0
DA:9640,0
DA:9642,0
DA:9643,0
DA:9648,1227
DA:9650,0
DA:9651,0
DA:9654,1227
DA:9657,16
DA:9659,16
DA:9660,16
DA:9661,16
DA:9674,7
DA:9675,7
DA:9676,7
DA:9683,7
DA:9684,7
DA:9685,7
DA:9686,7
DA:9688,4
DA:9689,4
DA:9690,4
DA:9694,0
DA:9695,0
DA:9696,0
DA:9711,1
DA:9714,1
DA:9716,1
DA:9717,1
DA:9719,2
DA:9720,2
DA:9721,0
DA:9722,1
DA:9724,8
DA:9725,8
DA:9726,8
DA:9727,8
DA:9728,8
DA:9729,8
DA:9730,8
DA:9731,8
DA:9734,7
DA:9735,7
DA:9736,7
DA:9737,7
DA:9740,8
DA:9741,8
DA:9742,8
DA:9743,8
DA:9744,1
DA:9745,1
DA:9748,7
DA:9750,8
DA:9751,8
DA:9752,8
DA:9755,13
DA:9756,13
DA:9757,13
DA:9758,13
DA:9761,0
DA:9762,0
DA:9763,0
DA:9767,5
DA:9768,5
DA:9769,5
DA:9770,5
DA:9773,4
DA:9774,4
DA:9775,3
DA:9776,3
DA:9777,3
DA:9778,0
DA:9779,3
DA:9780,3
DA:9782,4
DA:9792,0
DA:9793,0
DA:9794,0
DA:9802,11
DA:9803,11
DA:9804,7
DA:9805,7
DA:9807,11
DA:9813,1
DA:9814,1
DA:9815,1
DA:9817,16
DA:9818,16
DA:9819,3
DA:9820,3
DA:9822,16
DA:9850,0
DA:9852,0
DA:9853,0
DA:9855,0
DA:9856,0
DA:9860,0
DA:9861,0
DA:9864,0
DA:9865,0
DA:9868,0
DA:9870,0
DA:9871,0
DA:9872,0
DA:9876,0
DA:9877,0
DA:9878,0
DA:9880,0
DA:9881,0
DA:9882,0
DA:9883,0
DA:9884,0
DA:9885,0
DA:9886,0
DA:9887,0
DA:9888,0
DA:9890,0
DA:9891,0
DA:9892,0
DA:9893,0
DA:9894,0
DA:9896,0
DA:9897,0
DA:9898,0
DA:9899,0
DA:9900,0
DA:9901,0
DA:9903,0
DA:9905,0
DA:9906,0
DA:9907,0
DA:9908,0
DA:9910,0
DA:9911,0
DA:9912,0
DA:9913,0
DA:9914,0
DA:9915,0
DA:9916,0
DA:9917,0
DA:9919,0
DA:9921,0
DA:9923,0
DA:9924,0
DA:9927,0
DA:9928,0
DA:9931,0
DA:9933,0
DA:9934,0
DA:9936,0
DA:9942,0
DA:9943,0
DA:9946,0
DA:9947,0
DA:9948,0
DA:9949,0
DA:9951,0
DA:9954,0
DA:9956,0
DA:9960,0
DA:9962,0
DA:9963,0
DA:9964,0
DA:9965,0
DA:9966,0
DA:9968,0
DA:9969,0
DA:9970,0
DA:9971,0
DA:9972,0
DA:9975,0
DA:9976,0
DA:9979,0
DA:9981,0
DA:9982,0
DA:9983,0
DA:9984,0
DA:9985,0
DA:9987,0
DA:9990,0
DA:9991,0
DA:9993,0
DA:9996,0
DA:9997,0
DA:9998,0
DA:9999,0
DA:10000,0
DA:10001,0
DA:10002,0
DA:10004,0
DA:10005,0
DA:10007,0
DA:10009,0
DA:10011,0
DA:10012,0
DA:10013,0
DA:10014,0
DA:10016,0
DA:10017,0
DA:10019,0
DA:10020,0
DA:10021,0
DA:10022,0
DA:10024,0
DA:10025,0
DA:10027,0
DA:10028,0
DA:10031,0
DA:10032,0
DA:10033,0
DA:10034,0
DA:10035,0
DA:10037,0
DA:10038,0
DA:10040,0
DA:10041,0
DA:10042,0
DA:10043,0
DA:10044,0
DA:10052,1
DA:10064,1
DA:10068,1
DA:10069,1
DA:10076,1
DA:10080,1
DA:10085,1
DA:10087,1
DA:10094,1
DA:10096,1
DA:10098,1
DA:10099,1
DA:10103,0
DA:10104,0
DA:10107,0
DA:10109,1
DA:10110,1
DA:10111,1
DA:10112,1
DA:10114,1
DA:10115,1
DA:10116,1
DA:10117,1
DA:10118,1
DA:10119,1
DA:10120,1
DA:10122,4
DA:10123,4
DA:10124,0
DA:10125,4
DA:10128,2
DA:10129,2
DA:10130,2
DA:10131,2
DA:10132,2
DA:10134,1
DA:10135,1
DA:10136,1
DA:10137,1
DA:10138,1
DA:10140,1
DA:10141,1
DA:10142,1
DA:10144,1
DA:10145,1
DA:10146,1
DA:10147,1
DA:10148,1
DA:10149,1
DA:10150,1
DA:10151,1
DA:10152,1
DA:10153,0
DA:10155,1
DA:10156,1
DA:10159,3
DA:10160,1
DA:10163,2
DA:10165,1
DA:10166,1
DA:10167,1
DA:10169,2
DA:10170,2
DA:10174,2
DA:10175,2
DA:10177,2
DA:10179,2
DA:10180,2
DA:10181,2
DA:10183,2
DA:10184,2
DA:10186,2
DA:10189,2
DA:10190,2
DA:10191,0
DA:10193,4
DA:10194,2
DA:10195,0
DA:10196,2
DA:10197,2
DA:10198,0
DA:10199,0
DA:10202,2
DA:10203,2
DA:10205,2
DA:10207,2
DA:10209,2
DA:10210,2
DA:10211,2
DA:10212,0
DA:10214,2
DA:10215,2
DA:10216,2
DA:10219,0
DA:10220,0
DA:10222,2
DA:10223,2
DA:10225,2
DA:10226,6
DA:10227,2
DA:10230,4
DA:10231,2
DA:10232,4
DA:10233,4
DA:10234,4
DA:10235,0
DA:10236,0
DA:10239,0
DA:10240,0
DA:10242,0
DA:10243,0
DA:10245,0
DA:10246,0
DA:10248,0
DA:10249,0
DA:10258,0
DA:10259,0
DA:10262,0
DA:10264,0
DA:10265,0
DA:10267,0
DA:10268,0
DA:10269,0
DA:10270,0
DA:10271,0
DA:10272,0
DA:10275,0
DA:10276,0
DA:10278,0
DA:10279,0
DA:10281,4
DA:10290,1
DA:10305,0
DA:10310,0
DA:10315,0
DA:10317,0
DA:10322,0
DA:10324,0
DA:10325,0
DA:10328,0
DA:10329,0
DA:10332,0
DA:10333,0
DA:10334,0
DA:10336,0
DA:10337,0
DA:10339,0
DA:10340,0
DA:10342,0
DA:10345,0
DA:10346,0
DA:10347,0
DA:10348,0
DA:10351,0
DA:10353,0
DA:10354,0
DA:10355,0
DA:10356,0
DA:10359,0
DA:10360,0
DA:10361,0
DA:10362,0
DA:10363,0
DA:10364,0
DA:10365,0
DA:10366,0
DA:10367,0
DA:10368,0
DA:10370,0
DA:10371,0
DA:10373,0
DA:10374,0
DA:10376,0
DA:10377,0
DA:10379,0
DA:10380,0
DA:10382,0
DA:10383,0
DA:10384,0
DA:10385,0
DA:10386,0
DA:10387,0
DA:10388,0
DA:10389,0
DA:10390,0
DA:10391,0
DA:10393,0
DA:10394,0
DA:10395,0
DA:10396,0
DA:10397,0
DA:10398,0
DA:10399,0
DA:10400,0
DA:10404,0
DA:10407,0
DA:10414,0
DA:10416,0
DA:10418,0
DA:10419,0
DA:10421,0
DA:10422,0
DA:10423,0
DA:10424,0
DA:10425,0
DA:10427,0
DA:10428,0
DA:10429,0
DA:10432,0
DA:10433,0
DA:10435,0
DA:10436,0
DA:10437,0
DA:10438,0
DA:10439,0
DA:10441,0
DA:10442,0
DA:10443,0
DA:10444,0
DA:10446,0
DA:10447,0
DA:10448,0
DA:10449,0
DA:10451,0
DA:10452,0
DA:10453,0
DA:10454,0
DA:10456,0
DA:10457,0
DA:10459,0
DA:10460,0
DA:10462,0
DA:10463,0
DA:10464,0
DA:10465,0
DA:10466,0
DA:10467,0
DA:10468,0
DA:10473,0
DA:10474,0
DA:10475,0
DA:10477,0
DA:10479,0
DA:10480,0
DA:10481,0
DA:10482,0
DA:10483,0
DA:10484,0
DA:10485,0
DA:10486,0
DA:10489,0
DA:10491,0
DA:10492,0
DA:10495,0
DA:10496,0
DA:10497,0
DA:10498,0
DA:10500,0
DA:10501,0
DA:10502,0
DA:10503,0
DA:10504,0
DA:10505,0
DA:10506,0
DA:10508,0
DA:10509,0
DA:10510,0
DA:10511,0
DA:10512,0
DA:10513,0
DA:10515,0
DA:10516,0
DA:10517,0
DA:10518,0
DA:10519,0
DA:10523,0
DA:10524,0
DA:10526,0
DA:10527,0
DA:10528,0
DA:10529,0
DA:10530,0
DA:10543,0
DA:10545,0
DA:10546,0
DA:10547,0
DA:10548,0
DA:10550,0
DA:10551,0
DA:10552,0
DA:10554,0
DA:10555,0
DA:10556,0
DA:10557,0
DA:10558,0
DA:10559,0
DA:10560,0
DA:10562,0
DA:10563,0
DA:10565,0
DA:10566,0
DA:10567,0
DA:10568,0
DA:10569,0
DA:10570,0
DA:10572,0
DA:10573,0
DA:10574,0
DA:10575,0
DA:10577,0
DA:10578,0
DA:10581,0
DA:10582,0
DA:10583,0
DA:10584,0
DA:10587,0
DA:10589,0
DA:10590,0
DA:10591,0
DA:10592,0
DA:10594,0
DA:10595,0
DA:10597,0
DA:10598,0
DA:10599,0
DA:10600,0
DA:10601,0
DA:10602,0
DA:10604,0
DA:10605,0
DA:10607,0
DA:10611,0
DA:10612,0
DA:10613,0
DA:10614,0
DA:10616,0
DA:10618,0
DA:10619,0
DA:10620,0
DA:10622,0
DA:10624,0
DA:10626,0
DA:10627,0
DA:10628,0
DA:10629,0
DA:10630,0
DA:10631,0
DA:10632,0
DA:10633,0
DA:10634,0
DA:10635,0
DA:10636,0
DA:10638,0
DA:10639,0
DA:10648,0
DA:10649,0
DA:10650,0
DA:10652,0
DA:10653,0
DA:10654,0
DA:10655,0
DA:10656,0
DA:10657,0
DA:10661,0
DA:10664,0
DA:10667,0
DA:10670,0
DA:10673,0
DA:10675,0
DA:10676,0
DA:10678,0
DA:10679,0
DA:10680,0
DA:10681,0
DA:10682,0
DA:10683,0
DA:10684,0
DA:10685,0
DA:10687,0
DA:10689,0
DA:10690,0
DA:10691,0
DA:10692,0
DA:10694,0
DA:10695,0
DA:10696,0
DA:10698,0
DA:10699,0
DA:10700,0
DA:10702,0
DA:10703,0
DA:10704,0
DA:10705,0
DA:10706,0
DA:10708,0
DA:10711,0
DA:10712,0
DA:10713,0
DA:10714,0
DA:10715,0
DA:10716,0
DA:10717,0
DA:10718,0
DA:10719,0
DA:10721,0
DA:10722,0
DA:10723,0
DA:10724,0
DA:10726,0
DA:10729,0
DA:10731,0
DA:10732,0
DA:10733,0
DA:10734,0
DA:10735,0
DA:10741,1
DA:10752,0
DA:10753,0
DA:10754,0
DA:10758,0
DA:10759,0
DA:10762,0
DA:10763,0
DA:10764,0
DA:10765,0
DA:10768,0
DA:10769,0
DA:10770,0
DA:10772,0
DA:10773,0
DA:10775,0
DA:10776,0
DA:10778,0
DA:10781,0
DA:10782,0
DA:10783,0
DA:10784,0
DA:10787,0
DA:10788,0
DA:10790,0
DA:10791,0
DA:10794,0
DA:10795,0
DA:10796,0
DA:10797,0
DA:10798,0
DA:10801,0
DA:10804,0
DA:10809,0
DA:10810,0
DA:10811,0
DA:10813,0
DA:10814,0
DA:10816,0
DA:10818,0
DA:10820,0
DA:10821,0
DA:10822,0
DA:10823,0
DA:10824,0
DA:10826,0
DA:10827,0
DA:10829,0
DA:10830,0
DA:10832,0
DA:10833,0
DA:10834,0
DA:10835,0
DA:10836,0
DA:10838,0
DA:10839,0
DA:10840,0
DA:10841,0
DA:10842,0
DA:10843,0
DA:10845,0
DA:10846,0
DA:10847,0
DA:10848,0
DA:10849,0
DA:10850,0
DA:10852,0
DA:10853,0
DA:10854,0
DA:10855,0
DA:10856,0
DA:10858,0
DA:10859,0
DA:10860,0
DA:10861,0
DA:10863,0
DA:10864,0
DA:10865,0
DA:10866,0
DA:10868,0
DA:10869,0
DA:10870,0
DA:10871,0
DA:10876,0
DA:10877,0
DA:10879,0
DA:10884,0
DA:10890,0
DA:10891,0
DA:10894,0
DA:10895,0
DA:10896,0
DA:10897,0
DA:10899,0
DA:10900,0
DA:10902,0
DA:10903,0
DA:10905,0
DA:10907,0
DA:10909,0
DA:10910,0
DA:10911,0
DA:10913,0
DA:10914,0
DA:10915,0
DA:10917,0
DA:10918,0
DA:10920,0
DA:10922,0
DA:10924,0
DA:10925,0
DA:10926,0
DA:10928,0
DA:10930,0
DA:10931,0
DA:10933,0
DA:10934,0
DA:10936,0
DA:10938,0
DA:10940,0
DA:10941,0
DA:10942,0
DA:10943,0
DA:10945,0
DA:10947,0
DA:10948,0
DA:10949,0
DA:10952,0
DA:10953,0
DA:10956,0
DA:10957,0
DA:10960,0
DA:10962,0
DA:10963,0
DA:10964,0
DA:10965,0
DA:10966,0
DA:10988,0
DA:10989,0
DA:10992,0
DA:10993,0
DA:10994,0
DA:10996,0
DA:10997,0
DA:10999,0
DA:11000,0
DA:11002,0
DA:11003,0
DA:11004,0
DA:11005,0
DA:11007,0
DA:11009,0
DA:11010,0
DA:11011,0
DA:11013,0
DA:11014,0
DA:11016,0
DA:11017,0
DA:11020,0
DA:11022,0
DA:11023,0
DA:11024,0
DA:11026,0
DA:11029,1
DA:11036,21
DA:11037,20
DA:11038,1
DA:11039,0
DA:11040,2
DA:11041,0
DA:11042,0
DA:11043,1
DA:11044,1
DA:11045,2
DA:11046,1
DA:11047,1
DA:11048,1
DA:11049,0
DA:11050,1
DA:11051,0
DA:11052,4
DA:11053,1
DA:11054,1
DA:11055,10
DA:11056,6
DA:11057,4
DA:11058,2
DA:11059,2
DA:11060,4
DA:11061,1
DA:11063,0
DA:11064,0
DA:11065,0
DA:11066,1
DA:11067,1
DA:11068,1
DA:11069,0
DA:11070,2
DA:11071,1
DA:11072,4
DA:11073,0
DA:11074,0
DA:11075,0
DA:11076,2
DA:11077,0
DA:11078,2
DA:11079,2
DA:11081,0
DA:11084,4
DA:11085,4
DA:11086,8
DA:11087,0
DA:11104,1
DA:11105,1
DA:11106,1
DA:11279,3
LF:3580
LH:1413
end_of_record
SF:/opt/Programs/buildroot-at91/output/host/usr/arm-buildroot-linux-gnueabi/include/c++/4.8.2/arm-buildroot-linux-gnueabi/bits/gthr-default.h
FN:247,_ZL18__gthread_active_pv
FNDA:0,_ZL18__gthread_active_pv
FNF:1
FNH:0
DA:247,0
DA:251,0
LF:2
LH:0
end_of_record
SF:/opt/Programs/buildroot-at91/output/host/usr/arm-buildroot-linux-gnueabi/include/c++/4.8.2/bits/alloc_traits.h
FN:253,_ZNSt16allocator_traitsISaIN5Catch14AssertionStatsEEE12_S_constructIS1_IRKS1_EEENSt9enable_ifIXsrNS3_18__construct_helperIT_IDpT0_EEE5valueEvE4typeERS2_PS9_DpOSA_
FN:253,_ZNSt16allocator_traitsISaIN5Catch5Clara6Parser5TokenEEE12_S_constructIS3_IS3_EEENSt9enable_ifIXsrNS5_18__construct_helperIT_IDpT0_EEE5valueEvE4typeERS4_PS9_DpOSA_
FN:253,_ZNSt16allocator_traitsISaIN5Catch3PtrINS0_22CumulativeReporterBase4NodeINS0_14TestGroupStatsENS3_INS0_13TestCaseStatsENS2_11SectionNodeEEEEEEEEE12_S_constructIS9_IRKS9_EEENSt9enable_ifIXsrNSB_18__construct_helperIT_IDpT0_EEE5valueEvE4typeERSA_PSH_DpOSI_
FN:253,_ZNSt16allocator_traitsISaISt13_Rb_tree_nodeISsEEE12_S_constructIS1_ISsEEENSt9enable_ifIXsrNS3_18__construct_helperIT_IDpT0_EEE5valueEvE4typeERS2_PS7_DpOS8_
FN:253,_ZNSt16allocator_traitsISaIPKN5Catch20IExceptionTranslatorEEE12_S_constructIS3_IRKS3_EEENSt9enable_ifIXsrNS5_18__construct_helperIT_IDpT0_EEE5valueEvE4typeERS4_PSB_DpOSC_
FN:253,_ZNSt16allocator_traitsISaIN5Catch14SectionEndInfoEEE12_S_constructIS1_IRKS1_EEENSt9enable_ifIXsrNS3_18__construct_helperIT_IDpT0_EEE5valueEvE4typeERS2_PS9_DpOSA_
FN:253,_ZNSt16allocator_traitsISaISt13_Rb_tree_nodeISsEEE12_S_constructIS1_IRKSsEEENSt9enable_ifIXsrNS3_18__construct_helperIT_IDpT0_EEE5valueEvE4typeERS2_PS9_DpOSA_
FN:253,_ZNSt16allocator_traitsISaIPN5Catch16TestCaseTracking8ITrackerEEE12_S_constructIS3_IS3_EEENSt9enable_ifIXsrNS5_18__construct_helperIT_IDpT0_EEE5valueEvE4typeERS4_PS9_DpOSA_
FN:253,_ZNSt16allocator_traitsISaISt13_Rb_tree_nodeISt4pairIKSsPN5Catch14IGeneratorInfoEEEEE12_S_constructIS7_IS1_ISsS5_EEEENSt9enable_ifIXsrNS9_18__construct_helperIT_IDpT0_EEE5valueEvE4typeERS8_PSE_DpOSF_
FN:253,_ZNSt16allocator_traitsISaIN5Catch3PtrINS0_16TestCaseTracking8ITrackerEEEEE12_S_constructIS4_IRKS4_EEENSt9enable_ifIXsrNS6_18__construct_helperIT_IDpT0_EEE5valueEvE4typeERS5_PSC_DpOSD_
FN:253,_ZNSt16allocator_traitsISaISt13_Rb_tree_nodeISt4pairIKSsN5Catch8TagAliasEEEEE12_S_constructIS6_IS1_IPKcS4_EEEENSt9enable_ifIXsrNS8_18__construct_helperIT_IDpT0_EEE5valueEvE4typeERS7_PSF_DpOSG_
FN:253,_ZNSt16allocator_traitsISaIN5Catch15ConsoleReporter13SummaryColumnEEE12_S_constructIS2_IS2_EEENSt9enable_ifIXsrNS4_18__construct_helperIT_IDpT0_EEE5valueEvE4typeERS3_PS8_DpOS9_
FN:253,_ZNSt16allocator_traitsISaIN5Catch11SectionInfoEEE12_S_constructIS1_IRKS1_EEENSt9enable_ifIXsrNS3_18__construct_helperIT_IDpT0_EEE5valueEvE4typeERS2_PS9_DpOSA_
FN:253,_ZNSt16allocator_traitsISaISt13_Rb_tree_nodeISt4pairIKSsN5Catch3PtrINS3_16IReporterFactoryEEEEEEE12_S_constructIS8_IS1_ISsS6_EEEENSt9enable_ifIXsrNSA_18__construct_helperIT_IDpT0_EEE5valueEvE4typeERS9_PSF_DpOSG_
FN:253,_ZNSt16allocator_traitsISaIN5Catch3PtrINS0_22CumulativeReporterBase11SectionNodeEEEEE12_S_constructIS4_IRKS4_EEENSt9enable_ifIXsrNS6_18__construct_helperIT_IDpT0_EEE5valueEvE4typeERS5_PSC_DpOSD_
FN:253,_ZNSt16allocator_traitsISaIN5Catch8TestCaseEEE12_S_constructIS1_IRKS1_EEENSt9enable_ifIXsrNS3_18__construct_helperIT_IDpT0_EEE5valueEvE4typeERS2_PS9_DpOSA_
FN:253,_ZNSt16allocator_traitsISaIN5Catch11MessageInfoEEE12_S_constructIS1_IRKS1_EEENSt9enable_ifIXsrNS3_18__construct_helperIT_IDpT0_EEE5valueEvE4typeERS2_PS9_DpOSA_
FN:253,_ZNSt16allocator_traitsISaIN5Catch3PtrINS0_8TestSpec7PatternEEEEE12_S_constructIS4_IRKS4_EEENSt9enable_ifIXsrNS6_18__construct_helperIT_IDpT0_EEE5valueEvE4typeERS5_PSC_DpOSD_
FN:253,_ZNSt16allocator_traitsISaIjEE12_S_constructIjIRKjEEENSt9enable_ifIXsrNS1_18__construct_helperIT_IDpT0_EEE5valueEvE4typeERS0_PS7_DpOS8_
FN:253,_ZNSt16allocator_traitsISaISsEE12_S_constructISsIRKSsEEENSt9enable_ifIXsrNS1_18__construct_helperIT_IDpT0_EEE5valueEvE4typeERS0_PS7_DpOS8_
FN:253,_ZNSt16allocator_traitsISaIN5Catch8TestSpec6FilterEEE12_S_constructIS2_IRKS2_EEENSt9enable_ifIXsrNS4_18__construct_helperIT_IDpT0_EEE5valueEvE4typeERS3_PSA_DpOSB_
FN:253,_ZNSt16allocator_traitsISaIPN5Catch14IGeneratorInfoEEE12_S_constructIS2_IRKS2_EEENSt9enable_ifIXsrNS4_18__construct_helperIT_IDpT0_EEE5valueEvE4typeERS3_PSA_DpOSB_
FN:253,_ZNSt16allocator_traitsISaISt13_Rb_tree_nodeIN5Catch8TestCaseEEEE12_S_constructIS3_IRKS2_EEENSt9enable_ifIXsrNS5_18__construct_helperIT_IDpT0_EEE5valueEvE4typeERS4_PSB_DpOSC_
FN:253,_ZNSt16allocator_traitsISaISt13_Rb_tree_nodeISt4pairIKSsN5Catch7TagInfoEEEEE12_S_constructIS6_IS1_ISsS4_EEEENSt9enable_ifIXsrNS8_18__construct_helperIT_IDpT0_EEE5valueEvE4typeERS7_PSD_DpOSE_
FN:253,_ZNSt16allocator_traitsISaISsEE12_S_constructISsISsEEENSt9enable_ifIXsrNS1_18__construct_helperIT_IDpT0_EEE5valueEvE4typeERS0_PS5_DpOS6_
FN:253,_ZNSt16allocator_traitsISaIN5Catch5Clara6Parser5TokenEEE12_S_constructIS3_IRKS3_EEENSt9enable_ifIXsrNS5_18__construct_helperIT_IDpT0_EEE5valueEvE4typeERS4_PSB_DpOSC_
FN:253,_ZNSt16allocator_traitsISaIN5Catch3PtrINS0_18IStreamingReporterEEEEE12_S_constructIS3_IRKS3_EEENSt9enable_ifIXsrNS5_18__construct_helperIT_IDpT0_EEE5valueEvE4typeERS4_PSB_DpOSC_
FN:253,_ZNSt16allocator_traitsISaIN5Catch5Clara11CommandLineINS0_10ConfigDataEE3ArgEEE12_S_constructIS5_IS5_EEENSt9enable_ifIXsrNS7_18__construct_helperIT_IDpT0_EEE5valueEvE4typeERS6_PSB_DpOSC_
FN:253,_ZNSt16allocator_traitsISaIN5Catch3PtrINS0_22CumulativeReporterBase4NodeINS0_13TestCaseStatsENS2_11SectionNodeEEEEEEE12_S_constructIS7_IRKS7_EEENSt9enable_ifIXsrNS9_18__construct_helperIT_IDpT0_EEE5valueEvE4typeERS8_PSF_DpOSG_
FN:253,_ZNSt16allocator_traitsISaIN5Catch3PtrINS0_16IReporterFactoryEEEEE12_S_constructIS3_IRKS3_EEENSt9enable_ifIXsrNS5_18__construct_helperIT_IDpT0_EEE5valueEvE4typeERS4_PSB_DpOSC_
FN:253,_ZNSt16allocator_traitsISaISt13_Rb_tree_nodeISt4pairIKSsPN5Catch18IGeneratorsForTestEEEEE12_S_constructIS7_IS1_ISsS5_EEEENSt9enable_ifIXsrNS9_18__construct_helperIT_IDpT0_EEE5valueEvE4typeERS8_PSE_DpOSF_
FN:253,_ZNSt16allocator_traitsISaIN5Catch3PtrINS0_22CumulativeReporterBase4NodeINS0_12TestRunStatsENS3_INS0_14TestGroupStatsENS3_INS0_13TestCaseStatsENS2_11SectionNodeEEEEEEEEEEE12_S_constructISB_IRKSB_EEENSt9enable_ifIXsrNSD_18__construct_helperIT_IDpT0_EEE5valueEvE4typeERSC_PSJ_DpOSK_
FN:280,_ZNSt16allocator_traitsISaIPKN5Catch20IExceptionTranslatorEEE10_S_destroyIS3_EENSt9enable_ifIXsrNS5_16__destroy_helperIT_EE5valueEvE4typeERS4_PS9_
FN:280,_ZNSt16allocator_traitsISaIN5Catch8TestSpec6FilterEEE10_S_destroyIS2_EENSt9enable_ifIXsrNS4_16__destroy_helperIT_EE5valueEvE4typeERS3_PS8_
FN:280,_ZNSt16allocator_traitsISaIN5Catch3PtrINS0_22CumulativeReporterBase4NodeINS0_13TestCaseStatsENS2_11SectionNodeEEEEEEE10_S_destroyIS7_EENSt9enable_ifIXsrNS9_16__destroy_helperIT_EE5valueEvE4typeERS8_PSD_
FN:280,_ZNSt16allocator_traitsISaIN5Catch3PtrINS0_22CumulativeReporterBase4NodeINS0_14TestGroupStatsENS3_INS0_13TestCaseStatsENS2_11SectionNodeEEEEEEEEE10_S_destroyIS9_EENSt9enable_ifIXsrNSB_16__destroy_helperIT_EE5valueEvE4typeERSA_PSF_
FN:280,_ZNSt16allocator_traitsISaIN5Catch3PtrINS0_16TestCaseTracking8ITrackerEEEEE10_S_destroyIS4_EENSt9enable_ifIXsrNS6_16__destroy_helperIT_EE5valueEvE4typeERS5_PSA_
FN:280,_ZNSt16allocator_traitsISaIN5Catch5Clara11CommandLineINS0_10ConfigDataEE3ArgEEE10_S_destroyIS5_EENSt9enable_ifIXsrNS7_16__destroy_helperIT_EE5valueEvE4typeERS6_PSB_
FN:280,_ZNSt16allocator_traitsISaIN5Catch15ConsoleReporter13SummaryColumnEEE10_S_destroyIS2_EENSt9enable_ifIXsrNS4_16__destroy_helperIT_EE5valueEvE4typeERS3_PS8_
FN:280,_ZNSt16allocator_traitsISaIN5Catch11SectionInfoEEE10_S_destroyIS1_EENSt9enable_ifIXsrNS3_16__destroy_helperIT_EE5valueEvE4typeERS2_PS7_
FN:280,_ZNSt16allocator_traitsISaIPN5Catch14IGeneratorInfoEEE10_S_destroyIS2_EENSt9enable_ifIXsrNS4_16__destroy_helperIT_EE5valueEvE4typeERS3_PS8_
FN:280,_ZNSt16allocator_traitsISaIN5Catch3PtrINS0_16IReporterFactoryEEEEE10_S_destroyIS3_EENSt9enable_ifIXsrNS5_16__destroy_helperIT_EE5valueEvE4typeERS4_PS9_
FN:280,_ZNSt16allocator_traitsISaIjEE10_S_destroyIjEENSt9enable_ifIXsrNS1_16__destroy_helperIT_EE5valueEvE4typeERS0_PS5_
FN:280,_ZNSt16allocator_traitsISaIN5Catch3PtrINS0_22CumulativeReporterBase4NodeINS0_12TestRunStatsENS3_INS0_14TestGroupStatsENS3_INS0_13TestCaseStatsENS2_11SectionNodeEEEEEEEEEEE10_S_destroyISB_EENSt9enable_ifIXsrNSD_16__destroy_helperIT_EE5valueEvE4typeERSC_PSH_
FN:280,_ZNSt16allocator_traitsISaIN5Catch5Clara6Parser5TokenEEE10_S_destroyIS3_EENSt9enable_ifIXsrNS5_16__destroy_helperIT_EE5valueEvE4typeERS4_PS9_
FN:280,_ZNSt16allocator_traitsISaIPN5Catch16TestCaseTracking8ITrackerEEE10_S_destroyIS3_EENSt9enable_ifIXsrNS5_16__destroy_helperIT_EE5valueEvE4typeERS4_PS9_
FN:280,_ZNSt16allocator_traitsISaIN5Catch3PtrINS0_22CumulativeReporterBase11SectionNodeEEEEE10_S_destroyIS4_EENSt9enable_ifIXsrNS6_16__destroy_helperIT_EE5valueEvE4typeERS5_PSA_
FN:280,_ZNSt16allocator_traitsISaIN5Catch14SectionEndInfoEEE10_S_destroyIS1_EENSt9enable_ifIXsrNS3_16__destroy_helperIT_EE5valueEvE4typeERS2_PS7_
FN:280,_ZNSt16allocator_traitsISaIN5Catch3PtrINS0_18IStreamingReporterEEEEE10_S_destroyIS3_EENSt9enable_ifIXsrNS5_16__destroy_helperIT_EE5valueEvE4typeERS4_PS9_
FN:280,_ZNSt16allocator_traitsISaISsEE10_S_destroyISsEENSt9enable_ifIXsrNS1_16__destroy_helperIT_EE5valueEvE4typeERS0_PS5_
FN:280,_ZNSt16allocator_traitsISaIN5Catch14AssertionStatsEEE10_S_destroyIS1_EENSt9enable_ifIXsrNS3_16__destroy_helperIT_EE5valueEvE4typeERS2_PS7_
FN:280,_ZNSt16allocator_traitsISaIN5Catch3PtrINS0_8TestSpec7PatternEEEEE10_S_destroyIS4_EENSt9enable_ifIXsrNS6_16__destroy_helperIT_EE5valueEvE4typeERS5_PSA_
FN:280,_ZNSt16allocator_traitsISaIN5Catch8TestCaseEEE10_S_destroyIS1_EENSt9enable_ifIXsrNS3_16__destroy_helperIT_EE5valueEvE4typeERS2_PS7_
FN:280,_ZNSt16allocator_traitsISaIN5Catch11MessageInfoEEE10_S_destroyIS1_EENSt9enable_ifIXsrNS3_16__destroy_helperIT_EE5valueEvE4typeERS2_PS7_
FN:305,_ZNSt16allocator_traitsISaIN5Catch14AssertionStatsEEE11_S_max_sizeIKS2_EENSt9enable_ifIXsrNS3_16__maxsize_helperIT_EE5valueEjE4typeERS8_
FN:305,_ZNSt16allocator_traitsISaISsEE11_S_max_sizeIKS0_EENSt9enable_ifIXsrNS1_16__maxsize_helperIT_EE5valueEjE4typeERS6_
FN:305,_ZNSt16allocator_traitsISaIN5Catch11MessageInfoEEE11_S_max_sizeIKS2_EENSt9enable_ifIXsrNS3_16__maxsize_helperIT_EE5valueEjE4typeERS8_
FN:305,_ZNSt16allocator_traitsISaIN5Catch3PtrINS0_8TestSpec7PatternEEEEE11_S_max_sizeIKS5_EENSt9enable_ifIXsrNS6_16__maxsize_helperIT_EE5valueEjE4typeERSB_
FN:305,_ZNSt16allocator_traitsISaIN5Catch3PtrINS0_22CumulativeReporterBase4NodeINS0_13TestCaseStatsENS2_11SectionNodeEEEEEEE11_S_max_sizeIKS8_EENSt9enable_ifIXsrNS9_16__maxsize_helperIT_EE5valueEjE4typeERSE_
FN:305,_ZNSt16allocator_traitsISaIN5Catch15ConsoleReporter13SummaryColumnEEE11_S_max_sizeIKS3_EENSt9enable_ifIXsrNS4_16__maxsize_helperIT_EE5valueEjE4typeERS9_
FN:305,_ZNSt16allocator_traitsISaIN5Catch5Clara11CommandLineINS0_10ConfigDataEE3ArgEEE11_S_max_sizeIKS6_EENSt9enable_ifIXsrNS7_16__maxsize_helperIT_EE5valueEjE4typeERSC_
FN:305,_ZNSt16allocator_traitsISaIN5Catch3PtrINS0_22CumulativeReporterBase4NodeINS0_12TestRunStatsENS3_INS0_14TestGroupStatsENS3_INS0_13TestCaseStatsENS2_11SectionNodeEEEEEEEEEEE11_S_max_sizeIKSC_EENSt9enable_ifIXsrNSD_16__maxsize_helperIT_EE5valueEjE4typeERSI_
FN:305,_ZNSt16allocator_traitsISaIPN5Catch16TestCaseTracking8ITrackerEEE11_S_max_sizeIKS4_EENSt9enable_ifIXsrNS5_16__maxsize_helperIT_EE5valueEjE4typeERSA_
FN:305,_ZNSt16allocator_traitsISaIjEE11_S_max_sizeIKS0_EENSt9enable_ifIXsrNS1_16__maxsize_helperIT_EE5valueEjE4typeERS6_
FN:305,_ZNSt16allocator_traitsISaIN5Catch3PtrINS0_16IReporterFactoryEEEEE11_S_max_sizeIKS4_EENSt9enable_ifIXsrNS5_16__maxsize_helperIT_EE5valueEjE4typeERSA_
FN:305,_ZNSt16allocator_traitsISaIN5Catch3PtrINS0_16TestCaseTracking8ITrackerEEEEE11_S_max_sizeIKS5_EENSt9enable_ifIXsrNS6_16__maxsize_helperIT_EE5valueEjE4typeERSB_
FN:305,_ZNSt16allocator_traitsISaIPN5Catch14IGeneratorInfoEEE11_S_max_sizeIKS3_EENSt9enable_ifIXsrNS4_16__maxsize_helperIT_EE5valueEjE4typeERS9_
FN:305,_ZNSt16allocator_traitsISaIPKN5Catch20IExceptionTranslatorEEE11_S_max_sizeIKS4_EENSt9enable_ifIXsrNS5_16__maxsize_helperIT_EE5valueEjE4typeERSA_
FN:305,_ZNSt16allocator_traitsISaIN5Catch5Clara6Parser5TokenEEE11_S_max_sizeIKS4_EENSt9enable_ifIXsrNS5_16__maxsize_helperIT_EE5valueEjE4typeERSA_
FN:305,_ZNSt16allocator_traitsISaIN5Catch14SectionEndInfoEEE11_S_max_sizeIKS2_EENSt9enable_ifIXsrNS3_16__maxsize_helperIT_EE5valueEjE4typeERS8_
FN:305,_ZNSt16allocator_traitsISaIN5Catch8TestCaseEEE11_S_max_sizeIKS2_EENSt9enable_ifIXsrNS3_16__maxsize_helperIT_EE5valueEjE4typeERS8_
FN:305,_ZNSt16allocator_traitsISaIN5Catch3PtrINS0_22CumulativeReporterBase11SectionNodeEEEEE11_S_max_sizeIKS5_EENSt9enable_ifIXsrNS6_16__maxsize_helperIT_EE5valueEjE4typeERSB_
FN:305,_ZNSt16allocator_traitsISaIN5Catch11SectionInfoEEE11_S_max_sizeIKS2_EENSt9enable_ifIXsrNS3_16__maxsize_helperIT_EE5valueEjE4typeERS8_
FN:305,_ZNSt16allocator_traitsISaIN5Catch3PtrINS0_22CumulativeReporterBase4NodeINS0_14TestGroupStatsENS3_INS0_13TestCaseStatsENS2_11SectionNodeEEEEEEEEE11_S_max_sizeIKSA_EENSt9enable_ifIXsrNSB_16__maxsize_helperIT_EE5valueEjE4typeERSG_
FN:305,_ZNSt16allocator_traitsISaIN5Catch8TestSpec6FilterEEE11_S_max_sizeIKS3_EENSt9enable_ifIXsrNS4_16__maxsize_helperIT_EE5valueEjE4typeERS9_
FN:305,_ZNSt16allocator_traitsISaIN5Catch3PtrINS0_18IStreamingReporterEEEEE11_S_max_sizeIKS4_EENSt9enable_ifIXsrNS5_16__maxsize_helperIT_EE5valueEjE4typeERSA_
FN:337,_ZNSt16allocator_traitsISaIN5Catch8TestSpec6FilterEEE9_S_selectIKS3_EENSt9enable_ifIXntsrNS4_15__select_helperIT_EE5valueES9_E4typeERS9_
FN:337,_ZNSt16allocator_traitsISaIN5Catch5Clara6Parser5TokenEEE9_S_selectIKS4_EENSt9enable_ifIXntsrNS5_15__select_helperIT_EE5valueESA_E4typeERSA_
FN:337,_ZNSt16allocator_traitsISaISsEE9_S_selectIKS0_EENSt9enable_ifIXntsrNS1_15__select_helperIT_EE5valueES6_E4typeERS6_
FN:337,_ZNSt16allocator_traitsISaIN5Catch3PtrINS0_8TestSpec7PatternEEEEE9_S_selectIKS5_EENSt9enable_ifIXntsrNS6_15__select_helperIT_EE5valueESB_E4typeERSB_
FN:337,_ZNSt16allocator_traitsISaIN5Catch8TestCaseEEE9_S_selectIKS2_EENSt9enable_ifIXntsrNS3_15__select_helperIT_EE5valueES8_E4typeERS8_
FN:337,_ZNSt16allocator_traitsISaIN5Catch11MessageInfoEEE9_S_selectIKS2_EENSt9enable_ifIXntsrNS3_15__select_helperIT_EE5valueES8_E4typeERS8_
FN:337,_ZNSt16allocator_traitsISaIN5Catch3PtrINS0_16IReporterFactoryEEEEE9_S_selectIKS4_EENSt9enable_ifIXntsrNS5_15__select_helperIT_EE5valueESA_E4typeERSA_
FN:391,_ZNSt16allocator_traitsISaIPN5Catch16TestCaseTracking8ITrackerEEE9constructIS3_IS3_EEEDTcl12_S_constructfp_fp0_spcl7forwardIT0_Efp1_EEERS4_PT_DpOS7_
FN:391,_ZNSt16allocator_traitsISaIN5Catch3PtrINS0_22CumulativeReporterBase4NodeINS0_12TestRunStatsENS3_INS0_14TestGroupStatsENS3_INS0_13TestCaseStatsENS2_11SectionNodeEEEEEEEEEEE9constructISB_IRKSB_EEEDTcl12_S_constructfp_fp0_spcl7forwardIT0_Efp1_EEERSC_PT_DpOSH_
FN:391,_ZNSt16allocator_traitsISaISt13_Rb_tree_nodeISt4pairIKSsN5Catch7TagInfoEEEEE9constructIS6_IS1_ISsS4_EEEEDTcl12_S_constructfp_fp0_spcl7forwardIT0_Efp1_EEERS7_PT_DpOSB_
FN:391,_ZNSt16allocator_traitsISaISt13_Rb_tree_nodeISt4pairIKSsN5Catch3PtrINS3_16IReporterFactoryEEEEEEE9constructIS8_IS1_ISsS6_EEEEDTcl12_S_constructfp_fp0_spcl7forwardIT0_Efp1_EEERS9_PT_DpOSD_
FN:391,_ZNSt16allocator_traitsISaIN5Catch14SectionEndInfoEEE9constructIS1_IRKS1_EEEDTcl12_S_constructfp_fp0_spcl7forwardIT0_Efp1_EEERS2_PT_DpOS7_
FN:391,_ZNSt16allocator_traitsISaISt13_Rb_tree_nodeISsEEE9constructIS1_IRKSsEEEDTcl12_S_constructfp_fp0_spcl7forwardIT0_Efp1_EEERS2_PT_DpOS7_
FN:391,_ZNSt16allocator_traitsISaIN5Catch3PtrINS0_16IReporterFactoryEEEEE9constructIS3_IRKS3_EEEDTcl12_S_constructfp_fp0_spcl7forwardIT0_Efp1_EEERS4_PT_DpOS9_
FN:391,_ZNSt16allocator_traitsISaIN5Catch3PtrINS0_8TestSpec7PatternEEEEE9constructIS4_IRKS4_EEEDTcl12_S_constructfp_fp0_spcl7forwardIT0_Efp1_EEERS5_PT_DpOSA_
FN:391,_ZNSt16allocator_traitsISaIN5Catch11MessageInfoEEE9constructIS1_IRKS1_EEEDTcl12_S_constructfp_fp0_spcl7forwardIT0_Efp1_EEERS2_PT_DpOS7_
FN:391,_ZNSt16allocator_traitsISaIN5Catch3PtrINS0_22CumulativeReporterBase4NodeINS0_13TestCaseStatsENS2_11SectionNodeEEEEEEE9constructIS7_IRKS7_EEEDTcl12_S_constructfp_fp0_spcl7forwardIT0_Efp1_EEERS8_PT_DpOSD_
FN:391,_ZNSt16allocator_traitsISaISt13_Rb_tree_nodeIN5Catch8TestCaseEEEE9constructIS3_IRKS2_EEEDTcl12_S_constructfp_fp0_spcl7forwardIT0_Efp1_EEERS4_PT_DpOS9_
FN:391,_ZNSt16allocator_traitsISaIN5Catch3PtrINS0_18IStreamingReporterEEEEE9constructIS3_IRKS3_EEEDTcl12_S_constructfp_fp0_spcl7forwardIT0_Efp1_EEERS4_PT_DpOS9_
FN:391,_ZNSt16allocator_traitsISaIN5Catch3PtrINS0_16TestCaseTracking8ITrackerEEEEE9constructIS4_IRKS4_EEEDTcl12_S_constructfp_fp0_spcl7forwardIT0_Efp1_EEERS5_PT_DpOSA_
FN:391,_ZNSt16allocator_traitsISaIPN5Catch14IGeneratorInfoEEE9constructIS2_IRKS2_EEEDTcl12_S_constructfp_fp0_spcl7forwardIT0_Efp1_EEERS3_PT_DpOS8_
FN:391,_ZNSt16allocator_traitsISaISt13_Rb_tree_nodeISt4pairIKSsN5Catch8TagAliasEEEEE9constructIS6_IS1_IPKcS4_EEEEDTcl12_S_constructfp_fp0_spcl7forwardIT0_Efp1_EEERS7_PT_DpOSD_
FN:391,_ZNSt16allocator_traitsISaIN5Catch3PtrINS0_22CumulativeReporterBase4NodeINS0_14TestGroupStatsENS3_INS0_13TestCaseStatsENS2_11SectionNodeEEEEEEEEE9constructIS9_IRKS9_EEEDTcl12_S_constructfp_fp0_spcl7forwardIT0_Efp1_EEERSA_PT_DpOSF_
FN:391,_ZNSt16allocator_traitsISaIN5Catch5Clara6Parser5TokenEEE9constructIS3_IS3_EEEDTcl12_S_constructfp_fp0_spcl7forwardIT0_Efp1_EEERS4_PT_DpOS7_
FN:391,_ZNSt16allocator_traitsISaISt13_Rb_tree_nodeISt4pairIKSsPN5Catch14IGeneratorInfoEEEEE9constructIS7_IS1_ISsS5_EEEEDTcl12_S_constructfp_fp0_spcl7forwardIT0_Efp1_EEERS8_PT_DpOSC_
FN:391,_ZNSt16allocator_traitsISaIN5Catch5Clara11CommandLineINS0_10ConfigDataEE3ArgEEE9constructIS5_IS5_EEEDTcl12_S_constructfp_fp0_spcl7forwardIT0_Efp1_EEERS6_PT_DpOS9_
FN:391,_ZNSt16allocator_traitsISaIPKN5Catch20IExceptionTranslatorEEE9constructIS3_IRKS3_EEEDTcl12_S_constructfp_fp0_spcl7forwardIT0_Efp1_EEERS4_PT_DpOS9_
FN:391,_ZNSt16allocator_traitsISaIN5Catch11SectionInfoEEE9constructIS1_IRKS1_EEEDTcl12_S_constructfp_fp0_spcl7forwardIT0_Efp1_EEERS2_PT_DpOS7_
FN:391,_ZNSt16allocator_traitsISaIN5Catch15ConsoleReporter13SummaryColumnEEE9constructIS2_IS2_EEEDTcl12_S_constructfp_fp0_spcl7forwardIT0_Efp1_EEERS3_PT_DpOS6_
FN:391,_ZNSt16allocator_traitsISaIN5Catch14AssertionStatsEEE9constructIS1_IRKS1_EEEDTcl12_S_constructfp_fp0_spcl7forwardIT0_Efp1_EEERS2_PT_DpOS7_
FN:391,_ZNSt16allocator_traitsISaISsEE9constructISsIRKSsEEEDTcl12_S_constructfp_fp0_spcl7forwardIT0_Efp1_EEERS0_PT_DpOS5_
FN:391,_ZNSt16allocator_traitsISaIN5Catch5Clara6Parser5TokenEEE9constructIS3_IRKS3_EEEDTcl12_S_constructfp_fp0_spcl7forwardIT0_Efp1_EEERS4_PT_DpOS9_
FN:391,_ZNSt16allocator_traitsISaIN5Catch8TestSpec6FilterEEE9constructIS2_IRKS2_EEEDTcl12_S_constructfp_fp0_spcl7forwardIT0_Efp1_EEERS3_PT_DpOS8_
FN:391,_ZNSt16allocator_traitsISaIjEE9constructIjIRKjEEEDTcl12_S_constructfp_fp0_spcl7forwardIT0_Efp1_EEERS0_PT_DpOS5_
FN:391,_ZNSt16allocator_traitsISaISt13_Rb_tree_nodeISsEEE9constructIS1_ISsEEEDTcl12_S_constructfp_fp0_spcl7forwardIT0_Efp1_EEERS2_PT_DpOS5_
FN:391,_ZNSt16allocator_traitsISaISt13_Rb_tree_nodeISt4pairIKSsPN5Catch18IGeneratorsForTestEEEEE9constructIS7_IS1_ISsS5_EEEEDTcl12_S_constructfp_fp0_spcl7forwardIT0_Efp1_EEERS8_PT_DpOSC_
FN:391,_ZNSt16allocator_traitsISaIN5Catch8TestCaseEEE9constructIS1_IRKS1_EEEDTcl12_S_constructfp_fp0_spcl7forwardIT0_Efp1_EEERS2_PT_DpOS7_
FN:391,_ZNSt16allocator_traitsISaIN5Catch3PtrINS0_22CumulativeReporterBase11SectionNodeEEEEE9constructIS4_IRKS4_EEEDTcl12_S_constructfp_fp0_spcl7forwardIT0_Efp1_EEERS5_PT_DpOSA_
FN:391,_ZNSt16allocator_traitsISaISsEE9constructISsISsEEEDTcl12_S_constructfp_fp0_spcl7forwardIT0_Efp1_EEERS0_PT_DpOS3_
FN:404,_ZNSt16allocator_traitsISaIN5Catch5Clara11CommandLineINS0_10ConfigDataEE3ArgEEE7destroyIS5_EEvRS6_PT_
FN:404,_ZNSt16allocator_traitsISaIjEE7destroyIjEEvRS0_PT_
FN:404,_ZNSt16allocator_traitsISaIN5Catch3PtrINS0_22CumulativeReporterBase11SectionNodeEEEEE7destroyIS4_EEvRS5_PT_
FN:404,_ZNSt16allocator_traitsISaIN5Catch14AssertionStatsEEE7destroyIS1_EEvRS2_PT_
FN:404,_ZNSt16allocator_traitsISaIN5Catch11SectionInfoEEE7destroyIS1_EEvRS2_PT_
FN:404,_ZNSt16allocator_traitsISaIN5Catch3PtrINS0_22CumulativeReporterBase4NodeINS0_12TestRunStatsENS3_INS0_14TestGroupStatsENS3_INS0_13TestCaseStatsENS2_11SectionNodeEEEEEEEEEEE7destroyISB_EEvRSC_PT_
FN:404,_ZNSt16allocator_traitsISaIN5Catch3PtrINS0_22CumulativeReporterBase4NodeINS0_13TestCaseStatsENS2_11SectionNodeEEEEEEE7destroyIS7_EEvRS8_PT_
FN:404,_ZNSt16allocator_traitsISaISsEE7destroyISsEEvRS0_PT_
FN:404,_ZNSt16allocator_traitsISaIN5Catch11MessageInfoEEE7destroyIS1_EEvRS2_PT_
FN:404,_ZNSt16allocator_traitsISaIPKN5Catch20IExceptionTranslatorEEE7destroyIS3_EEvRS4_PT_
FN:404,_ZNSt16allocator_traitsISaIN5Catch8TestCaseEEE7destroyIS1_EEvRS2_PT_
FN:404,_ZNSt16allocator_traitsISaIN5Catch5Clara6Parser5TokenEEE7destroyIS3_EEvRS4_PT_
FN:404,_ZNSt16allocator_traitsISaIN5Catch3PtrINS0_18IStreamingReporterEEEEE7destroyIS3_EEvRS4_PT_
FN:404,_ZNSt16allocator_traitsISaIN5Catch3PtrINS0_16TestCaseTracking8ITrackerEEEEE7destroyIS4_EEvRS5_PT_
FN:404,_ZNSt16allocator_traitsISaIN5Catch3PtrINS0_22CumulativeReporterBase4NodeINS0_14TestGroupStatsENS3_INS0_13TestCaseStatsENS2_11SectionNodeEEEEEEEEE7destroyIS9_EEvRSA_PT_
FN:404,_ZNSt16allocator_traitsISaIN5Catch3PtrINS0_8TestSpec7PatternEEEEE7destroyIS4_EEvRS5_PT_
FN:404,_ZNSt16allocator_traitsISaIN5Catch8TestSpec6FilterEEE7destroyIS2_EEvRS3_PT_
FN:404,_ZNSt16allocator_traitsISaIN5Catch14SectionEndInfoEEE7destroyIS1_EEvRS2_PT_
FN:404,_ZNSt16allocator_traitsISaIPN5Catch16TestCaseTracking8ITrackerEEE7destroyIS3_EEvRS4_PT_
FN:404,_ZNSt16allocator_traitsISaIN5Catch15ConsoleReporter13SummaryColumnEEE7destroyIS2_EEvRS3_PT_
FN:404,_ZNSt16allocator_traitsISaIPN5Catch14IGeneratorInfoEEE7destroyIS2_EEvRS3_PT_
FN:404,_ZNSt16allocator_traitsISaIN5Catch3PtrINS0_16IReporterFactoryEEEEE7destroyIS3_EEvRS4_PT_
FN:415,_ZNSt16allocator_traitsISaIN5Catch11SectionInfoEEE8max_sizeERKS2_
FN:415,_ZNSt16allocator_traitsISaIN5Catch3PtrINS0_22CumulativeReporterBase4NodeINS0_13TestCaseStatsENS2_11SectionNodeEEEEEEE8max_sizeERKS8_
FN:415,_ZNSt16allocator_traitsISaIPKN5Catch20IExceptionTranslatorEEE8max_sizeERKS4_
FN:415,_ZNSt16allocator_traitsISaIN5Catch3PtrINS0_8TestSpec7PatternEEEEE8max_sizeERKS5_
FN:415,_ZNSt16allocator_traitsISaIN5Catch8TestCaseEEE8max_sizeERKS2_
FN:415,_ZNSt16allocator_traitsISaIN5Catch14SectionEndInfoEEE8max_sizeERKS2_
FN:415,_ZNSt16allocator_traitsISaIN5Catch5Clara6Parser5TokenEEE8max_sizeERKS4_
FN:415,_ZNSt16allocator_traitsISaIN5Catch5Clara11CommandLineINS0_10ConfigDataEE3ArgEEE8max_sizeERKS6_
FN:415,_ZNSt16allocator_traitsISaIN5Catch3PtrINS0_22CumulativeReporterBase11SectionNodeEEEEE8max_sizeERKS5_
FN:415,_ZNSt16allocator_traitsISaIjEE8max_sizeERKS0_
FN:415,_ZNSt16allocator_traitsISaIN5Catch3PtrINS0_22CumulativeReporterBase4NodeINS0_12TestRunStatsENS3_INS0_14TestGroupStatsENS3_INS0_13TestCaseStatsENS2_11SectionNodeEEEEEEEEEEE8max_sizeERKSC_
FN:415,_ZNSt16allocator_traitsISaIN5Catch3PtrINS0_18IStreamingReporterEEEEE8max_sizeERKS4_
FN:415,_ZNSt16allocator_traitsISaIN5Catch3PtrINS0_16TestCaseTracking8ITrackerEEEEE8max_sizeERKS5_
FN:415,_ZNSt16allocator_traitsISaIN5Catch15ConsoleReporter13SummaryColumnEEE8max_sizeERKS3_
FN:415,_ZNSt16allocator_traitsISaIN5Catch14AssertionStatsEEE8max_sizeERKS2_
FN:415,_ZNSt16allocator_traitsISaIN5Catch8TestSpec6FilterEEE8max_sizeERKS3_
FN:415,_ZNSt16allocator_traitsISaIN5Catch3PtrINS0_22CumulativeReporterBase4NodeINS0_14TestGroupStatsENS3_INS0_13TestCaseStatsENS2_11SectionNodeEEEEEEEEE8max_sizeERKSA_
FN:415,_ZNSt16allocator_traitsISaISsEE8max_sizeERKS0_
FN:415,_ZNSt16allocator_traitsISaIN5Catch11MessageInfoEEE8max_sizeERKS2_
FN:415,_ZNSt16allocator_traitsISaIN5Catch3PtrINS0_16IReporterFactoryEEEEE8max_sizeERKS4_
FN:415,_ZNSt16allocator_traitsISaIPN5Catch16TestCaseTracking8ITrackerEEE8max_sizeERKS4_
FN:415,_ZNSt16allocator_traitsISaIPN5Catch14IGeneratorInfoEEE8max_sizeERKS3_
FN:427,_ZNSt16allocator_traitsISaIN5Catch3PtrINS0_8TestSpec7PatternEEEEE37select_on_container_copy_constructionERKS5_
FN:427,_ZNSt16allocator_traitsISaIN5Catch8TestSpec6FilterEEE37select_on_container_copy_constructionERKS3_
FN:427,_ZNSt16allocator_traitsISaIN5Catch11MessageInfoEEE37select_on_container_copy_constructionERKS2_
FN:427,_ZNSt16allocator_traitsISaIN5Catch3PtrINS0_16IReporterFactoryEEEEE37select_on_container_copy_constructionERKS4_
FN:427,_ZNSt16allocator_traitsISaIN5Catch5Clara6Parser5TokenEEE37select_on_container_copy_constructionERKS4_
FN:427,_ZNSt16allocator_traitsISaIN5Catch8TestCaseEEE37select_on_container_copy_constructionERKS2_
FN:427,_ZNSt16allocator_traitsISaISsEE37select_on_container_copy_constructionERKS0_
FN:478,_ZSt18__do_alloc_on_moveISaIN5Catch5Clara6Parser5TokenEEEvRT_S6_St17integral_constantIbLb1EE
FN:478,_ZSt18__do_alloc_on_moveISaIN5Catch8TestCaseEEEvRT_S4_St17integral_constantIbLb1EE
FN:478,_ZSt18__do_alloc_on_moveISaIN5Catch3PtrINS0_8TestSpec7PatternEEEEEvRT_S7_St17integral_constantIbLb1EE
FN:478,_ZSt18__do_alloc_on_moveISaIN5Catch8TestSpec6FilterEEEvRT_S5_St17integral_constantIbLb1EE
FN:486,_ZSt15__alloc_on_moveISaIN5Catch5Clara6Parser5TokenEEEvRT_S6_
FN:486,_ZSt15__alloc_on_moveISaIN5Catch8TestCaseEEEvRT_S4_
FN:486,_ZSt15__alloc_on_moveISaIN5Catch8TestSpec6FilterEEEvRT_S5_
FN:486,_ZSt15__alloc_on_moveISaIN5Catch3PtrINS0_8TestSpec7PatternEEEEEvRT_S7_
FN:501,_ZSt18__do_alloc_on_swapISaIN5Catch3PtrINS0_22CumulativeReporterBase4NodeINS0_13TestCaseStatsENS2_11SectionNodeEEEEEEEvRT_SA_St17integral_constantIbLb0EE
FN:501,_ZSt18__do_alloc_on_swapISaIN5Catch3PtrINS0_22CumulativeReporterBase4NodeINS0_14TestGroupStatsENS3_INS0_13TestCaseStatsENS2_11SectionNodeEEEEEEEEEvRT_SC_St17integral_constantIbLb0EE
FN:505,_ZSt15__alloc_on_swapISaIN5Catch3PtrINS0_22CumulativeReporterBase4NodeINS0_13TestCaseStatsENS2_11SectionNodeEEEEEEEvRT_SA_
FN:505,_ZSt15__alloc_on_swapISaIN5Catch3PtrINS0_22CumulativeReporterBase4NodeINS0_14TestGroupStatsENS3_INS0_13TestCaseStatsENS2_11SectionNodeEEEEEEEEEvRT_SC_
FNDA:0,_ZNSt16allocator_traitsISaISt13_Rb_tree_nodeISt4pairIKSsN5Catch8TagAliasEEEEE12_S_constructIS6_IS1_IPKcS4_EEEENSt9enable_ifIXsrNS8_18__construct_helperIT_IDpT0_EEE5valueEvE4typeERS7_PSF_DpOSG_
FNDA:0,_ZNSt16allocator_traitsISaISt13_Rb_tree_nodeISt4pairIKSsPN5Catch14IGeneratorInfoEEEEE12_S_constructIS7_IS1_ISsS5_EEEENSt9enable_ifIXsrNS9_18__construct_helperIT_IDpT0_EEE5valueEvE4typeERS8_PSE_DpOSF_
FNDA:0,_ZNSt16allocator_traitsISaISt13_Rb_tree_nodeISt4pairIKSsPN5Catch18IGeneratorsForTestEEEEE12_S_constructIS7_IS1_ISsS5_EEEENSt9enable_ifIXsrNS9_18__construct_helperIT_IDpT0_EEE5valueEvE4typeERS8_PSE_DpOSF_
FNDA:4,_ZNSt16allocator_traitsISaISt13_Rb_tree_nodeISt4pairIKSsN5Catch3PtrINS3_16IReporterFactoryEEEEEEE12_S_constructIS8_IS1_ISsS6_EEEENSt9enable_ifIXsrNSA_18__construct_helperIT_IDpT0_EEE5valueEvE4typeERS9_PSF_DpOSG_
FNDA:2,_ZNSt16allocator_traitsISaISt13_Rb_tree_nodeIN5Catch8TestCaseEEEE12_S_constructIS3_IRKS2_EEENSt9enable_ifIXsrNS5_18__construct_helperIT_IDpT0_EEE5valueEvE4typeERS4_PSB_DpOSC_
FNDA:0,_ZNSt16allocator_traitsISaIN5Catch5Clara6Parser5TokenEEE12_S_constructIS3_IRKS3_EEENSt9enable_ifIXsrNS5_18__construct_helperIT_IDpT0_EEE5valueEvE4typeERS4_PSB_DpOSC_
FNDA:0,_ZNSt16allocator_traitsISaISt13_Rb_tree_nodeISsEEE12_S_constructIS1_ISsEEENSt9enable_ifIXsrNS3_18__construct_helperIT_IDpT0_EEE5valueEvE4typeERS2_PS7_DpOS8_
FNDA:0,_ZNSt16allocator_traitsISaISt13_Rb_tree_nodeISt4pairIKSsN5Catch7TagInfoEEEEE12_S_constructIS6_IS1_ISsS4_EEEENSt9enable_ifIXsrNS8_18__construct_helperIT_IDpT0_EEE5valueEvE4typeERS7_PSD_DpOSE_
FNDA:36,_ZNSt16allocator_traitsISaISt13_Rb_tree_nodeISsEEE12_S_constructIS1_IRKSsEEENSt9enable_ifIXsrNS3_18__construct_helperIT_IDpT0_EEE5valueEvE4typeERS2_PS9_DpOSA_
FNDA:23,_ZNSt16allocator_traitsISaIN5Catch5Clara11CommandLineINS0_10ConfigDataEE3ArgEEE12_S_constructIS5_IS5_EEENSt9enable_ifIXsrNS7_18__construct_helperIT_IDpT0_EEE5valueEvE4typeERS6_PSB_DpOSC_
FNDA:0,_ZNSt16allocator_traitsISaIN5Catch15ConsoleReporter13SummaryColumnEEE12_S_constructIS2_IS2_EEENSt9enable_ifIXsrNS4_18__construct_helperIT_IDpT0_EEE5valueEvE4typeERS3_PS8_DpOS9_
FNDA:0,_ZNSt16allocator_traitsISaIPN5Catch16TestCaseTracking8ITrackerEEE12_S_constructIS3_IS3_EEENSt9enable_ifIXsrNS5_18__construct_helperIT_IDpT0_EEE5valueEvE4typeERS4_PS9_DpOSA_
FNDA:2,_ZNSt16allocator_traitsISaIN5Catch5Clara6Parser5TokenEEE12_S_constructIS3_IS3_EEENSt9enable_ifIXsrNS5_18__construct_helperIT_IDpT0_EEE5valueEvE4typeERS4_PS9_DpOSA_
FNDA:18,_ZNSt16allocator_traitsISaISsEE12_S_constructISsISsEEENSt9enable_ifIXsrNS1_18__construct_helperIT_IDpT0_EEE5valueEvE4typeERS0_PS5_DpOS6_
FNDA:1,_ZNSt16allocator_traitsISaIN5Catch3PtrINS0_8TestSpec7PatternEEEEE12_S_constructIS4_IRKS4_EEENSt9enable_ifIXsrNS6_18__construct_helperIT_IDpT0_EEE5valueEvE4typeERS5_PSC_DpOSD_
FNDA:1,_ZNSt16allocator_traitsISaIN5Catch3PtrINS0_22CumulativeReporterBase4NodeINS0_12TestRunStatsENS3_INS0_14TestGroupStatsENS3_INS0_13TestCaseStatsENS2_11SectionNodeEEEEEEEEEEE12_S_constructISB_IRKSB_EEENSt9enable_ifIXsrNSD_18__construct_helperIT_IDpT0_EEE5valueEvE4typeERSC_PSJ_DpOSK_
FNDA:1,_ZNSt16allocator_traitsISaIN5Catch3PtrINS0_22CumulativeReporterBase4NodeINS0_14TestGroupStatsENS3_INS0_13TestCaseStatsENS2_11SectionNodeEEEEEEEEE12_S_constructIS9_IRKS9_EEENSt9enable_ifIXsrNSB_18__construct_helperIT_IDpT0_EEE5valueEvE4typeERSA_PSH_DpOSI_
FNDA:2,_ZNSt16allocator_traitsISaIN5Catch3PtrINS0_22CumulativeReporterBase4NodeINS0_13TestCaseStatsENS2_11SectionNodeEEEEEEE12_S_constructIS7_IRKS7_EEENSt9enable_ifIXsrNS9_18__construct_helperIT_IDpT0_EEE5valueEvE4typeERS8_PSF_DpOSG_
FNDA:4,_ZNSt16allocator_traitsISaIN5Catch14AssertionStatsEEE12_S_constructIS1_IRKS1_EEENSt9enable_ifIXsrNS3_18__construct_helperIT_IDpT0_EEE5valueEvE4typeERS2_PS9_DpOSA_
FNDA:4,_ZNSt16allocator_traitsISaIN5Catch3PtrINS0_22CumulativeReporterBase11SectionNodeEEEEE12_S_constructIS4_IRKS4_EEENSt9enable_ifIXsrNS6_18__construct_helperIT_IDpT0_EEE5valueEvE4typeERS5_PSC_DpOSD_
FNDA:0,_ZNSt16allocator_traitsISaIN5Catch11SectionInfoEEE12_S_constructIS1_IRKS1_EEENSt9enable_ifIXsrNS3_18__construct_helperIT_IDpT0_EEE5valueEvE4typeERS2_PS9_DpOSA_
FNDA:0,_ZNSt16allocator_traitsISaIN5Catch3PtrINS0_18IStreamingReporterEEEEE12_S_constructIS3_IRKS3_EEENSt9enable_ifIXsrNS5_18__construct_helperIT_IDpT0_EEE5valueEvE4typeERS4_PSB_DpOSC_
FNDA:0,_ZNSt16allocator_traitsISaIPN5Catch14IGeneratorInfoEEE12_S_constructIS2_IRKS2_EEENSt9enable_ifIXsrNS4_18__construct_helperIT_IDpT0_EEE5valueEvE4typeERS3_PSA_DpOSB_
FNDA:0,_ZNSt16allocator_traitsISaIPKN5Catch20IExceptionTranslatorEEE12_S_constructIS3_IRKS3_EEENSt9enable_ifIXsrNS5_18__construct_helperIT_IDpT0_EEE5valueEvE4typeERS4_PSB_DpOSC_
FNDA:0,_ZNSt16allocator_traitsISaIN5Catch3PtrINS0_16IReporterFactoryEEEEE12_S_constructIS3_IRKS3_EEENSt9enable_ifIXsrNS5_18__construct_helperIT_IDpT0_EEE5valueEvE4typeERS4_PSB_DpOSC_
FNDA:2,_ZNSt16allocator_traitsISaIN5Catch8TestCaseEEE12_S_constructIS1_IRKS1_EEENSt9enable_ifIXsrNS3_18__construct_helperIT_IDpT0_EEE5valueEvE4typeERS2_PS9_DpOSA_
FNDA:0,_ZNSt16allocator_traitsISaIN5Catch14SectionEndInfoEEE12_S_constructIS1_IRKS1_EEENSt9enable_ifIXsrNS3_18__construct_helperIT_IDpT0_EEE5valueEvE4typeERS2_PS9_DpOSA_
FNDA:2,_ZNSt16allocator_traitsISaIN5Catch3PtrINS0_16TestCaseTracking8ITrackerEEEEE12_S_constructIS4_IRKS4_EEENSt9enable_ifIXsrNS6_18__construct_helperIT_IDpT0_EEE5valueEvE4typeERS5_PSC_DpOSD_
FNDA:0,_ZNSt16allocator_traitsISaIN5Catch11MessageInfoEEE12_S_constructIS1_IRKS1_EEENSt9enable_ifIXsrNS3_18__construct_helperIT_IDpT0_EEE5valueEvE4typeERS2_PS9_DpOSA_
FNDA:9,_ZNSt16allocator_traitsISaISsEE12_S_constructISsIRKSsEEENSt9enable_ifIXsrNS1_18__construct_helperIT_IDpT0_EEE5valueEvE4typeERS0_PS7_DpOS8_
FNDA:1,_ZNSt16allocator_traitsISaIN5Catch8TestSpec6FilterEEE12_S_constructIS2_IRKS2_EEENSt9enable_ifIXsrNS4_18__construct_helperIT_IDpT0_EEE5valueEvE4typeERS3_PSA_DpOSB_
FNDA:0,_ZNSt16allocator_traitsISaIjEE12_S_constructIjIRKjEEENSt9enable_ifIXsrNS1_18__construct_helperIT_IDpT0_EEE5valueEvE4typeERS0_PS7_DpOS8_
FNDA:0,_ZNSt16allocator_traitsISaIN5Catch5Clara11CommandLineINS0_10ConfigDataEE3ArgEEE10_S_destroyIS5_EENSt9enable_ifIXsrNS7_16__destroy_helperIT_EE5valueEvE4typeERS6_PSB_
FNDA:0,_ZNSt16allocator_traitsISaIN5Catch15ConsoleReporter13SummaryColumnEEE10_S_destroyIS2_EENSt9enable_ifIXsrNS4_16__destroy_helperIT_EE5valueEvE4typeERS3_PS8_
FNDA:0,_ZNSt16allocator_traitsISaIN5Catch5Clara6Parser5TokenEEE10_S_destroyIS3_EENSt9enable_ifIXsrNS5_16__destroy_helperIT_EE5valueEvE4typeERS4_PS9_
FNDA:0,_ZNSt16allocator_traitsISaIN5Catch3PtrINS0_8TestSpec7PatternEEEEE10_S_destroyIS4_EENSt9enable_ifIXsrNS6_16__destroy_helperIT_EE5valueEvE4typeERS5_PSA_
FNDA:0,_ZNSt16allocator_traitsISaIN5Catch3PtrINS0_22CumulativeReporterBase4NodeINS0_12TestRunStatsENS3_INS0_14TestGroupStatsENS3_INS0_13TestCaseStatsENS2_11SectionNodeEEEEEEEEEEE10_S_destroyISB_EENSt9enable_ifIXsrNSD_16__destroy_helperIT_EE5valueEvE4typeERSC_PSH_
FNDA:0,_ZNSt16allocator_traitsISaIN5Catch3PtrINS0_22CumulativeReporterBase4NodeINS0_14TestGroupStatsENS3_INS0_13TestCaseStatsENS2_11SectionNodeEEEEEEEEE10_S_destroyIS9_EENSt9enable_ifIXsrNSB_16__destroy_helperIT_EE5valueEvE4typeERSA_PSF_
FNDA:0,_ZNSt16allocator_traitsISaIN5Catch3PtrINS0_22CumulativeReporterBase4NodeINS0_13TestCaseStatsENS2_11SectionNodeEEEEEEE10_S_destroyIS7_EENSt9enable_ifIXsrNS9_16__destroy_helperIT_EE5valueEvE4typeERS8_PSD_
FNDA:0,_ZNSt16allocator_traitsISaIN5Catch14AssertionStatsEEE10_S_destroyIS1_EENSt9enable_ifIXsrNS3_16__destroy_helperIT_EE5valueEvE4typeERS2_PS7_
FNDA:0,_ZNSt16allocator_traitsISaIN5Catch3PtrINS0_18IStreamingReporterEEEEE10_S_destroyIS3_EENSt9enable_ifIXsrNS5_16__destroy_helperIT_EE5valueEvE4typeERS4_PS9_
FNDA:0,_ZNSt16allocator_traitsISaIPN5Catch14IGeneratorInfoEEE10_S_destroyIS2_EENSt9enable_ifIXsrNS4_16__destroy_helperIT_EE5valueEvE4typeERS3_PS8_
FNDA:0,_ZNSt16allocator_traitsISaIPKN5Catch20IExceptionTranslatorEEE10_S_destroyIS3_EENSt9enable_ifIXsrNS5_16__destroy_helperIT_EE5valueEvE4typeERS4_PS9_
FNDA:0,_ZNSt16allocator_traitsISaIN5Catch3PtrINS0_16IReporterFactoryEEEEE10_S_destroyIS3_EENSt9enable_ifIXsrNS5_16__destroy_helperIT_EE5valueEvE4typeERS4_PS9_
FNDA:0,_ZNSt16allocator_traitsISaIN5Catch8TestCaseEEE10_S_destroyIS1_EENSt9enable_ifIXsrNS3_16__destroy_helperIT_EE5valueEvE4typeERS2_PS7_
FNDA:0,_ZNSt16allocator_traitsISaIN5Catch14SectionEndInfoEEE10_S_destroyIS1_EENSt9enable_ifIXsrNS3_16__destroy_helperIT_EE5valueEvE4typeERS2_PS7_
FNDA:0,_ZNSt16allocator_traitsISaIN5Catch3PtrINS0_16TestCaseTracking8ITrackerEEEEE10_S_destroyIS4_EENSt9enable_ifIXsrNS6_16__destroy_helperIT_EE5valueEvE4typeERS5_PSA_
FNDA:0,_ZNSt16allocator_traitsISaIN5Catch11MessageInfoEEE10_S_destroyIS1_EENSt9enable_ifIXsrNS3_16__destroy_helperIT_EE5valueEvE4typeERS2_PS7_
FNDA:0,_ZNSt16allocator_traitsISaIN5Catch8TestSpec6FilterEEE10_S_destroyIS2_EENSt9enable_ifIXsrNS4_16__destroy_helperIT_EE5valueEvE4typeERS3_PS8_
FNDA:0,_ZNSt16allocator_traitsISaIjEE10_S_destroyIjEENSt9enable_ifIXsrNS1_16__destroy_helperIT_EE5valueEvE4typeERS0_PS5_
FNDA:8,_ZNSt16allocator_traitsISaISsEE10_S_destroyISsEENSt9enable_ifIXsrNS1_16__destroy_helperIT_EE5valueEvE4typeERS0_PS5_
FNDA:2,_ZNSt16allocator_traitsISaIN5Catch3PtrINS0_22CumulativeReporterBase11SectionNodeEEEEE10_S_destroyIS4_EENSt9enable_ifIXsrNS6_16__destroy_helperIT_EE5valueEvE4typeERS5_PSA_
FNDA:0,_ZNSt16allocator_traitsISaIN5Catch11SectionInfoEEE10_S_destroyIS1_EENSt9enable_ifIXsrNS3_16__destroy_helperIT_EE5valueEvE4typeERS2_PS7_
FNDA:0,_ZNSt16allocator_traitsISaIPN5Catch16TestCaseTracking8ITrackerEEE10_S_destroyIS3_EENSt9enable_ifIXsrNS5_16__destroy_helperIT_EE5valueEvE4typeERS4_PS9_
FNDA:12,_ZNSt16allocator_traitsISaIN5Catch5Clara11CommandLineINS0_10ConfigDataEE3ArgEEE11_S_max_sizeIKS6_EENSt9enable_ifIXsrNS7_16__maxsize_helperIT_EE5valueEjE4typeERSC_
FNDA:0,_ZNSt16allocator_traitsISaIN5Catch15ConsoleReporter13SummaryColumnEEE11_S_max_sizeIKS3_EENSt9enable_ifIXsrNS4_16__maxsize_helperIT_EE5valueEjE4typeERS9_
FNDA:0,_ZNSt16allocator_traitsISaIPN5Catch16TestCaseTracking8ITrackerEEE11_S_max_sizeIKS4_EENSt9enable_ifIXsrNS5_16__maxsize_helperIT_EE5valueEjE4typeERSA_
FNDA:4,_ZNSt16allocator_traitsISaIN5Catch5Clara6Parser5TokenEEE11_S_max_sizeIKS4_EENSt9enable_ifIXsrNS5_16__maxsize_helperIT_EE5valueEjE4typeERSA_
FNDA:2,_ZNSt16allocator_traitsISaIN5Catch3PtrINS0_8TestSpec7PatternEEEEE11_S_max_sizeIKS5_EENSt9enable_ifIXsrNS6_16__maxsize_helperIT_EE5valueEjE4typeERSB_
FNDA:2,_ZNSt16allocator_traitsISaIN5Catch3PtrINS0_22CumulativeReporterBase4NodeINS0_12TestRunStatsENS3_INS0_14TestGroupStatsENS3_INS0_13TestCaseStatsENS2_11SectionNodeEEEEEEEEEEE11_S_max_sizeIKSC_EENSt9enable_ifIXsrNSD_16__maxsize_helperIT_EE5valueEjE4typeERSI_
FNDA:2,_ZNSt16allocator_traitsISaIN5Catch3PtrINS0_22CumulativeReporterBase4NodeINS0_14TestGroupStatsENS3_INS0_13TestCaseStatsENS2_11SectionNodeEEEEEEEEE11_S_max_sizeIKSA_EENSt9enable_ifIXsrNSB_16__maxsize_helperIT_EE5valueEjE4typeERSG_
FNDA:4,_ZNSt16allocator_traitsISaIN5Catch3PtrINS0_22CumulativeReporterBase4NodeINS0_13TestCaseStatsENS2_11SectionNodeEEEEEEE11_S_max_sizeIKS8_EENSt9enable_ifIXsrNS9_16__maxsize_helperIT_EE5valueEjE4typeERSE_
FNDA:8,_ZNSt16allocator_traitsISaIN5Catch14AssertionStatsEEE11_S_max_sizeIKS2_EENSt9enable_ifIXsrNS3_16__maxsize_helperIT_EE5valueEjE4typeERS8_
FNDA:6,_ZNSt16allocator_traitsISaIN5Catch3PtrINS0_22CumulativeReporterBase11SectionNodeEEEEE11_S_max_sizeIKS5_EENSt9enable_ifIXsrNS6_16__maxsize_helperIT_EE5valueEjE4typeERSB_
FNDA:0,_ZNSt16allocator_traitsISaIN5Catch11SectionInfoEEE11_S_max_sizeIKS2_EENSt9enable_ifIXsrNS3_16__maxsize_helperIT_EE5valueEjE4typeERS8_
FNDA:0,_ZNSt16allocator_traitsISaIN5Catch3PtrINS0_18IStreamingReporterEEEEE11_S_max_sizeIKS4_EENSt9enable_ifIXsrNS5_16__maxsize_helperIT_EE5valueEjE4typeERSA_
FNDA:0,_ZNSt16allocator_traitsISaIPN5Catch14IGeneratorInfoEEE11_S_max_sizeIKS3_EENSt9enable_ifIXsrNS4_16__maxsize_helperIT_EE5valueEjE4typeERS9_
FNDA:0,_ZNSt16allocator_traitsISaIPKN5Catch20IExceptionTranslatorEEE11_S_max_sizeIKS4_EENSt9enable_ifIXsrNS5_16__maxsize_helperIT_EE5valueEjE4typeERSA_
FNDA:0,_ZNSt16allocator_traitsISaIN5Catch3PtrINS0_16IReporterFactoryEEEEE11_S_max_sizeIKS4_EENSt9enable_ifIXsrNS5_16__maxsize_helperIT_EE5valueEjE4typeERSA_
FNDA:0,_ZNSt16allocator_traitsISaIN5Catch14SectionEndInfoEEE11_S_max_sizeIKS2_EENSt9enable_ifIXsrNS3_16__maxsize_helperIT_EE5valueEjE4typeERS8_
FNDA:4,_ZNSt16allocator_traitsISaIN5Catch3PtrINS0_16TestCaseTracking8ITrackerEEEEE11_S_max_sizeIKS5_EENSt9enable_ifIXsrNS6_16__maxsize_helperIT_EE5valueEjE4typeERSB_
FNDA:0,_ZNSt16allocator_traitsISaIN5Catch11MessageInfoEEE11_S_max_sizeIKS2_EENSt9enable_ifIXsrNS3_16__maxsize_helperIT_EE5valueEjE4typeERS8_
FNDA:44,_ZNSt16allocator_traitsISaISsEE11_S_max_sizeIKS0_EENSt9enable_ifIXsrNS1_16__maxsize_helperIT_EE5valueEjE4typeERS6_
FNDA:2,_ZNSt16allocator_traitsISaIN5Catch8TestSpec6FilterEEE11_S_max_sizeIKS3_EENSt9enable_ifIXsrNS4_16__maxsize_helperIT_EE5valueEjE4typeERS9_
FNDA:0,_ZNSt16allocator_traitsISaIjEE11_S_max_sizeIKS0_EENSt9enable_ifIXsrNS1_16__maxsize_helperIT_EE5valueEjE4typeERS6_
FNDA:4,_ZNSt16allocator_traitsISaIN5Catch8TestCaseEEE11_S_max_sizeIKS2_EENSt9enable_ifIXsrNS3_16__maxsize_helperIT_EE5valueEjE4typeERS8_
FNDA:2,_ZNSt16allocator_traitsISaIN5Catch3PtrINS0_8TestSpec7PatternEEEEE9_S_selectIKS5_EENSt9enable_ifIXntsrNS6_15__select_helperIT_EE5valueESB_E4typeERSB_
FNDA:0,_ZNSt16allocator_traitsISaIN5Catch5Clara6Parser5TokenEEE9_S_selectIKS4_EENSt9enable_ifIXntsrNS5_15__select_helperIT_EE5valueESA_E4typeERSA_
FNDA:1,_ZNSt16allocator_traitsISaIN5Catch8TestCaseEEE9_S_selectIKS2_EENSt9enable_ifIXntsrNS3_15__select_helperIT_EE5valueES8_E4typeERS8_
FNDA:1,_ZNSt16allocator_traitsISaIN5Catch3PtrINS0_16IReporterFactoryEEEEE9_S_selectIKS4_EENSt9enable_ifIXntsrNS5_15__select_helperIT_EE5valueESA_E4typeERSA_
FNDA:8,_ZNSt16allocator_traitsISaIN5Catch11MessageInfoEEE9_S_selectIKS2_EENSt9enable_ifIXntsrNS3_15__select_helperIT_EE5valueES8_E4typeERS8_
FNDA:35,_ZNSt16allocator_traitsISaISsEE9_S_selectIKS0_EENSt9enable_ifIXntsrNS1_15__select_helperIT_EE5valueES6_E4typeERS6_
FNDA:2,_ZNSt16allocator_traitsISaIN5Catch8TestSpec6FilterEEE9_S_selectIKS3_EENSt9enable_ifIXntsrNS4_15__select_helperIT_EE5valueES9_E4typeERS9_
FNDA:0,_ZNSt16allocator_traitsISaISt13_Rb_tree_nodeISt4pairIKSsN5Catch8TagAliasEEEEE9constructIS6_IS1_IPKcS4_EEEEDTcl12_S_constructfp_fp0_spcl7forwardIT0_Efp1_EEERS7_PT_DpOSD_
FNDA:0,_ZNSt16allocator_traitsISaISt13_Rb_tree_nodeISt4pairIKSsPN5Catch14IGeneratorInfoEEEEE9constructIS7_IS1_ISsS5_EEEEDTcl12_S_constructfp_fp0_spcl7forwardIT0_Efp1_EEERS8_PT_DpOSC_
FNDA:0,_ZNSt16allocator_traitsISaISt13_Rb_tree_nodeISt4pairIKSsPN5Catch18IGeneratorsForTestEEEEE9constructIS7_IS1_ISsS5_EEEEDTcl12_S_constructfp_fp0_spcl7forwardIT0_Efp1_EEERS8_PT_DpOSC_
FNDA:4,_ZNSt16allocator_traitsISaISt13_Rb_tree_nodeISt4pairIKSsN5Catch3PtrINS3_16IReporterFactoryEEEEEEE9constructIS8_IS1_ISsS6_EEEEDTcl12_S_constructfp_fp0_spcl7forwardIT0_Efp1_EEERS9_PT_DpOSD_
FNDA:2,_ZNSt16allocator_traitsISaISt13_Rb_tree_nodeIN5Catch8TestCaseEEEE9constructIS3_IRKS2_EEEDTcl12_S_constructfp_fp0_spcl7forwardIT0_Efp1_EEERS4_PT_DpOS9_
FNDA:0,_ZNSt16allocator_traitsISaIN5Catch5Clara6Parser5TokenEEE9constructIS3_IRKS3_EEEDTcl12_S_constructfp_fp0_spcl7forwardIT0_Efp1_EEERS4_PT_DpOS9_
FNDA:0,_ZNSt16allocator_traitsISaISt13_Rb_tree_nodeISsEEE9constructIS1_ISsEEEDTcl12_S_constructfp_fp0_spcl7forwardIT0_Efp1_EEERS2_PT_DpOS5_
FNDA:0,_ZNSt16allocator_traitsISaISt13_Rb_tree_nodeISt4pairIKSsN5Catch7TagInfoEEEEE9constructIS6_IS1_ISsS4_EEEEDTcl12_S_constructfp_fp0_spcl7forwardIT0_Efp1_EEERS7_PT_DpOSB_
FNDA:36,_ZNSt16allocator_traitsISaISt13_Rb_tree_nodeISsEEE9constructIS1_IRKSsEEEDTcl12_S_constructfp_fp0_spcl7forwardIT0_Efp1_EEERS2_PT_DpOS7_
FNDA:23,_ZNSt16allocator_traitsISaIN5Catch5Clara11CommandLineINS0_10ConfigDataEE3ArgEEE9constructIS5_IS5_EEEDTcl12_S_constructfp_fp0_spcl7forwardIT0_Efp1_EEERS6_PT_DpOS9_
FNDA:0,_ZNSt16allocator_traitsISaIN5Catch15ConsoleReporter13SummaryColumnEEE9constructIS2_IS2_EEEDTcl12_S_constructfp_fp0_spcl7forwardIT0_Efp1_EEERS3_PT_DpOS6_
FNDA:0,_ZNSt16allocator_traitsISaIPN5Catch16TestCaseTracking8ITrackerEEE9constructIS3_IS3_EEEDTcl12_S_constructfp_fp0_spcl7forwardIT0_Efp1_EEERS4_PT_DpOS7_
FNDA:2,_ZNSt16allocator_traitsISaIN5Catch5Clara6Parser5TokenEEE9constructIS3_IS3_EEEDTcl12_S_constructfp_fp0_spcl7forwardIT0_Efp1_EEERS4_PT_DpOS7_
FNDA:18,_ZNSt16allocator_traitsISaISsEE9constructISsISsEEEDTcl12_S_constructfp_fp0_spcl7forwardIT0_Efp1_EEERS0_PT_DpOS3_
FNDA:1,_ZNSt16allocator_traitsISaIN5Catch3PtrINS0_8TestSpec7PatternEEEEE9constructIS4_IRKS4_EEEDTcl12_S_constructfp_fp0_spcl7forwardIT0_Efp1_EEERS5_PT_DpOSA_
FNDA:1,_ZNSt16allocator_traitsISaIN5Catch3PtrINS0_22CumulativeReporterBase4NodeINS0_12TestRunStatsENS3_INS0_14TestGroupStatsENS3_INS0_13TestCaseStatsENS2_11SectionNodeEEEEEEEEEEE9constructISB_IRKSB_EEEDTcl12_S_constructfp_fp0_spcl7forwardIT0_Efp1_EEERSC_PT_DpOSH_
FNDA:1,_ZNSt16allocator_traitsISaIN5Catch3PtrINS0_22CumulativeReporterBase4NodeINS0_14TestGroupStatsENS3_INS0_13TestCaseStatsENS2_11SectionNodeEEEEEEEEE9constructIS9_IRKS9_EEEDTcl12_S_constructfp_fp0_spcl7forwardIT0_Efp1_EEERSA_PT_DpOSF_
FNDA:2,_ZNSt16allocator_traitsISaIN5Catch3PtrINS0_22CumulativeReporterBase4NodeINS0_13TestCaseStatsENS2_11SectionNodeEEEEEEE9constructIS7_IRKS7_EEEDTcl12_S_constructfp_fp0_spcl7forwardIT0_Efp1_EEERS8_PT_DpOSD_
FNDA:4,_ZNSt16allocator_traitsISaIN5Catch14AssertionStatsEEE9constructIS1_IRKS1_EEEDTcl12_S_constructfp_fp0_spcl7forwardIT0_Efp1_EEERS2_PT_DpOS7_
FNDA:4,_ZNSt16allocator_traitsISaIN5Catch3PtrINS0_22CumulativeReporterBase11SectionNodeEEEEE9constructIS4_IRKS4_EEEDTcl12_S_constructfp_fp0_spcl7forwardIT0_Efp1_EEERS5_PT_DpOSA_
FNDA:0,_ZNSt16allocator_traitsISaIN5Catch11SectionInfoEEE9constructIS1_IRKS1_EEEDTcl12_S_constructfp_fp0_spcl7forwardIT0_Efp1_EEERS2_PT_DpOS7_
FNDA:0,_ZNSt16allocator_traitsISaIN5Catch3PtrINS0_18IStreamingReporterEEEEE9constructIS3_IRKS3_EEEDTcl12_S_constructfp_fp0_spcl7forwardIT0_Efp1_EEERS4_PT_DpOS9_
FNDA:0,_ZNSt16allocator_traitsISaIPN5Catch14IGeneratorInfoEEE9constructIS2_IRKS2_EEEDTcl12_S_constructfp_fp0_spcl7forwardIT0_Efp1_EEERS3_PT_DpOS8_
FNDA:0,_ZNSt16allocator_traitsISaIPKN5Catch20IExceptionTranslatorEEE9constructIS3_IRKS3_EEEDTcl12_S_constructfp_fp0_spcl7forwardIT0_Efp1_EEERS4_PT_DpOS9_
FNDA:0,_ZNSt16allocator_traitsISaIN5Catch3PtrINS0_16IReporterFactoryEEEEE9constructIS3_IRKS3_EEEDTcl12_S_constructfp_fp0_spcl7forwardIT0_Efp1_EEERS4_PT_DpOS9_
FNDA:2,_ZNSt16allocator_traitsISaIN5Catch8TestCaseEEE9constructIS1_IRKS1_EEEDTcl12_S_constructfp_fp0_spcl7forwardIT0_Efp1_EEERS2_PT_DpOS7_
FNDA:0,_ZNSt16allocator_traitsISaIN5Catch14SectionEndInfoEEE9constructIS1_IRKS1_EEEDTcl12_S_constructfp_fp0_spcl7forwardIT0_Efp1_EEERS2_PT_DpOS7_
FNDA:2,_ZNSt16allocator_traitsISaIN5Catch3PtrINS0_16TestCaseTracking8ITrackerEEEEE9constructIS4_IRKS4_EEEDTcl12_S_constructfp_fp0_spcl7forwardIT0_Efp1_EEERS5_PT_DpOSA_
FNDA:0,_ZNSt16allocator_traitsISaIN5Catch11MessageInfoEEE9constructIS1_IRKS1_EEEDTcl12_S_constructfp_fp0_spcl7forwardIT0_Efp1_EEERS2_PT_DpOS7_
FNDA:9,_ZNSt16allocator_traitsISaISsEE9constructISsIRKSsEEEDTcl12_S_constructfp_fp0_spcl7forwardIT0_Efp1_EEERS0_PT_DpOS5_
FNDA:1,_ZNSt16allocator_traitsISaIN5Catch8TestSpec6FilterEEE9constructIS2_IRKS2_EEEDTcl12_S_constructfp_fp0_spcl7forwardIT0_Efp1_EEERS3_PT_DpOS8_
FNDA:0,_ZNSt16allocator_traitsISaIjEE9constructIjIRKjEEEDTcl12_S_constructfp_fp0_spcl7forwardIT0_Efp1_EEERS0_PT_DpOS5_
FNDA:0,_ZNSt16allocator_traitsISaIN5Catch5Clara11CommandLineINS0_10ConfigDataEE3ArgEEE7destroyIS5_EEvRS6_PT_
FNDA:0,_ZNSt16allocator_traitsISaIN5Catch15ConsoleReporter13SummaryColumnEEE7destroyIS2_EEvRS3_PT_
FNDA:0,_ZNSt16allocator_traitsISaIN5Catch5Clara6Parser5TokenEEE7destroyIS3_EEvRS4_PT_
FNDA:0,_ZNSt16allocator_traitsISaIN5Catch3PtrINS0_8TestSpec7PatternEEEEE7destroyIS4_EEvRS5_PT_
FNDA:0,_ZNSt16allocator_traitsISaIN5Catch3PtrINS0_22CumulativeReporterBase4NodeINS0_12TestRunStatsENS3_INS0_14TestGroupStatsENS3_INS0_13TestCaseStatsENS2_11SectionNodeEEEEEEEEEEE7destroyISB_EEvRSC_PT_
FNDA:0,_ZNSt16allocator_traitsISaIN5Catch3PtrINS0_22CumulativeReporterBase4NodeINS0_14TestGroupStatsENS3_INS0_13TestCaseStatsENS2_11SectionNodeEEEEEEEEE7destroyIS9_EEvRSA_PT_
FNDA:0,_ZNSt16allocator_traitsISaIN5Catch3PtrINS0_22CumulativeReporterBase4NodeINS0_13TestCaseStatsENS2_11SectionNodeEEEEEEE7destroyIS7_EEvRS8_PT_
FNDA:0,_ZNSt16allocator_traitsISaIN5Catch14AssertionStatsEEE7destroyIS1_EEvRS2_PT_
FNDA:0,_ZNSt16allocator_traitsISaIN5Catch3PtrINS0_18IStreamingReporterEEEEE7destroyIS3_EEvRS4_PT_
FNDA:0,_ZNSt16allocator_traitsISaIPN5Catch14IGeneratorInfoEEE7destroyIS2_EEvRS3_PT_
FNDA:0,_ZNSt16allocator_traitsISaIPKN5Catch20IExceptionTranslatorEEE7destroyIS3_EEvRS4_PT_
FNDA:0,_ZNSt16allocator_traitsISaIN5Catch3PtrINS0_16IReporterFactoryEEEEE7destroyIS3_EEvRS4_PT_
FNDA:0,_ZNSt16allocator_traitsISaIN5Catch8TestCaseEEE7destroyIS1_EEvRS2_PT_
FNDA:0,_ZNSt16allocator_traitsISaIN5Catch14SectionEndInfoEEE7destroyIS1_EEvRS2_PT_
FNDA:0,_ZNSt16allocator_traitsISaIN5Catch3PtrINS0_16TestCaseTracking8ITrackerEEEEE7destroyIS4_EEvRS5_PT_
FNDA:0,_ZNSt16allocator_traitsISaIN5Catch11MessageInfoEEE7destroyIS1_EEvRS2_PT_
FNDA:0,_ZNSt16allocator_traitsISaIN5Catch8TestSpec6FilterEEE7destroyIS2_EEvRS3_PT_
FNDA:0,_ZNSt16allocator_traitsISaIjEE7destroyIjEEvRS0_PT_
FNDA:8,_ZNSt16allocator_traitsISaISsEE7destroyISsEEvRS0_PT_
FNDA:2,_ZNSt16allocator_traitsISaIN5Catch3PtrINS0_22CumulativeReporterBase11SectionNodeEEEEE7destroyIS4_EEvRS5_PT_
FNDA:0,_ZNSt16allocator_traitsISaIN5Catch11SectionInfoEEE7destroyIS1_EEvRS2_PT_
FNDA:0,_ZNSt16allocator_traitsISaIPN5Catch16TestCaseTracking8ITrackerEEE7destroyIS3_EEvRS4_PT_
FNDA:12,_ZNSt16allocator_traitsISaIN5Catch5Clara11CommandLineINS0_10ConfigDataEE3ArgEEE8max_sizeERKS6_
FNDA:0,_ZNSt16allocator_traitsISaIN5Catch15ConsoleReporter13SummaryColumnEEE8max_sizeERKS3_
FNDA:0,_ZNSt16allocator_traitsISaIPN5Catch16TestCaseTracking8ITrackerEEE8max_sizeERKS4_
FNDA:4,_ZNSt16allocator_traitsISaIN5Catch5Clara6Parser5TokenEEE8max_sizeERKS4_
FNDA:2,_ZNSt16allocator_traitsISaIN5Catch3PtrINS0_8TestSpec7PatternEEEEE8max_sizeERKS5_
FNDA:2,_ZNSt16allocator_traitsISaIN5Catch3PtrINS0_22CumulativeReporterBase4NodeINS0_12TestRunStatsENS3_INS0_14TestGroupStatsENS3_INS0_13TestCaseStatsENS2_11SectionNodeEEEEEEEEEEE8max_sizeERKSC_
FNDA:2,_ZNSt16allocator_traitsISaIN5Catch3PtrINS0_22CumulativeReporterBase4NodeINS0_14TestGroupStatsENS3_INS0_13TestCaseStatsENS2_11SectionNodeEEEEEEEEE8max_sizeERKSA_
FNDA:4,_ZNSt16allocator_traitsISaIN5Catch3PtrINS0_22CumulativeReporterBase4NodeINS0_13TestCaseStatsENS2_11SectionNodeEEEEEEE8max_sizeERKS8_
FNDA:8,_ZNSt16allocator_traitsISaIN5Catch14AssertionStatsEEE8max_sizeERKS2_
FNDA:6,_ZNSt16allocator_traitsISaIN5Catch3PtrINS0_22CumulativeReporterBase11SectionNodeEEEEE8max_sizeERKS5_
FNDA:0,_ZNSt16allocator_traitsISaIN5Catch11SectionInfoEEE8max_sizeERKS2_
FNDA:0,_ZNSt16allocator_traitsISaIN5Catch3PtrINS0_18IStreamingReporterEEEEE8max_sizeERKS4_
FNDA:0,_ZNSt16allocator_traitsISaIPN5Catch14IGeneratorInfoEEE8max_sizeERKS3_
FNDA:0,_ZNSt16allocator_traitsISaIPKN5Catch20IExceptionTranslatorEEE8max_sizeERKS4_
FNDA:0,_ZNSt16allocator_traitsISaIN5Catch3PtrINS0_16IReporterFactoryEEEEE8max_sizeERKS4_
FNDA:0,_ZNSt16allocator_traitsISaIN5Catch14SectionEndInfoEEE8max_sizeERKS2_
FNDA:4,_ZNSt16allocator_traitsISaIN5Catch3PtrINS0_16TestCaseTracking8ITrackerEEEEE8max_sizeERKS5_
FNDA:0,_ZNSt16allocator_traitsISaIN5Catch11MessageInfoEEE8max_sizeERKS2_
FNDA:44,_ZNSt16allocator_traitsISaISsEE8max_sizeERKS0_
FNDA:2,_ZNSt16allocator_traitsISaIN5Catch8TestSpec6FilterEEE8max_sizeERKS3_
FNDA:0,_ZNSt16allocator_traitsISaIjEE8max_sizeERKS0_
FNDA:4,_ZNSt16allocator_traitsISaIN5Catch8TestCaseEEE8max_sizeERKS2_
FNDA:2,_ZNSt16allocator_traitsISaIN5Catch3PtrINS0_8TestSpec7PatternEEEEE37select_on_container_copy_constructionERKS5_
FNDA:0,_ZNSt16allocator_traitsISaIN5Catch5Clara6Parser5TokenEEE37select_on_container_copy_constructionERKS4_
FNDA:1,_ZNSt16allocator_traitsISaIN5Catch8TestCaseEEE37select_on_container_copy_constructionERKS2_
FNDA:1,_ZNSt16allocator_traitsISaIN5Catch3PtrINS0_16IReporterFactoryEEEEE37select_on_container_copy_constructionERKS4_
FNDA:8,_ZNSt16allocator_traitsISaIN5Catch11MessageInfoEEE37select_on_container_copy_constructionERKS2_
FNDA:35,_ZNSt16allocator_traitsISaISsEE37select_on_container_copy_constructionERKS0_
FNDA:2,_ZNSt16allocator_traitsISaIN5Catch8TestSpec6FilterEEE37select_on_container_copy_constructionERKS3_
FNDA:1,_ZSt18__do_alloc_on_moveISaIN5Catch8TestCaseEEEvRT_S4_St17integral_constantIbLb1EE
FNDA:3,_ZSt18__do_alloc_on_moveISaIN5Catch5Clara6Parser5TokenEEEvRT_S6_St17integral_constantIbLb1EE
FNDA:1,_ZSt18__do_alloc_on_moveISaIN5Catch8TestSpec6FilterEEEvRT_S5_St17integral_constantIbLb1EE
FNDA:1,_ZSt18__do_alloc_on_moveISaIN5Catch3PtrINS0_8TestSpec7PatternEEEEEvRT_S7_St17integral_constantIbLb1EE
FNDA:1,_ZSt15__alloc_on_moveISaIN5Catch8TestCaseEEEvRT_S4_
FNDA:3,_ZSt15__alloc_on_moveISaIN5Catch5Clara6Parser5TokenEEEvRT_S6_
FNDA:1,_ZSt15__alloc_on_moveISaIN5Catch8TestSpec6FilterEEEvRT_S5_
FNDA:1,_ZSt15__alloc_on_moveISaIN5Catch3PtrINS0_8TestSpec7PatternEEEEEvRT_S7_
FNDA:1,_ZSt18__do_alloc_on_swapISaIN5Catch3PtrINS0_22CumulativeReporterBase4NodeINS0_14TestGroupStatsENS3_INS0_13TestCaseStatsENS2_11SectionNodeEEEEEEEEEvRT_SC_St17integral_constantIbLb0EE
FNDA:1,_ZSt18__do_alloc_on_swapISaIN5Catch3PtrINS0_22CumulativeReporterBase4NodeINS0_13TestCaseStatsENS2_11SectionNodeEEEEEEEvRT_SA_St17integral_constantIbLb0EE
FNDA:1,_ZSt15__alloc_on_swapISaIN5Catch3PtrINS0_22CumulativeReporterBase4NodeINS0_14TestGroupStatsENS3_INS0_13TestCaseStatsENS2_11SectionNodeEEEEEEEEEvRT_SC_
FNDA:1,_ZSt15__alloc_on_swapISaIN5Catch3PtrINS0_22CumulativeReporterBase4NodeINS0_13TestCaseStatsENS2_11SectionNodeEEEEEEEvRT_SA_
FNF:178
FNH:84
DA:253,112
DA:254,112
DA:280,10
DA:281,10
DA:305,94
DA:306,94
DA:337,49
DA:338,49
DA:391,112
DA:393,112
DA:404,10
DA:405,10
DA:415,94
DA:416,94
DA:427,49
DA:428,49
DA:478,6
DA:479,6
DA:486,6
DA:490,6
DA:491,6
DA:501,2
DA:502,2
DA:505,2
DA:509,2
DA:510,2
LF:26
LH:26
end_of_record
SF:/opt/Programs/buildroot-at91/output/host/usr/arm-buildroot-linux-gnueabi/include/c++/4.8.2/bits/allocator.h
FN:113,_ZNSaIN5Catch11SectionInfoEEC2Ev
FN:113,_ZNSaIN5Catch8TestSpec6FilterEEC2Ev
FN:113,_ZNSaIN5Catch3PtrINS_22CumulativeReporterBase4NodeINS_13TestCaseStatsENS1_11SectionNodeEEEEEEC2Ev
FN:113,_ZNSaISt6vectorIN5Catch3PtrINS0_22CumulativeReporterBase11SectionNodeEEESaIS4_EEEC2Ev
FN:113,_ZNSaISt13_Rb_tree_nodeISt4pairIKSsPN5Catch18IGeneratorsForTestEEEEC2Ev
FN:113,_ZNSaIN5Catch5Clara6Parser5TokenEEC2Ev
FN:113,_ZNSaIN5Catch11MessageInfoEEC2Ev
FN:113,_ZNSaIN5Catch15ConsoleReporter13SummaryColumnEEC2Ev
FN:113,_ZNSaIN5Catch3PtrINS_22CumulativeReporterBase4NodeINS_14TestGroupStatsENS2_INS_13TestCaseStatsENS1_11SectionNodeEEEEEEEEC2Ev
FN:113,_ZNSaIN5Catch14SectionEndInfoEEC2Ev
FN:113,_ZNSaIN5Catch3PtrINS_8TestSpec7PatternEEEEC2Ev
FN:113,_ZNSaIN5Catch3PtrINS_18IStreamingReporterEEEEC2Ev
FN:113,_ZNSaIjEC2Ev
FN:113,_ZNSaISt13_Rb_tree_nodeIN5Catch8TestCaseEEEC2Ev
FN:113,_ZNSaIPN5Catch16TestCaseTracking8ITrackerEEC2Ev
FN:113,_ZNSaISt13_Rb_tree_nodeISt4pairIKiN5Catch5Clara11CommandLineINS2_10ConfigDataEE3ArgEEEEC2Ev
FN:113,_ZNSaIN5Catch3PtrINS_16IReporterFactoryEEEEC2Ev
FN:113,_ZNSaIN5Catch3PtrINS_16TestCaseTracking8ITrackerEEEEC2Ev
FN:113,_ZNSaIN5Catch14AssertionStatsEEC2Ev
FN:113,_ZNSaISt13_Rb_tree_nodeISt4pairIKSsN5Catch7TagInfoEEEEC2Ev
FN:113,_ZNSaIN5Catch3PtrINS_22CumulativeReporterBase4NodeINS_12TestRunStatsENS2_INS_14TestGroupStatsENS2_INS_13TestCaseStatsENS1_11SectionNodeEEEEEEEEEEC2Ev
FN:113,_ZNSaIPKN5Catch20IExceptionTranslatorEEC2Ev
FN:113,_ZNSaIPKN5Catch8Matchers4Impl11MatcherBaseISsSsEEEC2Ev
FN:113,_ZNSaIN5Catch5Clara11CommandLineINS_10ConfigDataEE3ArgEEC2Ev
FN:113,_ZNSaISsEC2Ev
FN:113,_ZNSaIN5Catch8TestCaseEEC2Ev
FN:113,_ZNSaISt13_Rb_tree_nodeISsEEC2Ev
FN:113,_ZNSaIN5Catch3PtrINS_22CumulativeReporterBase11SectionNodeEEEEC2Ev
FN:113,_ZNSaISt13_Rb_tree_nodeISt4pairIKSsN5Catch8TagAliasEEEEC2Ev
FN:113,_ZNSaISt13_Rb_tree_nodeISt4pairIKSsN5Catch3PtrINS2_16IReporterFactoryEEEEEEC2Ev
FN:113,_ZNSaISt13_Rb_tree_nodeISt4pairIKSsPN5Catch14IGeneratorInfoEEEEC2Ev
FN:113,_ZNSaIPN5Catch14IGeneratorInfoEEC2Ev
FN:115,_ZNSaIN5Catch11MessageInfoEEC2ERKS1_
FN:115,_ZNSaIN5Catch3PtrINS_16IReporterFactoryEEEEC2ERKS3_
FN:115,_ZNSaISsEC2ERKS_
FN:115,_ZNSaISt13_Rb_tree_nodeISsEEC2ERKS1_
FN:115,_ZNSaIN5Catch5Clara6Parser5TokenEEC2ERKS3_
FN:115,_ZNSaIN5Catch8TestCaseEEC2ERKS1_
FN:115,_ZNSaIN5Catch8TestSpec6FilterEEC2ERKS2_
FN:115,_ZNSaIN5Catch3PtrINS_8TestSpec7PatternEEEEC2ERKS4_
FN:121,_ZNSaISt13_Rb_tree_nodeISt4pairIKSsN5Catch3PtrINS2_16IReporterFactoryEEEEEED2Ev
FN:121,_ZNSaISt6vectorIN5Catch3PtrINS0_22CumulativeReporterBase11SectionNodeEEESaIS4_EEED2Ev
FN:121,_ZNSaISsED2Ev
FN:121,_ZNSaIN5Catch8TestSpec6FilterEED2Ev
FN:121,_ZNSaIN5Catch3PtrINS_16TestCaseTracking8ITrackerEEEED2Ev
FN:121,_ZNSaIN5Catch14AssertionStatsEED2Ev
FN:121,_ZNSaIN5Catch14SectionEndInfoEED2Ev
FN:121,_ZNSaIPN5Catch14IGeneratorInfoEED2Ev
FN:121,_ZNSaISt13_Rb_tree_nodeISt4pairIKSsPN5Catch14IGeneratorInfoEEEED2Ev
FN:121,_ZNSaISt13_Rb_tree_nodeISt4pairIKSsN5Catch8TagAliasEEEED2Ev
FN:121,_ZNSaIPKN5Catch8Matchers4Impl11MatcherBaseISsSsEEED2Ev
FN:121,_ZNSaISt13_Rb_tree_nodeISt4pairIKSsN5Catch7TagInfoEEEED2Ev
FN:121,_ZNSaIN5Catch11MessageInfoEED2Ev
FN:121,_ZNSaIN5Catch5Clara11CommandLineINS_10ConfigDataEE3ArgEED2Ev
FN:121,_ZNSaIN5Catch3PtrINS_16IReporterFactoryEEEED2Ev
FN:121,_ZNSaIN5Catch15ConsoleReporter13SummaryColumnEED2Ev
FN:121,_ZNSaISt13_Rb_tree_nodeISt4pairIKSsPN5Catch18IGeneratorsForTestEEEED2Ev
FN:121,_ZNSaIN5Catch11SectionInfoEED2Ev
FN:121,_ZNSaISt13_Rb_tree_nodeISsEED2Ev
FN:121,_ZNSaIN5Catch3PtrINS_22CumulativeReporterBase4NodeINS_13TestCaseStatsENS1_11SectionNodeEEEEEED2Ev
FN:121,_ZNSaIN5Catch3PtrINS_22CumulativeReporterBase4NodeINS_14TestGroupStatsENS2_INS_13TestCaseStatsENS1_11SectionNodeEEEEEEEED2Ev
FN:121,_ZNSaIN5Catch8TestCaseEED2Ev
FN:121,_ZNSaISt13_Rb_tree_nodeISt4pairIKiN5Catch5Clara11CommandLineINS2_10ConfigDataEE3ArgEEEED2Ev
FN:121,_ZNSaIN5Catch3PtrINS_22CumulativeReporterBase4NodeINS_12TestRunStatsENS2_INS_14TestGroupStatsENS2_INS_13TestCaseStatsENS1_11SectionNodeEEEEEEEEEED2Ev
FN:121,_ZNSaIN5Catch5Clara6Parser5TokenEED2Ev
FN:121,_ZNSaIN5Catch3PtrINS_22CumulativeReporterBase11SectionNodeEEEED2Ev
FN:121,_ZNSaISt13_Rb_tree_nodeIN5Catch8TestCaseEEED2Ev
FN:121,_ZNSaIN5Catch3PtrINS_8TestSpec7PatternEEEED2Ev
FN:121,_ZNSaIN5Catch3PtrINS_18IStreamingReporterEEEED2Ev
FN:121,_ZNSaIPN5Catch16TestCaseTracking8ITrackerEED2Ev
FN:121,_ZNSaIjED2Ev
FN:121,_ZNSaIPKN5Catch20IExceptionTranslatorEED2Ev
FN:133,_ZSteqIcEbRKSaIT_ES3_
FN:161,_ZNSt12__alloc_swapISaISt13_Rb_tree_nodeISsEELb1EE8_S_do_itERS2_S4_
FNDA:1,_ZNSaISt13_Rb_tree_nodeISt4pairIKiN5Catch5Clara11CommandLineINS2_10ConfigDataEE3ArgEEEEC2Ev
FNDA:1,_ZNSaIN5Catch5Clara11CommandLineINS_10ConfigDataEE3ArgEEC2Ev
FNDA:0,_ZNSaIN5Catch15ConsoleReporter13SummaryColumnEEC2Ev
FNDA:1,_ZNSaIN5Catch3PtrINS_22CumulativeReporterBase4NodeINS_12TestRunStatsENS2_INS_14TestGroupStatsENS2_INS_13TestCaseStatsENS1_11SectionNodeEEEEEEEEEEC2Ev
FNDA:2,_ZNSaIN5Catch3PtrINS_22CumulativeReporterBase4NodeINS_14TestGroupStatsENS2_INS_13TestCaseStatsENS1_11SectionNodeEEEEEEEEC2Ev
FNDA:2,_ZNSaIN5Catch3PtrINS_22CumulativeReporterBase4NodeINS_13TestCaseStatsENS1_11SectionNodeEEEEEEC2Ev
FNDA:1,_ZNSaISt6vectorIN5Catch3PtrINS0_22CumulativeReporterBase11SectionNodeEEESaIS4_EEEC2Ev
FNDA:3,_ZNSaIN5Catch14AssertionStatsEEC2Ev
FNDA:5,_ZNSaIN5Catch3PtrINS_22CumulativeReporterBase11SectionNodeEEEEC2Ev
FNDA:0,_ZNSaIN5Catch11SectionInfoEEC2Ev
FNDA:0,_ZNSaIN5Catch3PtrINS_18IStreamingReporterEEEEC2Ev
FNDA:1,_ZNSaISt13_Rb_tree_nodeISt4pairIKSsN5Catch8TagAliasEEEEC2Ev
FNDA:0,_ZNSaIPKN5Catch8Matchers4Impl11MatcherBaseISsSsEEEC2Ev
FNDA:0,_ZNSaIPN5Catch14IGeneratorInfoEEC2Ev
FNDA:0,_ZNSaISt13_Rb_tree_nodeISt4pairIKSsPN5Catch14IGeneratorInfoEEEEC2Ev
FNDA:1,_ZNSaISt13_Rb_tree_nodeISt4pairIKSsPN5Catch18IGeneratorsForTestEEEEC2Ev
FNDA:1,_ZNSaIPKN5Catch20IExceptionTranslatorEEC2Ev
FNDA:1,_ZNSaIN5Catch3PtrINS_16IReporterFactoryEEEEC2Ev
FNDA:1,_ZNSaISt13_Rb_tree_nodeISt4pairIKSsN5Catch3PtrINS2_16IReporterFactoryEEEEEEC2Ev
FNDA:2,_ZNSaIN5Catch8TestCaseEEC2Ev
FNDA:1,_ZNSaISt13_Rb_tree_nodeIN5Catch8TestCaseEEEC2Ev
FNDA:5,_ZNSaIN5Catch5Clara6Parser5TokenEEC2Ev
FNDA:1,_ZNSaIPN5Catch16TestCaseTracking8ITrackerEEC2Ev
FNDA:1,_ZNSaIN5Catch14SectionEndInfoEEC2Ev
FNDA:1,_ZNSaIN5Catch11MessageInfoEEC2Ev
FNDA:4,_ZNSaIN5Catch3PtrINS_16TestCaseTracking8ITrackerEEEEC2Ev
FNDA:0,_ZNSaISt13_Rb_tree_nodeISt4pairIKSsN5Catch7TagInfoEEEEC2Ev
FNDA:6,_ZNSaISt13_Rb_tree_nodeISsEEC2Ev
FNDA:2,_ZNSaIN5Catch8TestSpec6FilterEEC2Ev
FNDA:2,_ZNSaIN5Catch3PtrINS_8TestSpec7PatternEEEEC2Ev
FNDA:1,_ZNSaIjEC2Ev
FNDA:34,_ZNSaISsEC2Ev
FNDA:5,_ZNSaIN5Catch3PtrINS_8TestSpec7PatternEEEEC2ERKS4_
FNDA:4,_ZNSaIN5Catch5Clara6Parser5TokenEEC2ERKS3_
FNDA:30,_ZNSaISt13_Rb_tree_nodeISsEEC2ERKS1_
FNDA:3,_ZNSaIN5Catch8TestCaseEEC2ERKS1_
FNDA:2,_ZNSaIN5Catch3PtrINS_16IReporterFactoryEEEEC2ERKS3_
FNDA:18,_ZNSaIN5Catch11MessageInfoEEC2ERKS1_
FNDA:94,_ZNSaISsEC2ERKS_
FNDA:5,_ZNSaIN5Catch8TestSpec6FilterEEC2ERKS2_
FNDA:0,_ZNSaIN5Catch15ConsoleReporter13SummaryColumnEED2Ev
FNDA:1,_ZNSaIN5Catch3PtrINS_22CumulativeReporterBase4NodeINS_12TestRunStatsENS2_INS_14TestGroupStatsENS2_INS_13TestCaseStatsENS1_11SectionNodeEEEEEEEEEED2Ev
FNDA:2,_ZNSaIN5Catch3PtrINS_22CumulativeReporterBase4NodeINS_14TestGroupStatsENS2_INS_13TestCaseStatsENS1_11SectionNodeEEEEEEEED2Ev
FNDA:2,_ZNSaIN5Catch3PtrINS_22CumulativeReporterBase4NodeINS_13TestCaseStatsENS1_11SectionNodeEEEEEED2Ev
FNDA:1,_ZNSaISt6vectorIN5Catch3PtrINS0_22CumulativeReporterBase11SectionNodeEEESaIS4_EEED2Ev
FNDA:3,_ZNSaIN5Catch14AssertionStatsEED2Ev
FNDA:5,_ZNSaIN5Catch3PtrINS_22CumulativeReporterBase11SectionNodeEEEED2Ev
FNDA:0,_ZNSaIN5Catch11SectionInfoEED2Ev
FNDA:0,_ZNSaIN5Catch3PtrINS_18IStreamingReporterEEEED2Ev
FNDA:0,_ZNSaIPKN5Catch8Matchers4Impl11MatcherBaseISsSsEEED2Ev
FNDA:0,_ZNSaIPN5Catch14IGeneratorInfoEED2Ev
FNDA:1,_ZNSaIPKN5Catch20IExceptionTranslatorEED2Ev
FNDA:9,_ZNSaIN5Catch5Clara6Parser5TokenEED2Ev
FNDA:1,_ZNSaIPN5Catch16TestCaseTracking8ITrackerEED2Ev
FNDA:1,_ZNSaIN5Catch14SectionEndInfoEED2Ev
FNDA:4,_ZNSaIN5Catch3PtrINS_16TestCaseTracking8ITrackerEEEED2Ev
FNDA:1,_ZNSaIN5Catch5Clara11CommandLineINS_10ConfigDataEE3ArgEED2Ev
FNDA:7,_ZNSaIN5Catch3PtrINS_8TestSpec7PatternEEEED2Ev
FNDA:1,_ZNSaIjED2Ev
FNDA:1,_ZNSaISt13_Rb_tree_nodeISt4pairIKSsN5Catch8TagAliasEEEED2Ev
FNDA:0,_ZNSaISt13_Rb_tree_nodeISt4pairIKSsPN5Catch14IGeneratorInfoEEEED2Ev
FNDA:1,_ZNSaISt13_Rb_tree_nodeISt4pairIKSsPN5Catch18IGeneratorsForTestEEEED2Ev
FNDA:1,_ZNSaISt13_Rb_tree_nodeISt4pairIKSsN5Catch3PtrINS2_16IReporterFactoryEEEEEED2Ev
FNDA:1,_ZNSaISt13_Rb_tree_nodeIN5Catch8TestCaseEEED2Ev
FNDA:5,_ZNSaIN5Catch8TestCaseEED2Ev
FNDA:3,_ZNSaIN5Catch3PtrINS_16IReporterFactoryEEEED2Ev
FNDA:0,_ZNSaISt13_Rb_tree_nodeISt4pairIKSsN5Catch7TagInfoEEEED2Ev
FNDA:36,_ZNSaISt13_Rb_tree_nodeISsEED2Ev
FNDA:19,_ZNSaIN5Catch11MessageInfoEED2Ev
FNDA:1,_ZNSaISt13_Rb_tree_nodeISt4pairIKiN5Catch5Clara11CommandLineINS2_10ConfigDataEE3ArgEEEED2Ev
FNDA:7,_ZNSaIN5Catch8TestSpec6FilterEED2Ev
FNDA:128,_ZNSaISsED2Ev
FNDA:0,_ZSteqIcEbRKSaIT_ES3_
FNDA:0,_ZNSt12__alloc_swapISaISt13_Rb_tree_nodeISsEELb1EE8_S_do_itERS2_S4_
FNF:74
FNH:58
DA:113,81
DA:115,161
DA:116,161
DA:121,242
DA:133,0
DA:134,0
DA:161,0
LF:7
LH:4
end_of_record
SF:/opt/Programs/buildroot-at91/output/host/usr/arm-buildroot-linux-gnueabi/include/c++/4.8.2/bits/basic_ios.h
FN:46,_ZSt13__check_facetISt5ctypeIcEERKT_PS3_
FNDA:0,_ZSt13__check_facetISt5ctypeIcEERKT_PS3_
FNF:1
FNH:0
DA:46,0
DA:48,0
DA:49,0
DA:50,0
LF:4
LH:0
end_of_record
SF:/opt/Programs/buildroot-at91/output/host/usr/arm-buildroot-linux-gnueabi/include/c++/4.8.2/bits/basic_string.h
FN:272,_ZNSbIwSt11char_traitsIwESaIwEE12_Alloc_hiderD2Ev
FN:272,_ZNSs12_Alloc_hiderC2ERKS_
FN:272,_ZNSs12_Alloc_hiderD2Ev
FN:1721,_ZNSs16_S_construct_auxIPcEES0_T_S1_RKSaIcESt12__false_type
FN:1721,_ZNSs16_S_construct_auxIN9__gnu_cxx17__normal_iteratorIPKcSsEEEEPcT_S6_RKSaIcESt12__false_type
FN:1743,_ZNSs12_S_constructIPcEES0_T_S1_RKSaIcE
FN:1743,_ZNSs12_S_constructIN9__gnu_cxx17__normal_iteratorIPKcSsEEEEPcT_S6_RKSaIcE
FN:2402,_ZStplIcSt11char_traitsIcESaIcEESbIT_T0_T1_ERKS6_PKS3_
FN:2418,_ZStplIcSt11char_traitsIcESaIcEESbIT_T0_T1_ERKS6_S3_
FN:2430,_ZStplIcSt11char_traitsIcESaIcEESbIT_T0_T1_EOS6_RKS6_
FN:2436,_ZStplIcSt11char_traitsIcESaIcEESbIT_T0_T1_ERKS6_OS6_
FN:2442,_ZStplIcSt11char_traitsIcESaIcEESbIT_T0_T1_EOS6_S7_
FN:2454,_ZStplIcSt11char_traitsIcESaIcEESbIT_T0_T1_EPKS3_OS6_
FN:2466,_ZStplIcSt11char_traitsIcESaIcEESbIT_T0_T1_EOS6_PKS3_
FN:2472,_ZStplIcSt11char_traitsIcESaIcEESbIT_T0_T1_EOS6_S3_
FN:2493,_ZSteqIcEN9__gnu_cxx11__enable_ifIXsrSt9__is_charIT_E7__valueEbE6__typeERKSbIS3_St11char_traitsIS3_ESaIS3_EESC_
FN:2519,_ZSteqIcSt11char_traitsIcESaIcEEbRKSbIT_T0_T1_EPKS3_
FN:2532,_ZStneIcSt11char_traitsIcESaIcEEbRKSbIT_T0_T1_ES8_
FN:2556,_ZStneIcSt11char_traitsIcESaIcEEbRKSbIT_T0_T1_EPKS3_
FN:2569,_ZStltIcSt11char_traitsIcESaIcEEbRKSbIT_T0_T1_ES8_
FNDA:0,_ZNSbIwSt11char_traitsIwESaIwEE12_Alloc_hiderD2Ev
FNDA:0,_ZNSs12_Alloc_hiderC2ERKS_
FNDA:0,_ZNSs12_Alloc_hiderD2Ev
FNDA:0,_ZNSs16_S_construct_auxIPcEES0_T_S1_RKSaIcESt12__false_type
FNDA:0,_ZNSs16_S_construct_auxIN9__gnu_cxx17__normal_iteratorIPKcSsEEEEPcT_S6_RKSaIcESt12__false_type
FNDA:0,_ZNSs12_S_constructIPcEES0_T_S1_RKSaIcE
FNDA:0,_ZNSs12_S_constructIN9__gnu_cxx17__normal_iteratorIPKcSsEEEEPcT_S6_RKSaIcE
FNDA:0,_ZStplIcSt11char_traitsIcESaIcEESbIT_T0_T1_ERKS6_PKS3_
FNDA:0,_ZStplIcSt11char_traitsIcESaIcEESbIT_T0_T1_ERKS6_S3_
FNDA:0,_ZStplIcSt11char_traitsIcESaIcEESbIT_T0_T1_EOS6_RKS6_
FNDA:0,_ZStplIcSt11char_traitsIcESaIcEESbIT_T0_T1_ERKS6_OS6_
FNDA:0,_ZStplIcSt11char_traitsIcESaIcEESbIT_T0_T1_EOS6_S7_
FNDA:0,_ZStplIcSt11char_traitsIcESaIcEESbIT_T0_T1_EPKS3_OS6_
FNDA:0,_ZStplIcSt11char_traitsIcESaIcEESbIT_T0_T1_EOS6_PKS3_
FNDA:0,_ZStplIcSt11char_traitsIcESaIcEESbIT_T0_T1_EOS6_S3_
FNDA:71,_ZSteqIcEN9__gnu_cxx11__enable_ifIXsrSt9__is_charIT_E7__valueEbE6__typeERKSbIS3_St11char_traitsIS3_ESaIS3_EESC_
FNDA:36,_ZSteqIcSt11char_traitsIcESaIcEEbRKSbIT_T0_T1_EPKS3_
FNDA:2,_ZStneIcSt11char_traitsIcESaIcEEbRKSbIT_T0_T1_ES8_
FNDA:0,_ZStneIcSt11char_traitsIcESaIcEEbRKSbIT_T0_T1_EPKS3_
FNDA:18,_ZStltIcSt11char_traitsIcESaIcEEbRKSbIT_T0_T1_ES8_
FNF:20
FNH:4
DA:272,0
DA:1721,0
DA:1725,0
DA:1743,0
DA:1746,0
DA:2402,0
DA:2405,0
DA:2406,0
DA:2407,0
DA:2418,0
DA:2422,0
DA:2423,0
DA:2424,0
DA:2430,0
DA:2432,0
DA:2436,0
DA:2438,0
DA:2442,0
DA:2445,0
DA:2446,0
DA:2447,0
DA:2448,0
DA:2449,0
DA:2454,0
DA:2456,0
DA:2466,0
DA:2468,0
DA:2472,0
DA:2474,0
DA:2493,71
DA:2495,71
DA:2497,71
DA:2519,36
DA:2521,36
DA:2532,2
DA:2534,2
DA:2556,0
DA:2558,0
DA:2569,18
DA:2571,18
LF:40
LH:9
end_of_record
SF:/opt/Programs/buildroot-at91/output/host/usr/arm-buildroot-linux-gnueabi/include/c++/4.8.2/bits/basic_string.tcc
FN:123,_ZNSs12_S_constructIPcEES0_T_S1_RKSaIcESt20forward_iterator_tag
FN:123,_ZNSs12_S_constructIN9__gnu_cxx17__normal_iteratorIPKcSsEEEEPcT_S6_RKSaIcESt20forward_iterator_tag
FN:227,_ZNSsC2IPcEET_S1_RKSaIcE
FN:227,_ZNSsC2IN9__gnu_cxx17__normal_iteratorIPKcSsEEEET_S5_RKSaIcE
FN:692,_ZStplIcSt11char_traitsIcESaIcEESbIT_T0_T1_EPKS3_RKS6_
FN:708,_ZStplIcSt11char_traitsIcESaIcEESbIT_T0_T1_ES3_RKS6_
FNDA:0,_ZNSs12_S_constructIPcEES0_T_S1_RKSaIcESt20forward_iterator_tag
FNDA:0,_ZNSs12_S_constructIN9__gnu_cxx17__normal_iteratorIPKcSsEEEEPcT_S6_RKSaIcESt20forward_iterator_tag
FNDA:0,_ZNSsC2IPcEET_S1_RKSaIcE
FNDA:0,_ZNSsC2IN9__gnu_cxx17__normal_iteratorIPKcSsEEEET_S5_RKSaIcE
FNDA:0,_ZStplIcSt11char_traitsIcESaIcEESbIT_T0_T1_EPKS3_RKS6_
FNDA:0,_ZStplIcSt11char_traitsIcESaIcEESbIT_T0_T1_ES3_RKS6_
FNF:6
FNH:0
DA:123,0
DA:128,0
DA:129,0
DA:132,0
DA:133,0
DA:136,0
DA:138,0
DA:140,0
DA:141,0
DA:143,0
DA:144,0
DA:146,0
DA:147,0
DA:227,0
DA:229,0
DA:230,0
DA:692,0
DA:698,0
DA:699,0
DA:700,0
DA:701,0
DA:702,0
DA:703,0
DA:708,0
DA:712,0
DA:713,0
DA:714,0
DA:715,0
DA:716,0
DA:717,0
LF:30
LH:0
end_of_record
SF:/opt/Programs/buildroot-at91/output/host/usr/arm-buildroot-linux-gnueabi/include/c++/4.8.2/bits/char_traits.h
FN:242,_ZNSt11char_traitsIcE6assignERcRKc
FN:254,_ZNSt11char_traitsIcE7compareEPKcS2_j
FN:258,_ZNSt11char_traitsIcE6lengthEPKc
FN:270,_ZNSt11char_traitsIcE4copyEPcPKcj
FN:284,_ZNSt11char_traitsIcE11to_int_typeERKc
FN:288,_ZNSt11char_traitsIcE11eq_int_typeERKiS2_
FN:292,_ZNSt11char_traitsIcE3eofEv
FNDA:0,_ZNSt11char_traitsIcE6assignERcRKc
FNDA:70,_ZNSt11char_traitsIcE7compareEPKcS2_j
FNDA:0,_ZNSt11char_traitsIcE6lengthEPKc
FNDA:0,_ZNSt11char_traitsIcE4copyEPcPKcj
FNDA:0,_ZNSt11char_traitsIcE11to_int_typeERKc
FNDA:0,_ZNSt11char_traitsIcE11eq_int_typeERKiS2_
FNDA:0,_ZNSt11char_traitsIcE3eofEv
FNF:7
FNH:1
DA:242,0
DA:243,0
DA:254,70
DA:255,70
DA:258,0
DA:259,0
DA:270,0
DA:271,0
DA:284,0
DA:285,0
DA:288,0
DA:289,0
DA:292,0
DA:293,0
LF:14
LH:2
end_of_record
SF:/opt/Programs/buildroot-at91/output/host/usr/arm-buildroot-linux-gnueabi/include/c++/4.8.2/bits/ios_base.h
FN:75,_ZStanSt13_Ios_FmtflagsS_
FN:79,_ZStorSt13_Ios_FmtflagsS_
FN:87,_ZStcoSt13_Ios_Fmtflags
FN:91,_ZStoRRSt13_Ios_FmtflagsS_
FN:95,_ZStaNRSt13_Ios_FmtflagsS_
FN:115,_ZStanSt13_Ios_OpenmodeS_
FN:119,_ZStorSt13_Ios_OpenmodeS_
FN:153,_ZStanSt12_Ios_IostateS_
FN:157,_ZStorSt12_Ios_IostateS_
FN:578,_ZNSt8ios_base4setfESt13_Ios_Fmtflags
FN:595,_ZNSt8ios_base4setfESt13_Ios_FmtflagsS0_
FN:630,_ZNSt8ios_base9precisionEi
FN:653,_ZNSt8ios_base5widthEi
FN:875,_ZSt9uppercaseRSt8ios_base
FN:941,_ZSt3hexRSt8ios_base
FN:958,_ZSt5fixedRSt8ios_base
FNDA:4,_ZStanSt13_Ios_FmtflagsS_
FNDA:2,_ZStorSt13_Ios_FmtflagsS_
FNDA:2,_ZStcoSt13_Ios_Fmtflags
FNDA:2,_ZStoRRSt13_Ios_FmtflagsS_
FNDA:2,_ZStaNRSt13_Ios_FmtflagsS_
FNDA:0,_ZStanSt13_Ios_OpenmodeS_
FNDA:0,_ZStorSt13_Ios_OpenmodeS_
FNDA:0,_ZStanSt12_Ios_IostateS_
FNDA:0,_ZStorSt12_Ios_IostateS_
FNDA:0,_ZNSt8ios_base4setfESt13_Ios_Fmtflags
FNDA:2,_ZNSt8ios_base4setfESt13_Ios_FmtflagsS0_
FNDA:0,_ZNSt8ios_base9precisionEi
FNDA:0,_ZNSt8ios_base5widthEi
FNDA:0,_ZSt9uppercaseRSt8ios_base
FNDA:0,_ZSt3hexRSt8ios_base
FNDA:2,_ZSt5fixedRSt8ios_base
FNF:16
FNH:7
DA:75,4
DA:76,4
DA:79,2
DA:80,2
DA:87,2
DA:88,2
DA:91,2
DA:92,2
DA:95,2
DA:96,2
DA:115,0
DA:116,0
DA:119,0
DA:120,0
DA:153,0
DA:154,0
DA:157,0
DA:158,0
DA:578,0
DA:580,0
DA:581,0
DA:582,0
DA:595,2
DA:597,2
DA:598,2
DA:599,2
DA:600,2
DA:630,0
DA:632,0
DA:633,0
DA:634,0
DA:653,0
DA:655,0
DA:656,0
DA:657,0
DA:875,0
DA:877,0
DA:878,0
DA:941,0
DA:943,0
DA:944,0
DA:958,2
DA:960,2
DA:961,2
LF:44
LH:18
end_of_record
SF:/opt/Programs/buildroot-at91/output/host/usr/arm-buildroot-linux-gnueabi/include/c++/4.8.2/bits/locale_facets.h
FN:865,_ZNKSt5ctypeIcE5widenEc
FNDA:0,_ZNKSt5ctypeIcE5widenEc
FNF:1
FNH:0
DA:865,0
DA:867,0
DA:868,0
DA:869,0
DA:870,0
LF:5
LH:0
end_of_record
SF:/opt/Programs/buildroot-at91/output/host/usr/arm-buildroot-linux-gnueabi/include/c++/4.8.2/bits/move.h
FN:47,_ZSt11__addressofIN5Catch5Clara6Parser5TokenEEPT_RS4_
FN:47,_ZSt11__addressofISt6vectorIN5Catch3PtrINS1_22CumulativeReporterBase11SectionNodeEEESaIS5_EEEPT_RS8_
FN:47,_ZSt11__addressofIN5Catch11MessageInfoEEPT_RS2_
FN:47,_ZSt11__addressofIKSt4pairIKiN5Catch5Clara11CommandLineINS2_10ConfigDataEE3ArgEEEPT_RSA_
FN:47,_ZSt11__addressofIN5Catch3PtrINS0_22CumulativeReporterBase4NodeINS0_14TestGroupStatsENS3_INS0_13TestCaseStatsENS2_11SectionNodeEEEEEEEEPT_RSA_
FN:47,_ZSt11__addressofIKSt4pairIKSsN5Catch8TagAliasEEEPT_RS6_
FN:47,_ZSt11__addressofIKSt4pairIKSsPN5Catch14IGeneratorInfoEEEPT_RS7_
FN:47,_ZSt11__addressofIN5Catch3PtrINS0_18IStreamingReporterEEEEPT_RS4_
FN:47,_ZSt11__addressofIN5Catch3PtrINS0_22CumulativeReporterBase4NodeINS0_12TestRunStatsENS3_INS0_14TestGroupStatsENS3_INS0_13TestCaseStatsENS2_11SectionNodeEEEEEEEEEEPT_RSC_
FN:47,_ZSt11__addressofIN5Catch3PtrINS0_22CumulativeReporterBase4NodeINS0_13TestCaseStatsENS2_11SectionNodeEEEEEEPT_RS8_
FN:47,_ZSt11__addressofIN5Catch14SectionEndInfoEEPT_RS2_
FN:47,_ZSt11__addressofISsEPT_RS0_
FN:47,_ZSt11__addressofIKSt4pairIKSsPN5Catch18IGeneratorsForTestEEEPT_RS7_
FN:47,_ZSt11__addressofIN5Catch8TestSpec6FilterEEPT_RS3_
FN:47,_ZSt11__addressofIN5Catch3PtrINS0_16IReporterFactoryEEEEPT_RS4_
FN:47,_ZSt11__addressofIN5Catch3PtrINS0_16TestCaseTracking8ITrackerEEEEPT_RS5_
FN:47,_ZSt11__addressofIN5Catch8TestCaseEEPT_RS2_
FN:47,_ZSt11__addressofISt4pairIKSsN5Catch7TagInfoEEEPT_RS5_
FN:47,_ZSt11__addressofIKSt4pairIKSsN5Catch7TagInfoEEEPT_RS6_
FN:47,_ZSt11__addressofIKN5Catch8TestCaseEEPT_RS3_
FN:47,_ZSt11__addressofIN5Catch3PtrINS0_22CumulativeReporterBase11SectionNodeEEEEPT_RS5_
FN:47,_ZSt11__addressofIKSt4pairIKSsN5Catch3PtrINS2_16IReporterFactoryEEEEEPT_RS8_
FN:47,_ZSt11__addressofIN5Catch3PtrINS0_8TestSpec7PatternEEEEPT_RS5_
FN:47,_ZSt11__addressofIN5Catch14AssertionStatsEEPT_RS2_
FN:47,_ZSt11__addressofIN5Catch5Clara11CommandLineINS0_10ConfigDataEE3ArgEEPT_RS6_
FN:47,_ZSt11__addressofIN5Catch11SectionInfoEEPT_RS2_
FN:47,_ZSt11__addressofIN5Catch15ConsoleReporter13SummaryColumnEEPT_RS3_
FN:76,_ZSt7forwardIRKPKN5Catch20IExceptionTranslatorEEOT_RNSt16remove_referenceIS6_E4typeE
FN:76,_ZSt7forwardIRN5Catch3PtrINS0_22CumulativeReporterBase4NodeINS0_13TestCaseStatsENS2_11SectionNodeEEEEEEOT_RNSt16remove_referenceIS9_E4typeE
FN:76,_ZSt7forwardIRPSt13_Rb_tree_nodeISt4pairIKSsPN5Catch18IGeneratorsForTestEEEEOT_RNSt16remove_referenceISA_E4typeE
FN:76,_ZSt7forwardIRN5Catch3PtrINS0_16IReporterFactoryEEEEOT_RNSt16remove_referenceIS5_E4typeE
FN:76,_ZSt7forwardISt4pairIPKcN5Catch8TagAliasEEEOT_RNSt16remove_referenceIS6_E4typeE
FN:76,_ZSt7forwardIRKN5Catch3PtrINS0_8TestSpec7PatternEEEEOT_RNSt16remove_referenceIS7_E4typeE
FN:76,_ZSt7forwardIRPSt13_Rb_tree_nodeISt4pairIKSsN5Catch8TagAliasEEEEOT_RNSt16remove_referenceIS9_E4typeE
FN:76,_ZSt7forwardIRPSt13_Rb_tree_nodeISt4pairIKSsN5Catch3PtrINS3_16IReporterFactoryEEEEEEOT_RNSt16remove_referenceISB_E4typeE
FN:76,_ZSt7forwardIPN5Catch18IGeneratorsForTestEEOT_RNSt16remove_referenceIS3_E4typeE
FN:76,_ZSt7forwardIRPSt13_Rb_tree_nodeISt4pairIKSsN5Catch7TagInfoEEEEOT_RNSt16remove_referenceIS9_E4typeE
FN:76,_ZSt7forwardISt17_Rb_tree_iteratorIN5Catch8TestCaseEEEOT_RNSt16remove_referenceIS4_E4typeE
FN:76,_ZSt7forwardIN5Catch14AssertionStatsEEOT_RNSt16remove_referenceIS2_E4typeE
FN:76,_ZSt7forwardIRKN5Catch14AssertionStatsEEOT_RNSt16remove_referenceIS4_E4typeE
FN:76,_ZSt7forwardIN5Catch3PtrINS0_16IReporterFactoryEEEEOT_RNSt16remove_referenceIS4_E4typeE
FN:76,_ZSt7forwardIRKN5Catch11MessageInfoEEOT_RNSt16remove_referenceIS4_E4typeE
FN:76,_ZSt7forwardIRKN5Catch8TestSpec6FilterEEOT_RNSt16remove_referenceIS5_E4typeE
FN:76,_ZSt7forwardISt14default_deleteIN5Catch13StreamBufBaseEEEOT_RNSt16remove_referenceIS4_E4typeE
FN:76,_ZSt7forwardIRPSt18_Rb_tree_node_baseEOT_RNSt16remove_referenceIS3_E4typeE
FN:76,_ZSt7forwardISt4pairISsPN5Catch18IGeneratorsForTestEEEOT_RNSt16remove_referenceIS5_E4typeE
FN:76,_ZSt7forwardIbEOT_RNSt16remove_referenceIS0_E4typeE
FN:76,_ZSt7forwardIRKPN5Catch14IGeneratorInfoEEOT_RNSt16remove_referenceIS5_E4typeE
FN:76,_ZSt7forwardISt4pairISsN5Catch7TagInfoEEEOT_RNSt16remove_referenceIS4_E4typeE
FN:76,_ZSt7forwardIRKN5Catch3PtrINS0_22CumulativeReporterBase4NodeINS0_12TestRunStatsENS3_INS0_14TestGroupStatsENS3_INS0_13TestCaseStatsENS2_11SectionNodeEEEEEEEEEEOT_RNSt16remove_referenceISE_E4typeE
FN:76,_ZSt7forwardIN5Catch5Clara11CommandLineINS0_10ConfigDataEE3ArgEEOT_RNSt16remove_referenceIS6_E4typeE
FN:76,_ZSt7forwardIRN5Catch5Clara11CommandLineINS0_10ConfigDataEE3ArgEEOT_RNSt16remove_referenceIS7_E4typeE
FN:76,_ZSt7forwardISt17_Rb_tree_iteratorISt4pairIKSsN5Catch8TagAliasEEEEOT_RNSt16remove_referenceIS7_E4typeE
FN:76,_ZSt7forwardIRKN5Catch8TestCaseEEOT_RNSt16remove_referenceIS4_E4typeE
FN:76,_ZSt7forwardISt4pairISsPN5Catch14IGeneratorInfoEEEOT_RNSt16remove_referenceIS5_E4typeE
FN:76,_ZSt7forwardIRN5Catch3PtrINS0_8TestSpec7PatternEEEEOT_RNSt16remove_referenceIS6_E4typeE
FN:76,_ZSt7forwardIN5Catch11MessageInfoEEOT_RNSt16remove_referenceIS2_E4typeE
FN:76,_ZSt7forwardIRKN5Catch11SectionInfoEEOT_RNSt16remove_referenceIS4_E4typeE
FN:76,_ZSt7forwardIRKN5Catch3PtrINS0_22CumulativeReporterBase11SectionNodeEEEEOT_RNSt16remove_referenceIS7_E4typeE
FN:76,_ZSt7forwardISt4pairISsN5Catch3PtrINS1_16IReporterFactoryEEEEEOT_RNSt16remove_referenceIS6_E4typeE
FN:76,_ZSt7forwardIRPKcEOT_RNSt16remove_referenceIS3_E4typeE
FN:76,_ZSt7forwardIRKSsEOT_RNSt16remove_referenceIS2_E4typeE
FN:76,_ZSt7forwardIRPN5Catch18IGeneratorsForTestEEOT_RNSt16remove_referenceIS4_E4typeE
FN:76,_ZSt7forwardIN5Catch5Clara6Parser5TokenEEOT_RNSt16remove_referenceIS4_E4typeE
FN:76,_ZSt7forwardIRKN5Catch3PtrINS0_22CumulativeReporterBase4NodeINS0_14TestGroupStatsENS3_INS0_13TestCaseStatsENS2_11SectionNodeEEEEEEEEOT_RNSt16remove_referenceISC_E4typeE
FN:76,_ZSt7forwardIN5Catch8TagAliasEEOT_RNSt16remove_referenceIS2_E4typeE
FN:76,_ZSt7forwardIN5Catch7TagInfoEEOT_RNSt16remove_referenceIS2_E4typeE
FN:76,_ZSt7forwardIRN5Catch3PtrINS0_22CumulativeReporterBase4NodeINS0_12TestRunStatsENS3_INS0_14TestGroupStatsENS3_INS0_13TestCaseStatsENS2_11SectionNodeEEEEEEEEEEOT_RNSt16remove_referenceISD_E4typeE
FN:76,_ZSt7forwardIRSt17_Rb_tree_iteratorISsEEOT_RNSt16remove_referenceIS3_E4typeE
FN:76,_ZSt7forwardIRPSt13_Rb_tree_nodeISt4pairIKSsPN5Catch14IGeneratorInfoEEEEOT_RNSt16remove_referenceISA_E4typeE
FN:76,_ZSt7forwardIRPN5Catch14IGeneratorInfoEEOT_RNSt16remove_referenceIS4_E4typeE
FN:76,_ZSt7forwardIRKjEOT_RNSt16remove_referenceIS2_E4typeE
FN:76,_ZSt7forwardIRN5Catch3PtrINS0_22CumulativeReporterBase4NodeINS0_14TestGroupStatsENS3_INS0_13TestCaseStatsENS2_11SectionNodeEEEEEEEEOT_RNSt16remove_referenceISB_E4typeE
FN:76,_ZSt7forwardIPN5Catch14IGeneratorInfoEEOT_RNSt16remove_referenceIS3_E4typeE
FN:76,_ZSt7forwardIN5Catch14SectionEndInfoEEOT_RNSt16remove_referenceIS2_E4typeE
FN:76,_ZSt7forwardISt17_Rb_tree_iteratorISt4pairIKSsN5Catch7TagInfoEEEEOT_RNSt16remove_referenceIS7_E4typeE
FN:76,_ZSt7forwardIRN5Catch3PtrINS0_18IStreamingReporterEEEEOT_RNSt16remove_referenceIS5_E4typeE
FN:76,_ZSt7forwardISt17_Rb_tree_iteratorISt4pairIKSsN5Catch3PtrINS3_16IReporterFactoryEEEEEEOT_RNSt16remove_referenceIS9_E4typeE
FN:76,_ZSt7forwardIRPSt13_Rb_tree_nodeISsEEOT_RNSt16remove_referenceIS4_E4typeE
FN:76,_ZSt7forwardIRPN5Catch13StreamBufBaseEEOT_RNSt16remove_referenceIS4_E4typeE
FN:76,_ZSt7forwardIRN5Catch3PtrINS0_22CumulativeReporterBase11SectionNodeEEEEOT_RNSt16remove_referenceIS6_E4typeE
FN:76,_ZSt7forwardISsEOT_RNSt16remove_referenceIS0_E4typeE
FN:76,_ZSt7forwardIN5Catch15ConsoleReporter13SummaryColumnEEOT_RNSt16remove_referenceIS3_E4typeE
FN:76,_ZSt7forwardISt17_Rb_tree_iteratorISt4pairIKSsPN5Catch14IGeneratorInfoEEEEOT_RNSt16remove_referenceIS8_E4typeE
FN:76,_ZSt7forwardISt14default_deleteIKN5Catch7IStreamEEEOT_RNSt16remove_referenceIS5_E4typeE
FN:76,_ZSt7forwardIRKN5Catch14SectionEndInfoEEOT_RNSt16remove_referenceIS4_E4typeE
FN:76,_ZSt7forwardIPKcEOT_RNSt16remove_referenceIS2_E4typeE
FN:76,_ZSt7forwardIRKN5Catch3PtrINS0_16TestCaseTracking8ITrackerEEEEOT_RNSt16remove_referenceIS7_E4typeE
FN:76,_ZSt7forwardIN5Catch8TestSpec6FilterEEOT_RNSt16remove_referenceIS3_E4typeE
FN:76,_ZSt7forwardIRKN5Catch5Clara6Parser5TokenEEOT_RNSt16remove_referenceIS6_E4typeE
FN:76,_ZSt7forwardIPN5Catch16TestCaseTracking8ITrackerEEOT_RNSt16remove_referenceIS4_E4typeE
FN:76,_ZSt7forwardIRSsEOT_RNSt16remove_referenceIS1_E4typeE
FN:76,_ZSt7forwardIRPSt13_Rb_tree_nodeIN5Catch8TestCaseEEEOT_RNSt16remove_referenceIS6_E4typeE
FN:76,_ZSt7forwardIRKN5Catch3PtrINS0_18IStreamingReporterEEEEOT_RNSt16remove_referenceIS6_E4typeE
FN:76,_ZSt7forwardIRN5Catch3PtrINS0_16TestCaseTracking8ITrackerEEEEOT_RNSt16remove_referenceIS6_E4typeE
FN:76,_ZSt7forwardISt17_Rb_tree_iteratorISsEEOT_RNSt16remove_referenceIS2_E4typeE
FN:76,_ZSt7forwardIRKN5Catch3PtrINS0_16IReporterFactoryEEEEOT_RNSt16remove_referenceIS6_E4typeE
FN:76,_ZSt7forwardIRN5Catch8TestCaseEEOT_RNSt16remove_referenceIS3_E4typeE
FN:76,_ZSt7forwardIRKN5Catch3PtrINS0_22CumulativeReporterBase4NodeINS0_13TestCaseStatsENS2_11SectionNodeEEEEEEOT_RNSt16remove_referenceISA_E4typeE
FN:76,_ZSt7forwardIRPKN5Catch7IStreamEEOT_RNSt16remove_referenceIS5_E4typeE
FN:76,_ZSt7forwardIRbEOT_RNSt16remove_referenceIS1_E4typeE
FN:76,_ZSt7forwardIN5Catch11SectionInfoEEOT_RNSt16remove_referenceIS2_E4typeE
FN:76,_ZSt7forwardISt17_Rb_tree_iteratorISt4pairIKSsPN5Catch18IGeneratorsForTestEEEEOT_RNSt16remove_referenceIS8_E4typeE
FN:76,_ZSt7forwardIRSt17_Rb_tree_iteratorIN5Catch8TestCaseEEEOT_RNSt16remove_referenceIS5_E4typeE
FN:101,_ZSt4moveIRPN5Catch9ITestCaseEEONSt16remove_referenceIT_E4typeEOS5_
FN:101,_ZSt4moveIRSaIN5Catch8TestCaseEEEONSt16remove_referenceIT_E4typeEOS5_
FN:101,_ZSt4moveIRPSsEONSt16remove_referenceIT_E4typeEOS3_
FN:101,_ZSt4moveIRSt6vectorIN5Catch11MessageInfoESaIS2_EEEONSt16remove_referenceIT_E4typeEOS7_
FN:101,_ZSt4moveIRN5Catch14AssertionStatsEEONSt16remove_referenceIT_E4typeEOS4_
FN:101,_ZSt4moveIRSt6vectorIN5Catch3PtrINS1_8TestSpec7PatternEEESaIS5_EEEONSt16remove_referenceIT_E4typeEOSA_
FN:101,_ZSt4moveIRSaISsEEONSt16remove_referenceIT_E4typeEOS3_
FN:101,_ZSt4moveIRN5Catch15ConsoleReporter13SummaryColumnEEONSt16remove_referenceIT_E4typeEOS5_
FN:101,_ZSt4moveIRN5Catch5Clara6Parser5TokenEEONSt16remove_referenceIT_E4typeEOS6_
FN:101,_ZSt4moveIRSt8_Rb_treeISsSsSt9_IdentityISsESt4lessISsESaISsEEEONSt16remove_referenceIT_E4typeEOS9_
FN:101,_ZSt4moveIRPN5Catch16TestCaseTracking8ITrackerEEONSt16remove_referenceIT_E4typeEOS6_
FN:101,_ZSt4moveIRSt6vectorISsSaISsEEEONSt16remove_referenceIT_E4typeEOS5_
FN:101,_ZSt4moveIRPN5Catch8TestCaseEEONSt16remove_referenceIT_E4typeEOS5_
FN:101,_ZSt4moveIRPN5Catch18IStreamingReporterEEONSt16remove_referenceIT_E4typeEOS5_
FN:101,_ZSt4moveIRPN5Catch3PtrINS0_22CumulativeReporterBase4NodeINS0_13TestCaseStatsENS2_11SectionNodeEEEEEEONSt16remove_referenceIT_E4typeEOSB_
FN:101,_ZSt4moveIRSaIN5Catch3PtrINS0_8TestSpec7PatternEEEEEONSt16remove_referenceIT_E4typeEOS8_
FN:101,_ZSt4moveIRPN5Catch3PtrINS0_22CumulativeReporterBase4NodeINS0_14TestGroupStatsENS3_INS0_13TestCaseStatsENS2_11SectionNodeEEEEEEEEONSt16remove_referenceIT_E4typeEOSD_
FN:101,_ZSt4moveIRSt6vectorIN5Catch8TestSpec6FilterESaIS3_EEEONSt16remove_referenceIT_E4typeEOS8_
FN:101,_ZSt4moveIRSsEONSt16remove_referenceIT_E4typeEOS2_
FN:101,_ZSt4moveIRN5Catch8TestSpec6FilterEEONSt16remove_referenceIT_E4typeEOS5_
FN:101,_ZSt4moveIRN5Catch14SourceLineInfoEEONSt16remove_referenceIT_E4typeEOS4_
FN:101,_ZSt4moveIRN5Catch12TestCaseInfo17SpecialPropertiesEEONSt16remove_referenceIT_E4typeEOS5_
FN:101,_ZSt4moveIRPN5Catch11MessageInfoEEONSt16remove_referenceIT_E4typeEOS5_
FN:101,_ZSt4moveIRPKN5Catch7IConfigEEONSt16remove_referenceIT_E4typeEOS6_
FN:101,_ZSt4moveIRPN5Catch22CumulativeReporterBase11SectionNodeEEONSt16remove_referenceIT_E4typeEOS6_
FN:101,_ZSt4moveIRSaIN5Catch8TestSpec6FilterEEEONSt16remove_referenceIT_E4typeEOS6_
FN:101,_ZSt4moveIRPN5Catch8TestSpec7PatternEEONSt16remove_referenceIT_E4typeEOS6_
FN:101,_ZSt4moveIRN5Catch5Clara11CommandLineINS0_10ConfigDataEE3ArgEEONSt16remove_referenceIT_E4typeEOS8_
FN:101,_ZSt4moveIRN5Catch8TestCaseEEONSt16remove_referenceIT_E4typeEOS4_
FN:101,_ZSt4moveIRPSt18_Rb_tree_node_baseEONSt16remove_referenceIT_E4typeEOS4_
FN:101,_ZSt4moveIRSaIN5Catch11MessageInfoEEEONSt16remove_referenceIT_E4typeEOS5_
FN:101,_ZSt4moveIRSaIN5Catch5Clara6Parser5TokenEEEONSt16remove_referenceIT_E4typeEOS7_
FN:101,_ZSt4moveIRN5Catch11SectionInfoEEONSt16remove_referenceIT_E4typeEOS4_
FN:101,_ZSt4moveIRN5Catch14SectionEndInfoEEONSt16remove_referenceIT_E4typeEOS4_
FN:101,_ZSt4moveIRPN5Catch5Clara6Parser5TokenEEONSt16remove_referenceIT_E4typeEOS7_
FN:101,_ZSt4moveIRPN5Catch8TestSpec6FilterEEONSt16remove_referenceIT_E4typeEOS6_
FN:101,_ZSt4moveIRSt6vectorIN5Catch8TestCaseESaIS2_EEEONSt16remove_referenceIT_E4typeEOS7_
FN:101,_ZSt4moveIRSt6vectorIN5Catch5Clara6Parser5TokenESaIS4_EEEONSt16remove_referenceIT_E4typeEOS9_
FN:101,_ZSt4moveIRPN5Catch6ConfigEEONSt16remove_referenceIT_E4typeEOS5_
FN:101,_ZSt4moveIRSt4lessISsEEONSt16remove_referenceIT_E4typeEOS4_
FN:101,_ZSt4moveIRPN5Catch3PtrINS0_8TestSpec7PatternEEEEONSt16remove_referenceIT_E4typeEOS8_
FN:101,_ZSt4moveIRPN5Catch5Clara11CommandLineINS0_10ConfigDataEE3ArgEEONSt16remove_referenceIT_E4typeEOS9_
FN:101,_ZSt4moveIRN5Catch11MessageInfoEEONSt16remove_referenceIT_E4typeEOS4_
FN:101,_ZSt4moveIRjEONSt16remove_referenceIT_E4typeEOS2_
FN:101,_ZSt4moveIRSaISt13_Rb_tree_nodeISsEEEONSt16remove_referenceIT_E4typeEOS5_
FN:166,_ZSt4swapIPN5Catch9ITestCaseEEvRT_S4_
FN:166,_ZSt4swapIPN5Catch8TestSpec6FilterEEvRT_S5_
FN:166,_ZSt4swapIPN5Catch3PtrINS0_22CumulativeReporterBase4NodeINS0_14TestGroupStatsENS3_INS0_13TestCaseStatsENS2_11SectionNodeEEEEEEEEvRT_SC_
FN:166,_ZSt4swapISt4lessISsEEvRT_S3_
FN:166,_ZSt4swapIPN5Catch22CumulativeReporterBase11SectionNodeEEvRT_S5_
FN:166,_ZSt4swapIPN5Catch18IStreamingReporterEEvRT_S4_
FN:166,_ZSt4swapIPKN5Catch7IConfigEEvRT_S5_
FN:166,_ZSt4swapIPSt18_Rb_tree_node_baseEvRT_S3_
FN:166,_ZSt4swapIPN5Catch11MessageInfoEEvRT_S4_
FN:166,_ZSt4swapIPN5Catch8TestSpec7PatternEEvRT_S5_
FN:166,_ZSt4swapIPN5Catch8TestCaseEEvRT_S4_
FN:166,_ZSt4swapIN5Catch12TestCaseInfo17SpecialPropertiesEEvRT_S4_
FN:166,_ZSt4swapIPN5Catch5Clara11CommandLineINS0_10ConfigDataEE3ArgEEvRT_S8_
FN:166,_ZSt4swapIjEvRT_S1_
FN:166,_ZSt4swapIPSsEvRT_S2_
FN:166,_ZSt4swapIN5Catch8TestCaseEEvRT_S3_
FN:166,_ZSt4swapIPN5Catch16TestCaseTracking8ITrackerEEvRT_S5_
FN:166,_ZSt4swapIPN5Catch3PtrINS0_8TestSpec7PatternEEEEvRT_S7_
FN:166,_ZSt4swapIPN5Catch5Clara6Parser5TokenEEvRT_S6_
FN:166,_ZSt4swapIN5Catch14SourceLineInfoEEvRT_S3_
FN:166,_ZSt4swapIPN5Catch3PtrINS0_22CumulativeReporterBase4NodeINS0_13TestCaseStatsENS2_11SectionNodeEEEEEEvRT_SA_
FN:166,_ZSt4swapIPN5Catch6ConfigEEvRT_S4_
FNDA:0,_ZSt11__addressofIN5Catch15ConsoleReporter13SummaryColumnEEPT_RS3_
FNDA:1,_ZSt11__addressofIN5Catch3PtrINS0_22CumulativeReporterBase4NodeINS0_12TestRunStatsENS3_INS0_14TestGroupStatsENS3_INS0_13TestCaseStatsENS2_11SectionNodeEEEEEEEEEEPT_RSC_
FNDA:1,_ZSt11__addressofIN5Catch3PtrINS0_22CumulativeReporterBase4NodeINS0_14TestGroupStatsENS3_INS0_13TestCaseStatsENS2_11SectionNodeEEEEEEEEPT_RSA_
FNDA:4,_ZSt11__addressofIN5Catch3PtrINS0_22CumulativeReporterBase4NodeINS0_13TestCaseStatsENS2_11SectionNodeEEEEEEPT_RS8_
FNDA:0,_ZSt11__addressofISt6vectorIN5Catch3PtrINS1_22CumulativeReporterBase11SectionNodeEEESaIS5_EEEPT_RS8_
FNDA:8,_ZSt11__addressofIN5Catch14AssertionStatsEEPT_RS2_
FNDA:2,_ZSt11__addressofIN5Catch3PtrINS0_22CumulativeReporterBase11SectionNodeEEEEPT_RS5_
FNDA:0,_ZSt11__addressofIN5Catch11SectionInfoEEPT_RS2_
FNDA:0,_ZSt11__addressofIN5Catch3PtrINS0_18IStreamingReporterEEEEPT_RS4_
FNDA:4,_ZSt11__addressofIN5Catch5Clara6Parser5TokenEEPT_RS4_
FNDA:0,_ZSt11__addressofIN5Catch3PtrINS0_16IReporterFactoryEEEEPT_RS4_
FNDA:0,_ZSt11__addressofIN5Catch14SectionEndInfoEEPT_RS2_
FNDA:2,_ZSt11__addressofIN5Catch3PtrINS0_16TestCaseTracking8ITrackerEEEEPT_RS5_
FNDA:8,_ZSt11__addressofIN5Catch8TestCaseEEPT_RS2_
FNDA:0,_ZSt11__addressofIN5Catch11MessageInfoEEPT_RS2_
FNDA:85,_ZSt11__addressofIN5Catch5Clara11CommandLineINS0_10ConfigDataEE3ArgEEPT_RS6_
FNDA:109,_ZSt11__addressofISsEPT_RS0_
FNDA:3,_ZSt11__addressofIN5Catch8TestSpec6FilterEEPT_RS3_
FNDA:5,_ZSt11__addressofIN5Catch3PtrINS0_8TestSpec7PatternEEEEPT_RS5_
FNDA:0,_ZSt11__addressofIKSt4pairIKiN5Catch5Clara11CommandLineINS2_10ConfigDataEE3ArgEEEPT_RSA_
FNDA:0,_ZSt11__addressofIKSt4pairIKSsN5Catch8TagAliasEEEPT_RS6_
FNDA:0,_ZSt11__addressofIKSt4pairIKSsPN5Catch14IGeneratorInfoEEEPT_RS7_
FNDA:0,_ZSt11__addressofIKSt4pairIKSsPN5Catch18IGeneratorsForTestEEEPT_RS7_
FNDA:0,_ZSt11__addressofIKN5Catch8TestCaseEEPT_RS3_
FNDA:1,_ZSt11__addressofIKSt4pairIKSsN5Catch3PtrINS2_16IReporterFactoryEEEEEPT_RS8_
FNDA:0,_ZSt11__addressofIKSt4pairIKSsN5Catch7TagInfoEEEPT_RS6_
FNDA:0,_ZSt11__addressofISt4pairIKSsN5Catch7TagInfoEEEPT_RS5_
FNDA:31,_ZSt7forwardIRN5Catch5Clara11CommandLineINS0_10ConfigDataEE3ArgEEOT_RNSt16remove_referenceIS7_E4typeE
FNDA:0,_ZSt7forwardIRN5Catch3PtrINS0_8TestSpec7PatternEEEEOT_RNSt16remove_referenceIS6_E4typeE
FNDA:0,_ZSt7forwardIRN5Catch3PtrINS0_22CumulativeReporterBase4NodeINS0_12TestRunStatsENS3_INS0_14TestGroupStatsENS3_INS0_13TestCaseStatsENS2_11SectionNodeEEEEEEEEEEOT_RNSt16remove_referenceISD_E4typeE
FNDA:0,_ZSt7forwardIRN5Catch3PtrINS0_22CumulativeReporterBase4NodeINS0_14TestGroupStatsENS3_INS0_13TestCaseStatsENS2_11SectionNodeEEEEEEEEOT_RNSt16remove_referenceISB_E4typeE
FNDA:1,_ZSt7forwardIRN5Catch3PtrINS0_22CumulativeReporterBase4NodeINS0_13TestCaseStatsENS2_11SectionNodeEEEEEEOT_RNSt16remove_referenceIS9_E4typeE
FNDA:2,_ZSt7forwardIN5Catch14AssertionStatsEEOT_RNSt16remove_referenceIS2_E4typeE
FNDA:0,_ZSt7forwardIRN5Catch3PtrINS0_22CumulativeReporterBase11SectionNodeEEEEOT_RNSt16remove_referenceIS6_E4typeE
FNDA:0,_ZSt7forwardIN5Catch11SectionInfoEEOT_RNSt16remove_referenceIS2_E4typeE
FNDA:0,_ZSt7forwardIRN5Catch3PtrINS0_18IStreamingReporterEEEEOT_RNSt16remove_referenceIS5_E4typeE
FNDA:0,_ZSt7forwardIRN5Catch3PtrINS0_16IReporterFactoryEEEEOT_RNSt16remove_referenceIS5_E4typeE
FNDA:0,_ZSt7forwardIN5Catch14SectionEndInfoEEOT_RNSt16remove_referenceIS2_E4typeE
FNDA:0,_ZSt7forwardIRN5Catch3PtrINS0_16TestCaseTracking8ITrackerEEEEOT_RNSt16remove_referenceIS6_E4typeE
FNDA:0,_ZSt7forwardIN5Catch11MessageInfoEEOT_RNSt16remove_referenceIS2_E4typeE
FNDA:0,_ZSt7forwardIN5Catch8TestSpec6FilterEEOT_RNSt16remove_referenceIS3_E4typeE
FNDA:1,_ZSt7forwardIRN5Catch8TestCaseEEOT_RNSt16remove_referenceIS3_E4typeE
FNDA:0,_ZSt7forwardIRKN5Catch5Clara6Parser5TokenEEOT_RNSt16remove_referenceIS6_E4typeE
FNDA:0,_ZSt7forwardIRPSt13_Rb_tree_nodeISt4pairIKSsN5Catch8TagAliasEEEEOT_RNSt16remove_referenceIS9_E4typeE
FNDA:0,_ZSt7forwardIRPSt13_Rb_tree_nodeISt4pairIKSsPN5Catch14IGeneratorInfoEEEEOT_RNSt16remove_referenceISA_E4typeE
FNDA:0,_ZSt7forwardIRPSt13_Rb_tree_nodeISt4pairIKSsPN5Catch18IGeneratorsForTestEEEEOT_RNSt16remove_referenceISA_E4typeE
FNDA:8,_ZSt7forwardIRPSt13_Rb_tree_nodeISt4pairIKSsN5Catch3PtrINS3_16IReporterFactoryEEEEEEOT_RNSt16remove_referenceISB_E4typeE
FNDA:4,_ZSt7forwardIRPSt13_Rb_tree_nodeIN5Catch8TestCaseEEEOT_RNSt16remove_referenceIS6_E4typeE
FNDA:0,_ZSt7forwardIRPSt13_Rb_tree_nodeISt4pairIKSsN5Catch7TagInfoEEEEOT_RNSt16remove_referenceIS9_E4typeE
FNDA:0,_ZSt7forwardIRPSt18_Rb_tree_node_baseEOT_RNSt16remove_referenceIS3_E4typeE
FNDA:8,_ZSt7forwardIRPSt13_Rb_tree_nodeISsEEOT_RNSt16remove_referenceIS4_E4typeE
FNDA:98,_ZSt7forwardIN5Catch5Clara11CommandLineINS0_10ConfigDataEE3ArgEEOT_RNSt16remove_referenceIS6_E4typeE
FNDA:0,_ZSt7forwardIN5Catch15ConsoleReporter13SummaryColumnEEOT_RNSt16remove_referenceIS3_E4typeE
FNDA:0,_ZSt7forwardISt17_Rb_tree_iteratorISt4pairIKSsN5Catch8TagAliasEEEEOT_RNSt16remove_referenceIS7_E4typeE
FNDA:0,_ZSt7forwardISt17_Rb_tree_iteratorISt4pairIKSsPN5Catch14IGeneratorInfoEEEEOT_RNSt16remove_referenceIS8_E4typeE
FNDA:0,_ZSt7forwardISt17_Rb_tree_iteratorISt4pairIKSsPN5Catch18IGeneratorsForTestEEEEOT_RNSt16remove_referenceIS8_E4typeE
FNDA:4,_ZSt7forwardISt17_Rb_tree_iteratorISt4pairIKSsN5Catch3PtrINS3_16IReporterFactoryEEEEEEOT_RNSt16remove_referenceIS9_E4typeE
FNDA:2,_ZSt7forwardISt17_Rb_tree_iteratorIN5Catch8TestCaseEEEOT_RNSt16remove_referenceIS4_E4typeE
FNDA:0,_ZSt7forwardIPN5Catch16TestCaseTracking8ITrackerEEOT_RNSt16remove_referenceIS4_E4typeE
FNDA:0,_ZSt7forwardISt17_Rb_tree_iteratorISt4pairIKSsN5Catch7TagInfoEEEEOT_RNSt16remove_referenceIS7_E4typeE
FNDA:10,_ZSt7forwardIbEOT_RNSt16remove_referenceIS0_E4typeE
FNDA:4,_ZSt7forwardISt17_Rb_tree_iteratorISsEEOT_RNSt16remove_referenceIS2_E4typeE
FNDA:11,_ZSt7forwardIN5Catch5Clara6Parser5TokenEEOT_RNSt16remove_referenceIS4_E4typeE
FNDA:6,_ZSt7forwardIRKN5Catch3PtrINS0_8TestSpec7PatternEEEEOT_RNSt16remove_referenceIS7_E4typeE
FNDA:4,_ZSt7forwardIRKN5Catch3PtrINS0_22CumulativeReporterBase4NodeINS0_12TestRunStatsENS3_INS0_14TestGroupStatsENS3_INS0_13TestCaseStatsENS2_11SectionNodeEEEEEEEEEEOT_RNSt16remove_referenceISE_E4typeE
FNDA:4,_ZSt7forwardIRKN5Catch3PtrINS0_22CumulativeReporterBase4NodeINS0_14TestGroupStatsENS3_INS0_13TestCaseStatsENS2_11SectionNodeEEEEEEEEOT_RNSt16remove_referenceISC_E4typeE
FNDA:8,_ZSt7forwardIRKN5Catch3PtrINS0_22CumulativeReporterBase4NodeINS0_13TestCaseStatsENS2_11SectionNodeEEEEEEOT_RNSt16remove_referenceISA_E4typeE
FNDA:16,_ZSt7forwardIRKN5Catch14AssertionStatsEEOT_RNSt16remove_referenceIS4_E4typeE
FNDA:15,_ZSt7forwardIRKN5Catch3PtrINS0_22CumulativeReporterBase11SectionNodeEEEEOT_RNSt16remove_referenceIS7_E4typeE
FNDA:0,_ZSt7forwardIRKN5Catch11SectionInfoEEOT_RNSt16remove_referenceIS4_E4typeE
FNDA:0,_ZSt7forwardIRKN5Catch3PtrINS0_18IStreamingReporterEEEEOT_RNSt16remove_referenceIS6_E4typeE
FNDA:0,_ZSt7forwardISt4pairIPKcN5Catch8TagAliasEEEOT_RNSt16remove_referenceIS6_E4typeE
FNDA:0,_ZSt7forwardIRKPN5Catch14IGeneratorInfoEEOT_RNSt16remove_referenceIS5_E4typeE
FNDA:0,_ZSt7forwardISt4pairISsPN5Catch14IGeneratorInfoEEEOT_RNSt16remove_referenceIS5_E4typeE
FNDA:0,_ZSt7forwardISt4pairISsPN5Catch18IGeneratorsForTestEEEOT_RNSt16remove_referenceIS5_E4typeE
FNDA:0,_ZSt7forwardISt14default_deleteIN5Catch13StreamBufBaseEEEOT_RNSt16remove_referenceIS4_E4typeE
FNDA:0,_ZSt7forwardIRPN5Catch13StreamBufBaseEEOT_RNSt16remove_referenceIS4_E4typeE
FNDA:0,_ZSt7forwardIRKPKN5Catch20IExceptionTranslatorEEOT_RNSt16remove_referenceIS6_E4typeE
FNDA:32,_ZSt7forwardISt4pairISsN5Catch3PtrINS1_16IReporterFactoryEEEEEOT_RNSt16remove_referenceIS6_E4typeE
FNDA:24,_ZSt7forwardIRKN5Catch8TestCaseEEOT_RNSt16remove_referenceIS4_E4typeE
FNDA:2,_ZSt7forwardIRSt17_Rb_tree_iteratorIN5Catch8TestCaseEEEOT_RNSt16remove_referenceIS5_E4typeE
FNDA:0,_ZSt7forwardIRKN5Catch14SectionEndInfoEEOT_RNSt16remove_referenceIS4_E4typeE
FNDA:8,_ZSt7forwardIRKN5Catch3PtrINS0_16TestCaseTracking8ITrackerEEEEOT_RNSt16remove_referenceIS7_E4typeE
FNDA:0,_ZSt7forwardISt4pairISsN5Catch7TagInfoEEEOT_RNSt16remove_referenceIS4_E4typeE
FNDA:6,_ZSt7forwardIRbEOT_RNSt16remove_referenceIS1_E4typeE
FNDA:4,_ZSt7forwardIRSt17_Rb_tree_iteratorISsEEOT_RNSt16remove_referenceIS3_E4typeE
FNDA:0,_ZSt7forwardIRKN5Catch11MessageInfoEEOT_RNSt16remove_referenceIS4_E4typeE
FNDA:4,_ZSt7forwardISt14default_deleteIKN5Catch7IStreamEEEOT_RNSt16remove_referenceIS5_E4typeE
FNDA:3,_ZSt7forwardIRPKN5Catch7IStreamEEOT_RNSt16remove_referenceIS5_E4typeE
FNDA:5,_ZSt7forwardIRKN5Catch8TestSpec6FilterEEOT_RNSt16remove_referenceIS5_E4typeE
FNDA:0,_ZSt7forwardIRKjEOT_RNSt16remove_referenceIS2_E4typeE
FNDA:0,_ZSt7forwardIPKcEOT_RNSt16remove_referenceIS2_E4typeE
FNDA:0,_ZSt7forwardIN5Catch8TagAliasEEOT_RNSt16remove_referenceIS2_E4typeE
FNDA:0,_ZSt7forwardIRPKcEOT_RNSt16remove_referenceIS3_E4typeE
FNDA:0,_ZSt7forwardIPN5Catch14IGeneratorInfoEEOT_RNSt16remove_referenceIS3_E4typeE
FNDA:0,_ZSt7forwardIRPN5Catch14IGeneratorInfoEEOT_RNSt16remove_referenceIS4_E4typeE
FNDA:0,_ZSt7forwardIPN5Catch18IGeneratorsForTestEEOT_RNSt16remove_referenceIS3_E4typeE
FNDA:0,_ZSt7forwardIRPN5Catch18IGeneratorsForTestEEOT_RNSt16remove_referenceIS4_E4typeE
FNDA:4,_ZSt7forwardIN5Catch3PtrINS0_16IReporterFactoryEEEEOT_RNSt16remove_referenceIS4_E4typeE
FNDA:4,_ZSt7forwardIRKN5Catch3PtrINS0_16IReporterFactoryEEEEOT_RNSt16remove_referenceIS6_E4typeE
FNDA:261,_ZSt7forwardIRKSsEOT_RNSt16remove_referenceIS2_E4typeE
FNDA:98,_ZSt7forwardISsEOT_RNSt16remove_referenceIS0_E4typeE
FNDA:0,_ZSt7forwardIN5Catch7TagInfoEEOT_RNSt16remove_referenceIS2_E4typeE
FNDA:0,_ZSt7forwardIRSsEOT_RNSt16remove_referenceIS1_E4typeE
FNDA:18,_ZSt4moveIRPN5Catch11MessageInfoEEONSt16remove_referenceIT_E4typeEOS5_
FNDA:4,_ZSt4moveIRSaIN5Catch11MessageInfoEEEONSt16remove_referenceIT_E4typeEOS5_
FNDA:2,_ZSt4moveIRSt6vectorIN5Catch11MessageInfoESaIS2_EEEONSt16remove_referenceIT_E4typeEOS7_
FNDA:2,_ZSt4moveIRN5Catch14AssertionStatsEEONSt16remove_referenceIT_E4typeEOS4_
FNDA:0,_ZSt4moveIRN5Catch11SectionInfoEEONSt16remove_referenceIT_E4typeEOS4_
FNDA:0,_ZSt4moveIRN5Catch14SectionEndInfoEEONSt16remove_referenceIT_E4typeEOS4_
FNDA:0,_ZSt4moveIRN5Catch8TestSpec6FilterEEONSt16remove_referenceIT_E4typeEOS5_
FNDA:63,_ZSt4moveIRPN5Catch5Clara6Parser5TokenEEONSt16remove_referenceIT_E4typeEOS7_
FNDA:18,_ZSt4moveIRPN5Catch8TestCaseEEONSt16remove_referenceIT_E4typeEOS5_
FNDA:207,_ZSt4moveIRPSsEONSt16remove_referenceIT_E4typeEOS3_
FNDA:18,_ZSt4moveIRPN5Catch8TestSpec6FilterEEONSt16remove_referenceIT_E4typeEOS6_
FNDA:18,_ZSt4moveIRPN5Catch3PtrINS0_8TestSpec7PatternEEEEONSt16remove_referenceIT_E4typeEOS8_
FNDA:3,_ZSt4moveIRSaIN5Catch3PtrINS0_8TestSpec7PatternEEEEEONSt16remove_referenceIT_E4typeEOS8_
FNDA:3,_ZSt4moveIRPN5Catch8TestSpec7PatternEEONSt16remove_referenceIT_E4typeEOS6_
FNDA:9,_ZSt4moveIRPN5Catch3PtrINS0_22CumulativeReporterBase4NodeINS0_14TestGroupStatsENS3_INS0_13TestCaseStatsENS2_11SectionNodeEEEEEEEEONSt16remove_referenceIT_E4typeEOSD_
FNDA:9,_ZSt4moveIRPN5Catch3PtrINS0_22CumulativeReporterBase4NodeINS0_13TestCaseStatsENS2_11SectionNodeEEEEEEONSt16remove_referenceIT_E4typeEOSB_
FNDA:18,_ZSt4moveIRPN5Catch22CumulativeReporterBase11SectionNodeEEONSt16remove_referenceIT_E4typeEOS6_
FNDA:0,_ZSt4moveIRSt4lessISsEEONSt16remove_referenceIT_E4typeEOS4_
FNDA:0,_ZSt4moveIRPSt18_Rb_tree_node_baseEONSt16remove_referenceIT_E4typeEOS4_
FNDA:3,_ZSt4moveIRPKN5Catch7IConfigEEONSt16remove_referenceIT_E4typeEOS6_
FNDA:0,_ZSt4moveIRN5Catch8TestCaseEEONSt16remove_referenceIT_E4typeEOS4_
FNDA:3,_ZSt4moveIRPN5Catch6ConfigEEONSt16remove_referenceIT_E4typeEOS5_
FNDA:11,_ZSt4moveIRSaIN5Catch5Clara6Parser5TokenEEEONSt16remove_referenceIT_E4typeEOS7_
FNDA:9,_ZSt4moveIRPN5Catch18IStreamingReporterEEONSt16remove_referenceIT_E4typeEOS5_
FNDA:3,_ZSt4moveIRPN5Catch5Clara11CommandLineINS0_10ConfigDataEE3ArgEEONSt16remove_referenceIT_E4typeEOS9_
FNDA:0,_ZSt4moveIRPN5Catch9ITestCaseEEONSt16remove_referenceIT_E4typeEOS5_
FNDA:0,_ZSt4moveIRSaISt13_Rb_tree_nodeISsEEEONSt16remove_referenceIT_E4typeEOS5_
FNDA:3,_ZSt4moveIRSaIN5Catch8TestCaseEEEONSt16remove_referenceIT_E4typeEOS5_
FNDA:23,_ZSt4moveIRN5Catch5Clara11CommandLineINS0_10ConfigDataEE3ArgEEONSt16remove_referenceIT_E4typeEOS8_
FNDA:46,_ZSt4moveIRSaISsEEONSt16remove_referenceIT_E4typeEOS3_
FNDA:3,_ZSt4moveIRSaIN5Catch8TestSpec6FilterEEEONSt16remove_referenceIT_E4typeEOS6_
FNDA:0,_ZSt4moveIRN5Catch15ConsoleReporter13SummaryColumnEEONSt16remove_referenceIT_E4typeEOS5_
FNDA:0,_ZSt4moveIRN5Catch14SourceLineInfoEEONSt16remove_referenceIT_E4typeEOS4_
FNDA:0,_ZSt4moveIRN5Catch12TestCaseInfo17SpecialPropertiesEEONSt16remove_referenceIT_E4typeEOS5_
FNDA:10,_ZSt4moveIRSt6vectorIN5Catch5Clara6Parser5TokenESaIS4_EEEONSt16remove_referenceIT_E4typeEOS9_
FNDA:0,_ZSt4moveIRjEONSt16remove_referenceIT_E4typeEOS2_
FNDA:0,_ZSt4moveIRN5Catch11MessageInfoEEONSt16remove_referenceIT_E4typeEOS4_
FNDA:6,_ZSt4moveIRPN5Catch16TestCaseTracking8ITrackerEEONSt16remove_referenceIT_E4typeEOS6_
FNDA:0,_ZSt4moveIRSt8_Rb_treeISsSsSt9_IdentityISsESt4lessISsESaISsEEEONSt16remove_referenceIT_E4typeEOS9_
FNDA:3,_ZSt4moveIRSt6vectorIN5Catch8TestCaseESaIS2_EEEONSt16remove_referenceIT_E4typeEOS7_
FNDA:3,_ZSt4moveIRN5Catch5Clara6Parser5TokenEEONSt16remove_referenceIT_E4typeEOS6_
FNDA:23,_ZSt4moveIRSt6vectorISsSaISsEEEONSt16remove_referenceIT_E4typeEOS5_
FNDA:22,_ZSt4moveIRSsEONSt16remove_referenceIT_E4typeEOS2_
FNDA:3,_ZSt4moveIRSt6vectorIN5Catch8TestSpec6FilterESaIS3_EEEONSt16remove_referenceIT_E4typeEOS8_
FNDA:3,_ZSt4moveIRSt6vectorIN5Catch3PtrINS1_8TestSpec7PatternEEESaIS5_EEEONSt16remove_referenceIT_E4typeEOSA_
FNDA:6,_ZSt4swapIPN5Catch11MessageInfoEEvRT_S4_
FNDA:0,_ZSt4swapIN5Catch8TestCaseEEvRT_S3_
FNDA:21,_ZSt4swapIPN5Catch5Clara6Parser5TokenEEvRT_S6_
FNDA:6,_ZSt4swapIPN5Catch8TestCaseEEvRT_S4_
FNDA:69,_ZSt4swapIPSsEvRT_S2_
FNDA:6,_ZSt4swapIPN5Catch8TestSpec6FilterEEvRT_S5_
FNDA:6,_ZSt4swapIPN5Catch3PtrINS0_8TestSpec7PatternEEEEvRT_S7_
FNDA:1,_ZSt4swapIPN5Catch8TestSpec7PatternEEvRT_S5_
FNDA:3,_ZSt4swapIPN5Catch3PtrINS0_22CumulativeReporterBase4NodeINS0_14TestGroupStatsENS3_INS0_13TestCaseStatsENS2_11SectionNodeEEEEEEEEvRT_SC_
FNDA:3,_ZSt4swapIPN5Catch3PtrINS0_22CumulativeReporterBase4NodeINS0_13TestCaseStatsENS2_11SectionNodeEEEEEEvRT_SA_
FNDA:6,_ZSt4swapIPN5Catch22CumulativeReporterBase11SectionNodeEEvRT_S5_
FNDA:0,_ZSt4swapISt4lessISsEEvRT_S3_
FNDA:0,_ZSt4swapIPSt18_Rb_tree_node_baseEvRT_S3_
FNDA:1,_ZSt4swapIPKN5Catch7IConfigEEvRT_S5_
FNDA:1,_ZSt4swapIPN5Catch6ConfigEEvRT_S4_
FNDA:3,_ZSt4swapIPN5Catch18IStreamingReporterEEvRT_S4_
FNDA:2,_ZSt4swapIPN5Catch16TestCaseTracking8ITrackerEEvRT_S5_
FNDA:1,_ZSt4swapIPN5Catch5Clara11CommandLineINS0_10ConfigDataEE3ArgEEvRT_S8_
FNDA:0,_ZSt4swapIPN5Catch9ITestCaseEEvRT_S4_
FNDA:0,_ZSt4swapIN5Catch14SourceLineInfoEEvRT_S3_
FNDA:0,_ZSt4swapIN5Catch12TestCaseInfo17SpecialPropertiesEEvRT_S4_
FNDA:0,_ZSt4swapIjEvRT_S1_
FNF:171
FNH:91
DA:47,233
DA:50,233
DA:76,692
DA:77,692
DA:101,569
DA:102,569
DA:166,135
DA:175,135
DA:176,135
DA:177,135
DA:178,135
LF:11
LH:11
end_of_record
SF:/opt/Programs/buildroot-at91/output/host/usr/arm-buildroot-linux-gnueabi/include/c++/4.8.2/bits/postypes.h
FN:133,_ZNSt4fposI11__mbstate_tEC2Ex
FNDA:0,_ZNSt4fposI11__mbstate_tEC2Ex
FNF:1
FNH:0
DA:133,0
DA:134,0
LF:2
LH:0
end_of_record
SF:/opt/Programs/buildroot-at91/output/host/usr/arm-buildroot-linux-gnueabi/include/c++/4.8.2/bits/random.h
FN:1680,_ZNSt24uniform_int_distributionIjE10param_typeC2Ejj
FN:1688,_ZNKSt24uniform_int_distributionIjE10param_type1aEv
FN:1692,_ZNKSt24uniform_int_distributionIjE10param_type1bEv
FN:1709,_ZNSt24uniform_int_distributionIjEC2Ejj
FNDA:0,_ZNSt24uniform_int_distributionIjE10param_typeC2Ejj
FNDA:0,_ZNKSt24uniform_int_distributionIjE10param_type1aEv
FNDA:0,_ZNKSt24uniform_int_distributionIjE10param_type1bEv
FNDA:0,_ZNSt24uniform_int_distributionIjEC2Ejj
FNF:4
FNH:0
DA:1680,0
DA:1682,0
DA:1685,0
DA:1688,0
DA:1689,0
DA:1692,0
DA:1693,0
DA:1709,0
DA:1711,0
DA:1712,0
LF:10
LH:0
end_of_record
SF:/opt/Programs/buildroot-at91/output/host/usr/arm-buildroot-linux-gnueabi/include/c++/4.8.2/bits/random.tcc
FN:878,_ZNSt24uniform_int_distributionIjEclIN5Catch21RandomNumberGeneratorEEEjRT_RKNS0_10param_typeE
FNDA:0,_ZNSt24uniform_int_distributionIjEclIN5Catch21RandomNumberGeneratorEEEjRT_RKNS0_10param_typeE
FNF:1
FNH:0
DA:878,0
DA:888,0
DA:889,0
DA:890,0
DA:892,0
DA:896,0
DA:899,0
DA:900,0
DA:901,0
DA:902,0
DA:903,0
DA:905,0
DA:907,0
DA:925,0
DA:927,0
DA:928,0
DA:929,0
DA:930,0
DA:935,0
DA:937,0
LF:20
LH:0
end_of_record
SF:/opt/Programs/buildroot-at91/output/host/usr/arm-buildroot-linux-gnueabi/include/c++/4.8.2/bits/stl_algo.h
FN:78,_ZSt22__move_median_to_firstIN9__gnu_cxx17__normal_iteratorIPN5Catch8TestCaseESt6vectorIS3_SaIS3_EEEEEvT_S9_S9_S9_
FN:158,_ZSt6__findIN9__gnu_cxx17__normal_iteratorIPKSsSt6vectorISsSaISsEEEESsET_S8_S8_RKT0_St26random_access_iterator_tag
FN:158,_ZSt6__findIN9__gnu_cxx17__normal_iteratorIPKcSsEEcET_S5_S5_RKT0_St26random_access_iterator_tag
FN:158,_ZSt6__findIN9__gnu_cxx17__normal_iteratorIPN5Catch11MessageInfoESt6vectorIS3_SaIS3_EEEES3_ET_S9_S9_RKT0_St26random_access_iterator_tag
FN:206,_ZSt9__find_ifIN9__gnu_cxx17__normal_iteratorIPN5Catch3PtrINS2_22CumulativeReporterBase11SectionNodeEEESt6vectorIS6_SaIS6_EEEENS4_13BySectionInfoEET_SD_SD_T0_St26random_access_iterator_tag
FN:206,_ZSt9__find_ifIN9__gnu_cxx17__normal_iteratorIPN5Catch3PtrINS2_16TestCaseTracking8ITrackerEEESt6vectorIS6_SaIS6_EEEENS4_11TrackerBase14TrackerHasNameEET_SE_SE_T0_St26random_access_iterator_tag
FN:1091,_ZSt6removeIN9__gnu_cxx17__normal_iteratorIPN5Catch11MessageInfoESt6vectorIS3_SaIS3_EEEES3_ET_S9_S9_RKT0_
FN:1929,_ZSt13__heap_selectIN9__gnu_cxx17__normal_iteratorIPN5Catch8TestCaseESt6vectorIS3_SaIS3_EEEEEvT_S9_S9_
FN:2092,_ZSt25__unguarded_linear_insertIN9__gnu_cxx17__normal_iteratorIPN5Catch8TestCaseESt6vectorIS3_SaIS3_EEEEEvT_
FN:2129,_ZSt16__insertion_sortIN9__gnu_cxx17__normal_iteratorIPN5Catch8TestCaseESt6vectorIS3_SaIS3_EEEEEvT_S9_
FN:2174,_ZSt26__unguarded_insertion_sortIN9__gnu_cxx17__normal_iteratorIPN5Catch8TestCaseESt6vectorIS3_SaIS3_EEEEEvT_S9_
FN:2206,_ZSt22__final_insertion_sortIN9__gnu_cxx17__normal_iteratorIPN5Catch8TestCaseESt6vectorIS3_SaIS3_EEEEEvT_S9_
FN:2237,_ZSt21__unguarded_partitionIN9__gnu_cxx17__normal_iteratorIPN5Catch8TestCaseESt6vectorIS3_SaIS3_EEEES3_ET_S9_S9_RKT0_
FN:2278,_ZSt27__unguarded_partition_pivotIN9__gnu_cxx17__normal_iteratorIPN5Catch8TestCaseESt6vectorIS3_SaIS3_EEEEET_S9_S9_
FN:2302,_ZSt16__introsort_loopIN9__gnu_cxx17__normal_iteratorIPN5Catch8TestCaseESt6vectorIS3_SaIS3_EEEEiEvT_S9_T0_
FN:4367,_ZSt7shuffleIN9__gnu_cxx17__normal_iteratorIPN5Catch8TestCaseESt6vectorIS3_SaIS3_EEEERNS2_21RandomNumberGeneratorEEvT_SB_OT0_
FN:4432,_ZSt4findIN9__gnu_cxx17__normal_iteratorIPKSsSt6vectorISsSaISsEEEESsET_S8_S8_RKT0_
FN:4432,_ZSt4findIN9__gnu_cxx17__normal_iteratorIPKcSsEEcET_S5_S5_RKT0_
FN:4432,_ZSt4findIN9__gnu_cxx17__normal_iteratorIPN5Catch11MessageInfoESt6vectorIS3_SaIS3_EEEES3_ET_S9_S9_RKT0_
FN:4456,_ZSt7find_ifIN9__gnu_cxx17__normal_iteratorIPN5Catch3PtrINS2_16TestCaseTracking8ITrackerEEESt6vectorIS6_SaIS6_EEEENS4_11TrackerBase14TrackerHasNameEET_SE_SE_T0_
FN:4456,_ZSt7find_ifIN9__gnu_cxx17__normal_iteratorIPN5Catch3PtrINS2_22CumulativeReporterBase11SectionNodeEEESt6vectorIS6_SaIS6_EEEENS4_13BySectionInfoEET_SD_SD_T0_
FN:4915,_ZSt9transformIN9__gnu_cxx17__normal_iteratorIPcSsEES3_PFccEET0_T_S7_S6_T1_
FN:5285,_ZSt12partial_sortIN9__gnu_cxx17__normal_iteratorIPN5Catch8TestCaseESt6vectorIS3_SaIS3_EEEEEvT_S9_S9_
FN:5438,_ZSt4sortIN9__gnu_cxx17__normal_iteratorIPN5Catch8TestCaseESt6vectorIS3_SaIS3_EEEEEvT_S9_
FNDA:0,_ZSt22__move_median_to_firstIN9__gnu_cxx17__normal_iteratorIPN5Catch8TestCaseESt6vectorIS3_SaIS3_EEEEEvT_S9_S9_S9_
FNDA:0,_ZSt6__findIN9__gnu_cxx17__normal_iteratorIPN5Catch11MessageInfoESt6vectorIS3_SaIS3_EEEES3_ET_S9_S9_RKT0_St26random_access_iterator_tag
FNDA:0,_ZSt6__findIN9__gnu_cxx17__normal_iteratorIPKcSsEEcET_S5_S5_RKT0_St26random_access_iterator_tag
FNDA:9,_ZSt6__findIN9__gnu_cxx17__normal_iteratorIPKSsSt6vectorISsSaISsEEEESsET_S8_S8_RKT0_St26random_access_iterator_tag
FNDA:0,_ZSt9__find_ifIN9__gnu_cxx17__normal_iteratorIPN5Catch3PtrINS2_22CumulativeReporterBase11SectionNodeEEESt6vectorIS6_SaIS6_EEEENS4_13BySectionInfoEET_SD_SD_T0_St26random_access_iterator_tag
FNDA:2,_ZSt9__find_ifIN9__gnu_cxx17__normal_iteratorIPN5Catch3PtrINS2_16TestCaseTracking8ITrackerEEESt6vectorIS6_SaIS6_EEEENS4_11TrackerBase14TrackerHasNameEET_SE_SE_T0_St26random_access_iterator_tag
FNDA:0,_ZSt6removeIN9__gnu_cxx17__normal_iteratorIPN5Catch11MessageInfoESt6vectorIS3_SaIS3_EEEES3_ET_S9_S9_RKT0_
FNDA:0,_ZSt13__heap_selectIN9__gnu_cxx17__normal_iteratorIPN5Catch8TestCaseESt6vectorIS3_SaIS3_EEEEEvT_S9_S9_
FNDA:0,_ZSt25__unguarded_linear_insertIN9__gnu_cxx17__normal_iteratorIPN5Catch8TestCaseESt6vectorIS3_SaIS3_EEEEEvT_
FNDA:0,_ZSt16__insertion_sortIN9__gnu_cxx17__normal_iteratorIPN5Catch8TestCaseESt6vectorIS3_SaIS3_EEEEEvT_S9_
FNDA:0,_ZSt26__unguarded_insertion_sortIN9__gnu_cxx17__normal_iteratorIPN5Catch8TestCaseESt6vectorIS3_SaIS3_EEEEEvT_S9_
FNDA:0,_ZSt22__final_insertion_sortIN9__gnu_cxx17__normal_iteratorIPN5Catch8TestCaseESt6vectorIS3_SaIS3_EEEEEvT_S9_
FNDA:0,_ZSt21__unguarded_partitionIN9__gnu_cxx17__normal_iteratorIPN5Catch8TestCaseESt6vectorIS3_SaIS3_EEEES3_ET_S9_S9_RKT0_
FNDA:0,_ZSt27__unguarded_partition_pivotIN9__gnu_cxx17__normal_iteratorIPN5Catch8TestCaseESt6vectorIS3_SaIS3_EEEEET_S9_S9_
FNDA:0,_ZSt16__introsort_loopIN9__gnu_cxx17__normal_iteratorIPN5Catch8TestCaseESt6vectorIS3_SaIS3_EEEEiEvT_S9_T0_
FNDA:0,_ZSt7shuffleIN9__gnu_cxx17__normal_iteratorIPN5Catch8TestCaseESt6vectorIS3_SaIS3_EEEERNS2_21RandomNumberGeneratorEEvT_SB_OT0_
FNDA:0,_ZSt4findIN9__gnu_cxx17__normal_iteratorIPN5Catch11MessageInfoESt6vectorIS3_SaIS3_EEEES3_ET_S9_S9_RKT0_
FNDA:0,_ZSt4findIN9__gnu_cxx17__normal_iteratorIPKcSsEEcET_S5_S5_RKT0_
FNDA:9,_ZSt4findIN9__gnu_cxx17__normal_iteratorIPKSsSt6vectorISsSaISsEEEESsET_S8_S8_RKT0_
FNDA:0,_ZSt7find_ifIN9__gnu_cxx17__normal_iteratorIPN5Catch3PtrINS2_22CumulativeReporterBase11SectionNodeEEESt6vectorIS6_SaIS6_EEEENS4_13BySectionInfoEET_SD_SD_T0_
FNDA:2,_ZSt7find_ifIN9__gnu_cxx17__normal_iteratorIPN5Catch3PtrINS2_16TestCaseTracking8ITrackerEEESt6vectorIS6_SaIS6_EEEENS4_11TrackerBase14TrackerHasNameEET_SE_SE_T0_
FNDA:3,_ZSt9transformIN9__gnu_cxx17__normal_iteratorIPcSsEES3_PFccEET0_T_S7_S6_T1_
FNDA:0,_ZSt12partial_sortIN9__gnu_cxx17__normal_iteratorIPN5Catch8TestCaseESt6vectorIS3_SaIS3_EEEEEvT_S9_S9_
FNDA:0,_ZSt4sortIN9__gnu_cxx17__normal_iteratorIPN5Catch8TestCaseESt6vectorIS3_SaIS3_EEEEEvT_S9_
FNF:24
FNH:5
DA:78,0
DA:85,0
DA:87,0
DA:88,0
DA:89,0
DA:90,0
DA:92,0
DA:94,0
DA:95,0
DA:96,0
DA:97,0
DA:99,0
DA:100,0
DA:158,9
DA:162,9
DA:164,9
DA:166,0
DA:167,0
DA:168,0
DA:170,0
DA:171,0
DA:172,0
DA:174,0
DA:175,0
DA:176,0
DA:178,0
DA:179,0
DA:180,0
DA:183,9
DA:186,0
DA:187,0
DA:188,0
DA:190,1
DA:191,0
DA:192,1
DA:194,9
DA:195,1
DA:196,8
DA:199,8
DA:206,2
DA:210,2
DA:212,2
DA:214,0
DA:215,0
DA:216,0
DA:218,0
DA:219,0
DA:220,0
DA:222,0
DA:223,0
DA:224,0
DA:226,0
DA:227,0
DA:228,0
DA:231,2
DA:234,0
DA:235,0
DA:236,0
DA:238,0
DA:239,0
DA:240,0
DA:242,0
DA:243,0
DA:244,0
DA:247,2
DA:1091,0
DA:1101,0
DA:1102,0
DA:1103,0
DA:1104,0
DA:1105,0
DA:1106,0
DA:1107,0
DA:1109,0
DA:1110,0
DA:1112,0
DA:1929,0
DA:1933,0
DA:1934,0
DA:1935,0
DA:1936,0
DA:1937,0
DA:2092,0
DA:2095,0
DA:2096,0
DA:2097,0
DA:2098,0
DA:2100,0
DA:2101,0
DA:2102,0
DA:2104,0
DA:2105,0
DA:2129,0
DA:2132,0
DA:2133,0
DA:2135,0
DA:2137,0
DA:2140,0
DA:2141,0
DA:2142,0
DA:2145,0
DA:2174,0
DA:2180,0
DA:2181,0
DA:2182,0
DA:2206,0
DA:2209,0
DA:2211,0
DA:2212,0
DA:2215,0
DA:2216,0
DA:2237,0
DA:2242,0
DA:2243,0
DA:2244,0
DA:2245,0
DA:2246,0
DA:2247,0
DA:2248,0
DA:2249,0
DA:2250,0
DA:2278,0
DA:2281,0
DA:2282,0
DA:2283,0
DA:2302,0
DA:2306,0
DA:2308,0
DA:2310,0
DA:2311,0
DA:2313,0
DA:2315,0
DA:2316,0
DA:2317,0
DA:4367,0
DA:4375,0
DA:4376,0
DA:4384,0
DA:4386,0
DA:4387,0
DA:4432,9
DA:4441,9
DA:4456,2
DA:4465,2
DA:4915,3
DA:4925,35
DA:4926,32
DA:4927,3
DA:5285,0
DA:5299,0
DA:5300,0
DA:5301,0
DA:5438,0
DA:5449,0
DA:5451,0
DA:5452,0
DA:5453,0
DA:5455,0
LF:158
LH:23
end_of_record
SF:/opt/Programs/buildroot-at91/output/host/usr/arm-buildroot-linux-gnueabi/include/c++/4.8.2/bits/stl_algobase.h
FN:119,_ZSt9iter_swapIN9__gnu_cxx17__normal_iteratorIPN5Catch8TestCaseESt6vectorIS3_SaIS3_EEEES8_EvT_T0_
FN:193,_ZSt3minIjERKT_S2_S2_
FN:216,_ZSt3maxIjERKT_S2_S2_
FN:277,_ZSt12__niter_baseIPPKN5Catch20IExceptionTranslatorEENSt11_Niter_baseIT_E13iterator_typeES6_
FN:277,_ZSt12__niter_baseISt20back_insert_iteratorISt6vectorISsSaISsEEEENSt11_Niter_baseIT_E13iterator_typeES6_
FN:277,_ZSt12__niter_baseIN9__gnu_cxx17__normal_iteratorIPN5Catch8TestCaseESt6vectorIS3_SaIS3_EEEEENSt11_Niter_baseIT_E13iterator_typeESA_
FN:277,_ZSt12__niter_baseIN9__gnu_cxx17__normal_iteratorIPKSsSt6vectorISsSaISsEEEEENSt11_Niter_baseIT_E13iterator_typeES9_
FN:277,_ZSt12__niter_baseIPjENSt11_Niter_baseIT_E13iterator_typeES2_
FN:277,_ZSt12__niter_baseIPPN5Catch14IGeneratorInfoEENSt11_Niter_baseIT_E13iterator_typeES5_
FN:277,_ZSt12__niter_baseIN9__gnu_cxx17__normal_iteratorIPN5Catch11MessageInfoESt6vectorIS3_SaIS3_EEEEENSt11_Niter_baseIT_E13iterator_typeESA_
FN:277,_ZSt12__niter_baseISt16reverse_iteratorIN9__gnu_cxx17__normal_iteratorIPKcSsEEEENSt11_Niter_baseIT_E13iterator_typeES8_
FN:277,_ZSt12__niter_baseIPPN5Catch16TestCaseTracking8ITrackerEENSt11_Niter_baseIT_E13iterator_typeES6_
FN:277,_ZSt12__niter_baseIN9__gnu_cxx17__normal_iteratorIPKcSsEEENSt11_Niter_baseIT_E13iterator_typeES6_
FN:288,_ZSt12__miter_baseISt13move_iteratorIPPN5Catch16TestCaseTracking8ITrackerEEENSt11_Miter_baseIT_E13iterator_typeES8_
FN:288,_ZSt12__miter_baseIN9__gnu_cxx17__normal_iteratorIPN5Catch8TestCaseESt6vectorIS3_SaIS3_EEEEENSt11_Miter_baseIT_E13iterator_typeESA_
FN:288,_ZSt12__miter_baseIN9__gnu_cxx17__normal_iteratorIPN5Catch11MessageInfoESt6vectorIS3_SaIS3_EEEEENSt11_Miter_baseIT_E13iterator_typeESA_
FN:288,_ZSt12__miter_baseISt13move_iteratorIPjEENSt11_Miter_baseIT_E13iterator_typeES4_
FN:288,_ZSt12__miter_baseISt13move_iteratorIPPN5Catch14IGeneratorInfoEEENSt11_Miter_baseIT_E13iterator_typeES7_
FN:288,_ZSt12__miter_baseISt13move_iteratorIPPKN5Catch20IExceptionTranslatorEEENSt11_Miter_baseIT_E13iterator_typeES8_
FN:288,_ZSt12__miter_baseIN9__gnu_cxx17__normal_iteratorIPKSsSt6vectorISsSaISsEEEEENSt11_Miter_baseIT_E13iterator_typeES9_
FN:330,_ZNSt11__copy_moveILb0ELb0ESt26random_access_iterator_tagE8__copy_mIPKSsSt20back_insert_iteratorISt6vectorISsSaISsEEEEET0_T_SB_SA_
FN:349,_ZNSt11__copy_moveILb1ELb0ESt26random_access_iterator_tagE8__copy_mIPN5Catch11MessageInfoES5_EET0_T_S7_S6_
FN:368,_ZNSt11__copy_moveILb1ELb1ESt26random_access_iterator_tagE8__copy_mIPN5Catch16TestCaseTracking8ITrackerEEEPT_PKS7_SA_S8_
FN:368,_ZNSt11__copy_moveILb1ELb1ESt26random_access_iterator_tagE8__copy_mIPN5Catch14IGeneratorInfoEEEPT_PKS6_S9_S7_
FN:368,_ZNSt11__copy_moveILb1ELb1ESt26random_access_iterator_tagE8__copy_mIjEEPT_PKS3_S6_S4_
FN:368,_ZNSt11__copy_moveILb1ELb1ESt26random_access_iterator_tagE8__copy_mIPKN5Catch20IExceptionTranslatorEEEPT_PKS7_SA_S8_
FN:379,_ZSt13__copy_move_aILb1EPjS0_ET1_T0_S2_S1_
FN:379,_ZSt13__copy_move_aILb1EPN5Catch11MessageInfoES2_ET1_T0_S4_S3_
FN:379,_ZSt13__copy_move_aILb0EPKSsSt20back_insert_iteratorISt6vectorISsSaISsEEEET1_T0_S8_S7_
FN:379,_ZSt13__copy_move_aILb1EPPKN5Catch20IExceptionTranslatorES4_ET1_T0_S6_S5_
FN:379,_ZSt13__copy_move_aILb1EPPN5Catch14IGeneratorInfoES3_ET1_T0_S5_S4_
FN:379,_ZSt13__copy_move_aILb1EPPN5Catch16TestCaseTracking8ITrackerES4_ET1_T0_S6_S5_
FN:424,_ZSt14__copy_move_a2ILb1EPjS0_ET1_T0_S2_S1_
FN:424,_ZSt14__copy_move_a2ILb1EPPKN5Catch20IExceptionTranslatorES4_ET1_T0_S6_S5_
FN:424,_ZSt14__copy_move_a2ILb1EPPN5Catch16TestCaseTracking8ITrackerES4_ET1_T0_S6_S5_
FN:424,_ZSt14__copy_move_a2ILb1EPPN5Catch14IGeneratorInfoES3_ET1_T0_S5_S4_
FN:424,_ZSt14__copy_move_a2ILb0EN9__gnu_cxx17__normal_iteratorIPKSsSt6vectorISsSaISsEEEESt20back_insert_iteratorIS6_EET1_T0_SB_SA_
FN:424,_ZSt14__copy_move_a2ILb1EN9__gnu_cxx17__normal_iteratorIPN5Catch11MessageInfoESt6vectorIS3_SaIS3_EEEES8_ET1_T0_SA_S9_
FN:450,_ZSt4copyISt13move_iteratorIPPN5Catch16TestCaseTracking8ITrackerEES5_ET0_T_S8_S7_
FN:450,_ZSt4copyIN9__gnu_cxx17__normal_iteratorIPKSsSt6vectorISsSaISsEEEESt20back_insert_iteratorIS6_EET0_T_SB_SA_
FN:450,_ZSt4copyISt13move_iteratorIPjES1_ET0_T_S4_S3_
FN:450,_ZSt4copyISt13move_iteratorIPPN5Catch14IGeneratorInfoEES4_ET0_T_S7_S6_
FN:450,_ZSt4copyISt13move_iteratorIPPKN5Catch20IExceptionTranslatorEES5_ET0_T_S8_S7_
FN:483,_ZSt4moveIN9__gnu_cxx17__normal_iteratorIPN5Catch11MessageInfoESt6vectorIS3_SaIS3_EEEES8_ET0_T_SA_S9_
FN:548,_ZNSt20__copy_move_backwardILb1ELb0ESt26random_access_iterator_tagE13__copy_move_bIPN5Catch8TestCaseES5_EET0_T_S7_S6_
FN:574,_ZSt22__copy_move_backward_aILb1EPN5Catch8TestCaseES2_ET1_T0_S4_S3_
FN:592,_ZSt23__copy_move_backward_a2ILb1EN9__gnu_cxx17__normal_iteratorIPN5Catch8TestCaseESt6vectorIS3_SaIS3_EEEES8_ET1_T0_SA_S9_
FN:655,_ZSt13move_backwardIN9__gnu_cxx17__normal_iteratorIPN5Catch8TestCaseESt6vectorIS3_SaIS3_EEEES8_ET0_T_SA_S9_
FN:794,_ZNSt7__equalILb0EE5equalISt16reverse_iteratorIN9__gnu_cxx17__normal_iteratorIPKcSsEEES8_EEbT_S9_T0_
FN:808,_ZNSt7__equalILb1EE5equalIcEEbPKT_S4_S4_
FN:817,_ZSt11__equal_auxIPKcS1_EbT_S2_T0_
FN:817,_ZSt11__equal_auxISt16reverse_iteratorIN9__gnu_cxx17__normal_iteratorIPKcSsEEES6_EbT_S7_T0_
FN:980,_ZSt4__lgi
FN:1021,_ZSt5equalIN9__gnu_cxx17__normal_iteratorIPKcSsEES4_EbT_S5_T0_
FN:1021,_ZSt5equalISt16reverse_iteratorIN9__gnu_cxx17__normal_iteratorIPKcSsEEES6_EbT_S7_T0_
FNDA:0,_ZSt9iter_swapIN9__gnu_cxx17__normal_iteratorIPN5Catch8TestCaseESt6vectorIS3_SaIS3_EEEES8_EvT_T0_
FNDA:0,_ZSt3minIjERKT_S2_S2_
FNDA:77,_ZSt3maxIjERKT_S2_S2_
FNDA:0,_ZSt12__niter_baseIPPN5Catch16TestCaseTracking8ITrackerEENSt11_Niter_baseIT_E13iterator_typeES6_
FNDA:0,_ZSt12__niter_baseIPPN5Catch14IGeneratorInfoEENSt11_Niter_baseIT_E13iterator_typeES5_
FNDA:0,_ZSt12__niter_baseIPPKN5Catch20IExceptionTranslatorEENSt11_Niter_baseIT_E13iterator_typeES6_
FNDA:0,_ZSt12__niter_baseIPjENSt11_Niter_baseIT_E13iterator_typeES2_
FNDA:0,_ZSt12__niter_baseIN9__gnu_cxx17__normal_iteratorIPN5Catch8TestCaseESt6vectorIS3_SaIS3_EEEEENSt11_Niter_baseIT_E13iterator_typeESA_
FNDA:0,_ZSt12__niter_baseIN9__gnu_cxx17__normal_iteratorIPN5Catch11MessageInfoESt6vectorIS3_SaIS3_EEEEENSt11_Niter_baseIT_E13iterator_typeESA_
FNDA:0,_ZSt12__niter_baseISt20back_insert_iteratorISt6vectorISsSaISsEEEENSt11_Niter_baseIT_E13iterator_typeES6_
FNDA:0,_ZSt12__niter_baseIN9__gnu_cxx17__normal_iteratorIPKSsSt6vectorISsSaISsEEEEENSt11_Niter_baseIT_E13iterator_typeES9_
FNDA:0,_ZSt12__niter_baseISt16reverse_iteratorIN9__gnu_cxx17__normal_iteratorIPKcSsEEEENSt11_Niter_baseIT_E13iterator_typeES8_
FNDA:6,_ZSt12__niter_baseIN9__gnu_cxx17__normal_iteratorIPKcSsEEENSt11_Niter_baseIT_E13iterator_typeES6_
FNDA:0,_ZSt12__miter_baseISt13move_iteratorIPPN5Catch16TestCaseTracking8ITrackerEEENSt11_Miter_baseIT_E13iterator_typeES8_
FNDA:0,_ZSt12__miter_baseISt13move_iteratorIPPN5Catch14IGeneratorInfoEEENSt11_Miter_baseIT_E13iterator_typeES7_
FNDA:0,_ZSt12__miter_baseISt13move_iteratorIPPKN5Catch20IExceptionTranslatorEEENSt11_Miter_baseIT_E13iterator_typeES8_
FNDA:0,_ZSt12__miter_baseISt13move_iteratorIPjEENSt11_Miter_baseIT_E13iterator_typeES4_
FNDA:0,_ZSt12__miter_baseIN9__gnu_cxx17__normal_iteratorIPN5Catch8TestCaseESt6vectorIS3_SaIS3_EEEEENSt11_Miter_baseIT_E13iterator_typeESA_
FNDA:0,_ZSt12__miter_baseIN9__gnu_cxx17__normal_iteratorIPN5Catch11MessageInfoESt6vectorIS3_SaIS3_EEEEENSt11_Miter_baseIT_E13iterator_typeESA_
FNDA:0,_ZSt12__miter_baseIN9__gnu_cxx17__normal_iteratorIPKSsSt6vectorISsSaISsEEEEENSt11_Miter_baseIT_E13iterator_typeES9_
FNDA:0,_ZNSt11__copy_moveILb0ELb0ESt26random_access_iterator_tagE8__copy_mIPKSsSt20back_insert_iteratorISt6vectorISsSaISsEEEEET0_T_SB_SA_
FNDA:0,_ZNSt11__copy_moveILb1ELb0ESt26random_access_iterator_tagE8__copy_mIPN5Catch11MessageInfoES5_EET0_T_S7_S6_
FNDA:0,_ZNSt11__copy_moveILb1ELb1ESt26random_access_iterator_tagE8__copy_mIPN5Catch16TestCaseTracking8ITrackerEEEPT_PKS7_SA_S8_
FNDA:0,_ZNSt11__copy_moveILb1ELb1ESt26random_access_iterator_tagE8__copy_mIPN5Catch14IGeneratorInfoEEEPT_PKS6_S9_S7_
FNDA:0,_ZNSt11__copy_moveILb1ELb1ESt26random_access_iterator_tagE8__copy_mIPKN5Catch20IExceptionTranslatorEEEPT_PKS7_SA_S8_
FNDA:0,_ZNSt11__copy_moveILb1ELb1ESt26random_access_iterator_tagE8__copy_mIjEEPT_PKS3_S6_S4_
FNDA:0,_ZSt13__copy_move_aILb1EPPN5Catch16TestCaseTracking8ITrackerES4_ET1_T0_S6_S5_
FNDA:0,_ZSt13__copy_move_aILb1EPPN5Catch14IGeneratorInfoES3_ET1_T0_S5_S4_
FNDA:0,_ZSt13__copy_move_aILb1EPPKN5Catch20IExceptionTranslatorES4_ET1_T0_S6_S5_
FNDA:0,_ZSt13__copy_move_aILb1EPjS0_ET1_T0_S2_S1_
FNDA:0,_ZSt13__copy_move_aILb1EPN5Catch11MessageInfoES2_ET1_T0_S4_S3_
FNDA:0,_ZSt13__copy_move_aILb0EPKSsSt20back_insert_iteratorISt6vectorISsSaISsEEEET1_T0_S8_S7_
FNDA:0,_ZSt14__copy_move_a2ILb1EPPN5Catch16TestCaseTracking8ITrackerES4_ET1_T0_S6_S5_
FNDA:0,_ZSt14__copy_move_a2ILb1EPPN5Catch14IGeneratorInfoES3_ET1_T0_S5_S4_
FNDA:0,_ZSt14__copy_move_a2ILb1EPPKN5Catch20IExceptionTranslatorES4_ET1_T0_S6_S5_
FNDA:0,_ZSt14__copy_move_a2ILb1EPjS0_ET1_T0_S2_S1_
FNDA:0,_ZSt14__copy_move_a2ILb1EN9__gnu_cxx17__normal_iteratorIPN5Catch11MessageInfoESt6vectorIS3_SaIS3_EEEES8_ET1_T0_SA_S9_
FNDA:0,_ZSt14__copy_move_a2ILb0EN9__gnu_cxx17__normal_iteratorIPKSsSt6vectorISsSaISsEEEESt20back_insert_iteratorIS6_EET1_T0_SB_SA_
FNDA:0,_ZSt4copyISt13move_iteratorIPPN5Catch16TestCaseTracking8ITrackerEES5_ET0_T_S8_S7_
FNDA:0,_ZSt4copyISt13move_iteratorIPPN5Catch14IGeneratorInfoEES4_ET0_T_S7_S6_
FNDA:0,_ZSt4copyISt13move_iteratorIPPKN5Catch20IExceptionTranslatorEES5_ET0_T_S8_S7_
FNDA:0,_ZSt4copyISt13move_iteratorIPjES1_ET0_T_S4_S3_
FNDA:0,_ZSt4copyIN9__gnu_cxx17__normal_iteratorIPKSsSt6vectorISsSaISsEEEESt20back_insert_iteratorIS6_EET0_T_SB_SA_
FNDA:0,_ZSt4moveIN9__gnu_cxx17__normal_iteratorIPN5Catch11MessageInfoESt6vectorIS3_SaIS3_EEEES8_ET0_T_SA_S9_
FNDA:0,_ZNSt20__copy_move_backwardILb1ELb0ESt26random_access_iterator_tagE13__copy_move_bIPN5Catch8TestCaseES5_EET0_T_S7_S6_
FNDA:0,_ZSt22__copy_move_backward_aILb1EPN5Catch8TestCaseES2_ET1_T0_S4_S3_
FNDA:0,_ZSt23__copy_move_backward_a2ILb1EN9__gnu_cxx17__normal_iteratorIPN5Catch8TestCaseESt6vectorIS3_SaIS3_EEEES8_ET1_T0_SA_S9_
FNDA:0,_ZSt13move_backwardIN9__gnu_cxx17__normal_iteratorIPN5Catch8TestCaseESt6vectorIS3_SaIS3_EEEES8_ET0_T_SA_S9_
FNDA:0,_ZNSt7__equalILb0EE5equalISt16reverse_iteratorIN9__gnu_cxx17__normal_iteratorIPKcSsEEES8_EEbT_S9_T0_
FNDA:2,_ZNSt7__equalILb1EE5equalIcEEbPKT_S4_S4_
FNDA:0,_ZSt11__equal_auxISt16reverse_iteratorIN9__gnu_cxx17__normal_iteratorIPKcSsEEES6_EbT_S7_T0_
FNDA:2,_ZSt11__equal_auxIPKcS1_EbT_S2_T0_
FNDA:0,_ZSt4__lgi
FNDA:0,_ZSt5equalISt16reverse_iteratorIN9__gnu_cxx17__normal_iteratorIPKcSsEEES6_EbT_S7_T0_
FNDA:2,_ZSt5equalIN9__gnu_cxx17__normal_iteratorIPKcSsEES4_EbT_S5_T0_
FNF:55
FNH:5
DA:119,0
DA:147,0
DA:149,0
DA:193,0
DA:198,0
DA:199,0
DA:200,0
DA:216,77
DA:221,77
DA:222,43
DA:223,34
DA:277,6
DA:278,6
DA:288,0
DA:289,0
DA:330,0
DA:333,0
DA:335,0
DA:336,0
DA:337,0
DA:339,0
DA:349,0
DA:352,0
DA:354,0
DA:355,0
DA:356,0
DA:358,0
DA:368,0
DA:370,0
DA:371,0
DA:372,0
DA:373,0
DA:379,0
DA:387,0
DA:390,0
DA:424,0
DA:428,0
DA:450,0
DA:460,0
DA:483,0
DA:492,0
DA:548,0
DA:551,0
DA:552,0
DA:553,0
DA:574,0
DA:582,0
DA:587,0
DA:592,0
DA:596,0
DA:655,0
DA:667,0
DA:794,0
DA:796,0
DA:797,0
DA:798,0
DA:799,0
DA:808,2
DA:811,2
DA:817,2
DA:825,2
DA:827,2
DA:980,0
DA:981,0
DA:1021,2
DA:1033,2
LF:66
LH:13
end_of_record
SF:/opt/Programs/buildroot-at91/output/host/usr/arm-buildroot-linux-gnueabi/include/c++/4.8.2/bits/stl_construct.h
FN:74,_ZSt10_ConstructIN5Catch3PtrINS0_18IStreamingReporterEEEIRS3_EEvPT_DpOT0_
FN:74,_ZSt10_ConstructIN5Catch8TestSpec6FilterEIRKS2_EEvPT_DpOT0_
FN:74,_ZSt10_ConstructIN5Catch5Clara11CommandLineINS0_10ConfigDataEE3ArgEIRS5_EEvPT_DpOT0_
FN:74,_ZSt10_ConstructIN5Catch11MessageInfoEIS1_EEvPT_DpOT0_
FN:74,_ZSt10_ConstructISsISsEEvPT_DpOT0_
FN:74,_ZSt10_ConstructIN5Catch3PtrINS0_16IReporterFactoryEEEIRKS3_EEvPT_DpOT0_
FN:74,_ZSt10_ConstructIN5Catch3PtrINS0_8TestSpec7PatternEEEIRKS4_EEvPT_DpOT0_
FN:74,_ZSt10_ConstructIN5Catch5Clara6Parser5TokenEIS3_EEvPT_DpOT0_
FN:74,_ZSt10_ConstructIN5Catch8TestCaseEIRKS1_EEvPT_DpOT0_
FN:74,_ZSt10_ConstructISsIEEvPT_DpOT0_
FN:74,_ZSt10_ConstructIN5Catch3PtrINS0_22CumulativeReporterBase11SectionNodeEEEIRS4_EEvPT_DpOT0_
FN:74,_ZSt10_ConstructIN5Catch3PtrINS0_16TestCaseTracking8ITrackerEEEIRS4_EEvPT_DpOT0_
FN:74,_ZSt10_ConstructIN5Catch3PtrINS0_16IReporterFactoryEEEIRS3_EEvPT_DpOT0_
FN:74,_ZSt10_ConstructIN5Catch11MessageInfoEIRKS1_EEvPT_DpOT0_
FN:74,_ZSt10_ConstructIN5Catch8TestCaseEIRS1_EEvPT_DpOT0_
FN:74,_ZSt10_ConstructIN5Catch3PtrINS0_22CumulativeReporterBase4NodeINS0_14TestGroupStatsENS3_INS0_13TestCaseStatsENS2_11SectionNodeEEEEEEEIRS9_EEvPT_DpOT0_
FN:74,_ZSt10_ConstructIN5Catch3PtrINS0_22CumulativeReporterBase4NodeINS0_12TestRunStatsENS3_INS0_14TestGroupStatsENS3_INS0_13TestCaseStatsENS2_11SectionNodeEEEEEEEEEIRSB_EEvPT_DpOT0_
FN:74,_ZSt10_ConstructISsIRKSsEEvPT_DpOT0_
FN:74,_ZSt10_ConstructIN5Catch11SectionInfoEIS1_EEvPT_DpOT0_
FN:74,_ZSt10_ConstructIN5Catch15ConsoleReporter13SummaryColumnEIS2_EEvPT_DpOT0_
FN:74,_ZSt10_ConstructIN5Catch3PtrINS0_8TestSpec7PatternEEEIRS4_EEvPT_DpOT0_
FN:74,_ZSt10_ConstructIN5Catch14SectionEndInfoEIS1_EEvPT_DpOT0_
FN:74,_ZSt10_ConstructIN5Catch3PtrINS0_22CumulativeReporterBase4NodeINS0_13TestCaseStatsENS2_11SectionNodeEEEEEIRS7_EEvPT_DpOT0_
FN:74,_ZSt10_ConstructIN5Catch14AssertionStatsEIS1_EEvPT_DpOT0_
FN:74,_ZSt10_ConstructIN5Catch8TestSpec6FilterEIS2_EEvPT_DpOT0_
FN:74,_ZSt10_ConstructIN5Catch5Clara6Parser5TokenEIRKS3_EEvPT_DpOT0_
FN:92,_ZSt8_DestroyIN5Catch14AssertionStatsEEvPT_
FN:92,_ZSt8_DestroyIN5Catch3PtrINS0_8TestSpec7PatternEEEEvPT_
FN:92,_ZSt8_DestroyIN5Catch3PtrINS0_22CumulativeReporterBase4NodeINS0_12TestRunStatsENS3_INS0_14TestGroupStatsENS3_INS0_13TestCaseStatsENS2_11SectionNodeEEEEEEEEEEvPT_
FN:92,_ZSt8_DestroyIN5Catch3PtrINS0_22CumulativeReporterBase4NodeINS0_14TestGroupStatsENS3_INS0_13TestCaseStatsENS2_11SectionNodeEEEEEEEEvPT_
FN:92,_ZSt8_DestroyIN5Catch14SectionEndInfoEEvPT_
FN:92,_ZSt8_DestroyIN5Catch8TestSpec6FilterEEvPT_
FN:92,_ZSt8_DestroyIN5Catch3PtrINS0_16TestCaseTracking8ITrackerEEEEvPT_
FN:92,_ZSt8_DestroyIN5Catch11SectionInfoEEvPT_
FN:92,_ZSt8_DestroyIN5Catch3PtrINS0_22CumulativeReporterBase4NodeINS0_13TestCaseStatsENS2_11SectionNodeEEEEEEvPT_
FN:92,_ZSt8_DestroyIN5Catch5Clara11CommandLineINS0_10ConfigDataEE3ArgEEvPT_
FN:92,_ZSt8_DestroyIN5Catch3PtrINS0_22CumulativeReporterBase11SectionNodeEEEEvPT_
FN:92,_ZSt8_DestroyIN5Catch11MessageInfoEEvPT_
FN:92,_ZSt8_DestroyISt6vectorIN5Catch3PtrINS1_22CumulativeReporterBase11SectionNodeEEESaIS5_EEEvPT_
FN:92,_ZSt8_DestroyIN5Catch3PtrINS0_18IStreamingReporterEEEEvPT_
FN:92,_ZSt8_DestroyIN5Catch5Clara6Parser5TokenEEvPT_
FN:92,_ZSt8_DestroyIN5Catch15ConsoleReporter13SummaryColumnEEvPT_
FN:92,_ZSt8_DestroyISsEvPT_
FN:92,_ZSt8_DestroyIN5Catch8TestCaseEEvPT_
FN:92,_ZSt8_DestroyIN5Catch3PtrINS0_16IReporterFactoryEEEEvPT_
FN:100,_ZNSt12_Destroy_auxILb0EE9__destroyIPN5Catch14SectionEndInfoEEEvT_S5_
FN:100,_ZNSt12_Destroy_auxILb0EE9__destroyIPN5Catch3PtrINS2_16IReporterFactoryEEEEEvT_S7_
FN:100,_ZNSt12_Destroy_auxILb0EE9__destroyIPN5Catch3PtrINS2_22CumulativeReporterBase4NodeINS2_13TestCaseStatsENS4_11SectionNodeEEEEEEEvT_SB_
FN:100,_ZNSt12_Destroy_auxILb0EE9__destroyIPSt6vectorIN5Catch3PtrINS3_22CumulativeReporterBase11SectionNodeEEESaIS7_EEEEvT_SB_
FN:100,_ZNSt12_Destroy_auxILb0EE9__destroyIPN5Catch3PtrINS2_22CumulativeReporterBase4NodeINS2_12TestRunStatsENS5_INS2_14TestGroupStatsENS5_INS2_13TestCaseStatsENS4_11SectionNodeEEEEEEEEEEEvT_SF_
FN:100,_ZNSt12_Destroy_auxILb0EE9__destroyIPN5Catch3PtrINS2_8TestSpec7PatternEEEEEvT_S8_
FN:100,_ZNSt12_Destroy_auxILb0EE9__destroyIPN5Catch15ConsoleReporter13SummaryColumnEEEvT_S6_
FN:100,_ZNSt12_Destroy_auxILb0EE9__destroyIPN5Catch3PtrINS2_16TestCaseTracking8ITrackerEEEEEvT_S8_
FN:100,_ZNSt12_Destroy_auxILb0EE9__destroyIPN5Catch3PtrINS2_18IStreamingReporterEEEEEvT_S7_
FN:100,_ZNSt12_Destroy_auxILb0EE9__destroyIPN5Catch8TestSpec6FilterEEEvT_S6_
FN:100,_ZNSt12_Destroy_auxILb0EE9__destroyIPN5Catch3PtrINS2_22CumulativeReporterBase11SectionNodeEEEEEvT_S8_
FN:100,_ZNSt12_Destroy_auxILb0EE9__destroyIPN5Catch8TestCaseEEEvT_S5_
FN:100,_ZNSt12_Destroy_auxILb0EE9__destroyIPN5Catch11MessageInfoEEEvT_S5_
FN:100,_ZNSt12_Destroy_auxILb0EE9__destroyIPN5Catch5Clara11CommandLineINS2_10ConfigDataEE3ArgEEEvT_S9_
FN:100,_ZNSt12_Destroy_auxILb0EE9__destroyIPSsEEvT_S3_
FN:100,_ZNSt12_Destroy_auxILb0EE9__destroyIPN5Catch5Clara6Parser5TokenEEEvT_S7_
FN:100,_ZNSt12_Destroy_auxILb0EE9__destroyIPN5Catch14AssertionStatsEEEvT_S5_
FN:100,_ZNSt12_Destroy_auxILb0EE9__destroyIPN5Catch11SectionInfoEEEvT_S5_
FN:100,_ZNSt12_Destroy_auxILb0EE9__destroyIPN5Catch3PtrINS2_22CumulativeReporterBase4NodeINS2_14TestGroupStatsENS5_INS2_13TestCaseStatsENS4_11SectionNodeEEEEEEEEEvT_SD_
FN:112,_ZNSt12_Destroy_auxILb1EE9__destroyIPPN5Catch14IGeneratorInfoEEEvT_S6_
FN:112,_ZNSt12_Destroy_auxILb1EE9__destroyIPPKN5Catch20IExceptionTranslatorEEEvT_S7_
FN:112,_ZNSt12_Destroy_auxILb1EE9__destroyIPjEEvT_S3_
FN:112,_ZNSt12_Destroy_auxILb1EE9__destroyIPPN5Catch16TestCaseTracking8ITrackerEEEvT_S7_
FN:112,_ZNSt12_Destroy_auxILb1EE9__destroyIPPKN5Catch8Matchers4Impl11MatcherBaseISsSsEEEEvT_SA_
FN:122,_ZSt8_DestroyIPN5Catch14SectionEndInfoEEvT_S3_
FN:122,_ZSt8_DestroyIPPKN5Catch20IExceptionTranslatorEEvT_S5_
FN:122,_ZSt8_DestroyIPN5Catch3PtrINS0_22CumulativeReporterBase4NodeINS0_13TestCaseStatsENS2_11SectionNodeEEEEEEvT_S9_
FN:122,_ZSt8_DestroyIPN5Catch3PtrINS0_18IStreamingReporterEEEEvT_S5_
FN:122,_ZSt8_DestroyIPN5Catch3PtrINS0_22CumulativeReporterBase11SectionNodeEEEEvT_S6_
FN:122,_ZSt8_DestroyIPN5Catch11SectionInfoEEvT_S3_
FN:122,_ZSt8_DestroyIPPKN5Catch8Matchers4Impl11MatcherBaseISsSsEEEvT_S8_
FN:122,_ZSt8_DestroyIPPN5Catch16TestCaseTracking8ITrackerEEvT_S5_
FN:122,_ZSt8_DestroyIPSt6vectorIN5Catch3PtrINS1_22CumulativeReporterBase11SectionNodeEEESaIS5_EEEvT_S9_
FN:122,_ZSt8_DestroyIPN5Catch5Clara11CommandLineINS0_10ConfigDataEE3ArgEEvT_S7_
FN:122,_ZSt8_DestroyIPN5Catch11MessageInfoEEvT_S3_
FN:122,_ZSt8_DestroyIPN5Catch8TestCaseEEvT_S3_
FN:122,_ZSt8_DestroyIPN5Catch3PtrINS0_22CumulativeReporterBase4NodeINS0_12TestRunStatsENS3_INS0_14TestGroupStatsENS3_INS0_13TestCaseStatsENS2_11SectionNodeEEEEEEEEEEvT_SD_
FN:122,_ZSt8_DestroyIPN5Catch14AssertionStatsEEvT_S3_
FN:122,_ZSt8_DestroyIPN5Catch3PtrINS0_16TestCaseTracking8ITrackerEEEEvT_S6_
FN:122,_ZSt8_DestroyIPN5Catch8TestSpec6FilterEEvT_S4_
FN:122,_ZSt8_DestroyIPN5Catch3PtrINS0_16IReporterFactoryEEEEvT_S5_
FN:122,_ZSt8_DestroyIPN5Catch3PtrINS0_22CumulativeReporterBase4NodeINS0_14TestGroupStatsENS3_INS0_13TestCaseStatsENS2_11SectionNodeEEEEEEEEvT_SB_
FN:122,_ZSt8_DestroyIPSsEvT_S1_
FN:122,_ZSt8_DestroyIPPN5Catch14IGeneratorInfoEEvT_S4_
FN:122,_ZSt8_DestroyIPjEvT_S1_
FN:122,_ZSt8_DestroyIPN5Catch15ConsoleReporter13SummaryColumnEEvT_S4_
FN:122,_ZSt8_DestroyIPN5Catch5Clara6Parser5TokenEEvT_S5_
FN:122,_ZSt8_DestroyIPN5Catch3PtrINS0_8TestSpec7PatternEEEEvT_S6_
FN:148,_ZSt8_DestroyIPN5Catch11SectionInfoES1_EvT_S3_RSaIT0_E
FN:148,_ZSt8_DestroyIPN5Catch14SectionEndInfoES1_EvT_S3_RSaIT0_E
FN:148,_ZSt8_DestroyIPN5Catch3PtrINS0_8TestSpec7PatternEEES4_EvT_S6_RSaIT0_E
FN:148,_ZSt8_DestroyIPN5Catch8TestSpec6FilterES2_EvT_S4_RSaIT0_E
FN:148,_ZSt8_DestroyIPPN5Catch14IGeneratorInfoES2_EvT_S4_RSaIT0_E
FN:148,_ZSt8_DestroyIPN5Catch8TestCaseES1_EvT_S3_RSaIT0_E
FN:148,_ZSt8_DestroyIPPKN5Catch20IExceptionTranslatorES3_EvT_S5_RSaIT0_E
FN:148,_ZSt8_DestroyIPN5Catch3PtrINS0_16IReporterFactoryEEES3_EvT_S5_RSaIT0_E
FN:148,_ZSt8_DestroyIPN5Catch14AssertionStatsES1_EvT_S3_RSaIT0_E
FN:148,_ZSt8_DestroyIPN5Catch11MessageInfoES1_EvT_S3_RSaIT0_E
FN:148,_ZSt8_DestroyIPPKN5Catch8Matchers4Impl11MatcherBaseISsSsEES6_EvT_S8_RSaIT0_E
FN:148,_ZSt8_DestroyIPN5Catch5Clara6Parser5TokenES3_EvT_S5_RSaIT0_E
FN:148,_ZSt8_DestroyIPN5Catch3PtrINS0_16TestCaseTracking8ITrackerEEES4_EvT_S6_RSaIT0_E
FN:148,_ZSt8_DestroyIPN5Catch3PtrINS0_22CumulativeReporterBase4NodeINS0_13TestCaseStatsENS2_11SectionNodeEEEEES7_EvT_S9_RSaIT0_E
FN:148,_ZSt8_DestroyIPN5Catch3PtrINS0_18IStreamingReporterEEES3_EvT_S5_RSaIT0_E
FN:148,_ZSt8_DestroyIPPN5Catch16TestCaseTracking8ITrackerES3_EvT_S5_RSaIT0_E
FN:148,_ZSt8_DestroyIPN5Catch3PtrINS0_22CumulativeReporterBase11SectionNodeEEES4_EvT_S6_RSaIT0_E
FN:148,_ZSt8_DestroyIPSt6vectorIN5Catch3PtrINS1_22CumulativeReporterBase11SectionNodeEEESaIS5_EES7_EvT_S9_RSaIT0_E
FN:148,_ZSt8_DestroyIPN5Catch15ConsoleReporter13SummaryColumnES2_EvT_S4_RSaIT0_E
FN:148,_ZSt8_DestroyIPN5Catch5Clara11CommandLineINS0_10ConfigDataEE3ArgES5_EvT_S7_RSaIT0_E
FN:148,_ZSt8_DestroyIPSsSsEvT_S1_RSaIT0_E
FN:148,_ZSt8_DestroyIPjjEvT_S1_RSaIT0_E
FN:148,_ZSt8_DestroyIPN5Catch3PtrINS0_22CumulativeReporterBase4NodeINS0_14TestGroupStatsENS3_INS0_13TestCaseStatsENS2_11SectionNodeEEEEEEES9_EvT_SB_RSaIT0_E
FN:148,_ZSt8_DestroyIPN5Catch3PtrINS0_22CumulativeReporterBase4NodeINS0_12TestRunStatsENS3_INS0_14TestGroupStatsENS3_INS0_13TestCaseStatsENS2_11SectionNodeEEEEEEEEESB_EvT_SD_RSaIT0_E
FNDA:31,_ZSt10_ConstructIN5Catch5Clara11CommandLineINS0_10ConfigDataEE3ArgEIRS5_EEvPT_DpOT0_
FNDA:2,_ZSt10_ConstructIN5Catch3PtrINS0_8TestSpec7PatternEEEIRKS4_EEvPT_DpOT0_
FNDA:0,_ZSt10_ConstructIN5Catch15ConsoleReporter13SummaryColumnEIS2_EEvPT_DpOT0_
FNDA:0,_ZSt10_ConstructIN5Catch5Clara6Parser5TokenEIRKS3_EEvPT_DpOT0_
FNDA:1,_ZSt10_ConstructIN5Catch5Clara6Parser5TokenEIS3_EEvPT_DpOT0_
FNDA:0,_ZSt10_ConstructIN5Catch3PtrINS0_8TestSpec7PatternEEEIRS4_EEvPT_DpOT0_
FNDA:0,_ZSt10_ConstructIN5Catch3PtrINS0_22CumulativeReporterBase4NodeINS0_12TestRunStatsENS3_INS0_14TestGroupStatsENS3_INS0_13TestCaseStatsENS2_11SectionNodeEEEEEEEEEIRSB_EEvPT_DpOT0_
FNDA:0,_ZSt10_ConstructIN5Catch3PtrINS0_22CumulativeReporterBase4NodeINS0_14TestGroupStatsENS3_INS0_13TestCaseStatsENS2_11SectionNodeEEEEEEEIRS9_EEvPT_DpOT0_
FNDA:1,_ZSt10_ConstructIN5Catch3PtrINS0_22CumulativeReporterBase4NodeINS0_13TestCaseStatsENS2_11SectionNodeEEEEEIRS7_EEvPT_DpOT0_
FNDA:2,_ZSt10_ConstructIN5Catch14AssertionStatsEIS1_EEvPT_DpOT0_
FNDA:0,_ZSt10_ConstructIN5Catch3PtrINS0_22CumulativeReporterBase11SectionNodeEEEIRS4_EEvPT_DpOT0_
FNDA:0,_ZSt10_ConstructIN5Catch11SectionInfoEIS1_EEvPT_DpOT0_
FNDA:0,_ZSt10_ConstructIN5Catch3PtrINS0_18IStreamingReporterEEEIRS3_EEvPT_DpOT0_
FNDA:0,_ZSt10_ConstructIN5Catch3PtrINS0_16IReporterFactoryEEEIRS3_EEvPT_DpOT0_
FNDA:0,_ZSt10_ConstructIN5Catch14SectionEndInfoEIS1_EEvPT_DpOT0_
FNDA:0,_ZSt10_ConstructIN5Catch3PtrINS0_16TestCaseTracking8ITrackerEEEIRS4_EEvPT_DpOT0_
FNDA:0,_ZSt10_ConstructIN5Catch11MessageInfoEIS1_EEvPT_DpOT0_
FNDA:4,_ZSt10_ConstructISsISsEEvPT_DpOT0_
FNDA:0,_ZSt10_ConstructIN5Catch8TestSpec6FilterEIS2_EEvPT_DpOT0_
FNDA:1,_ZSt10_ConstructIN5Catch8TestCaseEIRS1_EEvPT_DpOT0_
FNDA:3,_ZSt10_ConstructISsIEEvPT_DpOT0_
FNDA:2,_ZSt10_ConstructIN5Catch8TestCaseEIRKS1_EEvPT_DpOT0_
FNDA:0,_ZSt10_ConstructIN5Catch3PtrINS0_16IReporterFactoryEEEIRKS3_EEvPT_DpOT0_
FNDA:0,_ZSt10_ConstructIN5Catch11MessageInfoEIRKS1_EEvPT_DpOT0_
FNDA:38,_ZSt10_ConstructISsIRKSsEEvPT_DpOT0_
FNDA:1,_ZSt10_ConstructIN5Catch8TestSpec6FilterEIRKS2_EEvPT_DpOT0_
FNDA:0,_ZSt8_DestroyIN5Catch15ConsoleReporter13SummaryColumnEEvPT_
FNDA:1,_ZSt8_DestroyIN5Catch3PtrINS0_22CumulativeReporterBase4NodeINS0_12TestRunStatsENS3_INS0_14TestGroupStatsENS3_INS0_13TestCaseStatsENS2_11SectionNodeEEEEEEEEEEvPT_
FNDA:1,_ZSt8_DestroyIN5Catch3PtrINS0_22CumulativeReporterBase4NodeINS0_14TestGroupStatsENS3_INS0_13TestCaseStatsENS2_11SectionNodeEEEEEEEEvPT_
FNDA:3,_ZSt8_DestroyIN5Catch3PtrINS0_22CumulativeReporterBase4NodeINS0_13TestCaseStatsENS2_11SectionNodeEEEEEEvPT_
FNDA:0,_ZSt8_DestroyISt6vectorIN5Catch3PtrINS1_22CumulativeReporterBase11SectionNodeEEESaIS5_EEEvPT_
FNDA:6,_ZSt8_DestroyIN5Catch14AssertionStatsEEvPT_
FNDA:2,_ZSt8_DestroyIN5Catch3PtrINS0_22CumulativeReporterBase11SectionNodeEEEEvPT_
FNDA:0,_ZSt8_DestroyIN5Catch11SectionInfoEEvPT_
FNDA:0,_ZSt8_DestroyIN5Catch3PtrINS0_18IStreamingReporterEEEEvPT_
FNDA:3,_ZSt8_DestroyIN5Catch5Clara6Parser5TokenEEvPT_
FNDA:0,_ZSt8_DestroyIN5Catch3PtrINS0_16IReporterFactoryEEEEvPT_
FNDA:0,_ZSt8_DestroyIN5Catch14SectionEndInfoEEvPT_
FNDA:2,_ZSt8_DestroyIN5Catch3PtrINS0_16TestCaseTracking8ITrackerEEEEvPT_
FNDA:5,_ZSt8_DestroyIN5Catch8TestCaseEEvPT_
FNDA:0,_ZSt8_DestroyIN5Catch11MessageInfoEEvPT_
FNDA:54,_ZSt8_DestroyIN5Catch5Clara11CommandLineINS0_10ConfigDataEE3ArgEEvPT_
FNDA:64,_ZSt8_DestroyISsEvPT_
FNDA:2,_ZSt8_DestroyIN5Catch8TestSpec6FilterEEvPT_
FNDA:3,_ZSt8_DestroyIN5Catch3PtrINS0_8TestSpec7PatternEEEEvPT_
FNDA:0,_ZNSt12_Destroy_auxILb0EE9__destroyIPN5Catch15ConsoleReporter13SummaryColumnEEEvT_S6_
FNDA:2,_ZNSt12_Destroy_auxILb0EE9__destroyIPN5Catch3PtrINS2_22CumulativeReporterBase4NodeINS2_12TestRunStatsENS5_INS2_14TestGroupStatsENS5_INS2_13TestCaseStatsENS4_11SectionNodeEEEEEEEEEEEvT_SF_
FNDA:3,_ZNSt12_Destroy_auxILb0EE9__destroyIPN5Catch3PtrINS2_22CumulativeReporterBase4NodeINS2_14TestGroupStatsENS5_INS2_13TestCaseStatsENS4_11SectionNodeEEEEEEEEEvT_SD_
FNDA:4,_ZNSt12_Destroy_auxILb0EE9__destroyIPN5Catch3PtrINS2_22CumulativeReporterBase4NodeINS2_13TestCaseStatsENS4_11SectionNodeEEEEEEEvT_SB_
FNDA:1,_ZNSt12_Destroy_auxILb0EE9__destroyIPSt6vectorIN5Catch3PtrINS3_22CumulativeReporterBase11SectionNodeEEESaIS7_EEEEvT_SB_
FNDA:7,_ZNSt12_Destroy_auxILb0EE9__destroyIPN5Catch14AssertionStatsEEEvT_S5_
FNDA:8,_ZNSt12_Destroy_auxILb0EE9__destroyIPN5Catch3PtrINS2_22CumulativeReporterBase11SectionNodeEEEEEvT_S8_
FNDA:0,_ZNSt12_Destroy_auxILb0EE9__destroyIPN5Catch11SectionInfoEEEvT_S5_
FNDA:0,_ZNSt12_Destroy_auxILb0EE9__destroyIPN5Catch3PtrINS2_18IStreamingReporterEEEEEvT_S7_
FNDA:11,_ZNSt12_Destroy_auxILb0EE9__destroyIPN5Catch5Clara6Parser5TokenEEEvT_S7_
FNDA:2,_ZNSt12_Destroy_auxILb0EE9__destroyIPN5Catch3PtrINS2_16IReporterFactoryEEEEEvT_S7_
FNDA:3,_ZNSt12_Destroy_auxILb0EE9__destroyIPN5Catch14SectionEndInfoEEEvT_S5_
FNDA:6,_ZNSt12_Destroy_auxILb0EE9__destroyIPN5Catch3PtrINS2_16TestCaseTracking8ITrackerEEEEEvT_S8_
FNDA:6,_ZNSt12_Destroy_auxILb0EE9__destroyIPN5Catch8TestCaseEEEvT_S5_
FNDA:17,_ZNSt12_Destroy_auxILb0EE9__destroyIPN5Catch11MessageInfoEEEvT_S5_
FNDA:7,_ZNSt12_Destroy_auxILb0EE9__destroyIPN5Catch5Clara11CommandLineINS2_10ConfigDataEE3ArgEEEvT_S9_
FNDA:114,_ZNSt12_Destroy_auxILb0EE9__destroyIPSsEEvT_S3_
FNDA:6,_ZNSt12_Destroy_auxILb0EE9__destroyIPN5Catch8TestSpec6FilterEEEvT_S6_
FNDA:6,_ZNSt12_Destroy_auxILb0EE9__destroyIPN5Catch3PtrINS2_8TestSpec7PatternEEEEEvT_S8_
FNDA:0,_ZNSt12_Destroy_auxILb1EE9__destroyIPPKN5Catch8Matchers4Impl11MatcherBaseISsSsEEEEvT_SA_
FNDA:0,_ZNSt12_Destroy_auxILb1EE9__destroyIPPN5Catch14IGeneratorInfoEEEvT_S6_
FNDA:1,_ZNSt12_Destroy_auxILb1EE9__destroyIPPKN5Catch20IExceptionTranslatorEEEvT_S7_
FNDA:1,_ZNSt12_Destroy_auxILb1EE9__destroyIPPN5Catch16TestCaseTracking8ITrackerEEEvT_S7_
FNDA:3,_ZNSt12_Destroy_auxILb1EE9__destroyIPjEEvT_S3_
FNDA:0,_ZSt8_DestroyIPN5Catch15ConsoleReporter13SummaryColumnEEvT_S4_
FNDA:2,_ZSt8_DestroyIPN5Catch3PtrINS0_22CumulativeReporterBase4NodeINS0_12TestRunStatsENS3_INS0_14TestGroupStatsENS3_INS0_13TestCaseStatsENS2_11SectionNodeEEEEEEEEEEvT_SD_
FNDA:3,_ZSt8_DestroyIPN5Catch3PtrINS0_22CumulativeReporterBase4NodeINS0_14TestGroupStatsENS3_INS0_13TestCaseStatsENS2_11SectionNodeEEEEEEEEvT_SB_
FNDA:4,_ZSt8_DestroyIPN5Catch3PtrINS0_22CumulativeReporterBase4NodeINS0_13TestCaseStatsENS2_11SectionNodeEEEEEEvT_S9_
FNDA:1,_ZSt8_DestroyIPSt6vectorIN5Catch3PtrINS1_22CumulativeReporterBase11SectionNodeEEESaIS5_EEEvT_S9_
FNDA:7,_ZSt8_DestroyIPN5Catch14AssertionStatsEEvT_S3_
FNDA:8,_ZSt8_DestroyIPN5Catch3PtrINS0_22CumulativeReporterBase11SectionNodeEEEEvT_S6_
FNDA:0,_ZSt8_DestroyIPN5Catch11SectionInfoEEvT_S3_
FNDA:0,_ZSt8_DestroyIPN5Catch3PtrINS0_18IStreamingReporterEEEEvT_S5_
FNDA:0,_ZSt8_DestroyIPPKN5Catch8Matchers4Impl11MatcherBaseISsSsEEEvT_S8_
FNDA:0,_ZSt8_DestroyIPPN5Catch14IGeneratorInfoEEvT_S4_
FNDA:1,_ZSt8_DestroyIPPKN5Catch20IExceptionTranslatorEEvT_S5_
FNDA:11,_ZSt8_DestroyIPN5Catch5Clara6Parser5TokenEEvT_S5_
FNDA:2,_ZSt8_DestroyIPN5Catch3PtrINS0_16IReporterFactoryEEEEvT_S5_
FNDA:1,_ZSt8_DestroyIPPN5Catch16TestCaseTracking8ITrackerEEvT_S5_
FNDA:3,_ZSt8_DestroyIPN5Catch14SectionEndInfoEEvT_S3_
FNDA:6,_ZSt8_DestroyIPN5Catch3PtrINS0_16TestCaseTracking8ITrackerEEEEvT_S6_
FNDA:6,_ZSt8_DestroyIPN5Catch8TestCaseEEvT_S3_
FNDA:17,_ZSt8_DestroyIPN5Catch11MessageInfoEEvT_S3_
FNDA:7,_ZSt8_DestroyIPN5Catch5Clara11CommandLineINS0_10ConfigDataEE3ArgEEvT_S7_
FNDA:114,_ZSt8_DestroyIPSsEvT_S1_
FNDA:6,_ZSt8_DestroyIPN5Catch8TestSpec6FilterEEvT_S4_
FNDA:6,_ZSt8_DestroyIPN5Catch3PtrINS0_8TestSpec7PatternEEEEvT_S6_
FNDA:3,_ZSt8_DestroyIPjEvT_S1_
FNDA:0,_ZSt8_DestroyIPN5Catch15ConsoleReporter13SummaryColumnES2_EvT_S4_RSaIT0_E
FNDA:2,_ZSt8_DestroyIPN5Catch3PtrINS0_22CumulativeReporterBase4NodeINS0_12TestRunStatsENS3_INS0_14TestGroupStatsENS3_INS0_13TestCaseStatsENS2_11SectionNodeEEEEEEEEESB_EvT_SD_RSaIT0_E
FNDA:3,_ZSt8_DestroyIPN5Catch3PtrINS0_22CumulativeReporterBase4NodeINS0_14TestGroupStatsENS3_INS0_13TestCaseStatsENS2_11SectionNodeEEEEEEES9_EvT_SB_RSaIT0_E
FNDA:4,_ZSt8_DestroyIPN5Catch3PtrINS0_22CumulativeReporterBase4NodeINS0_13TestCaseStatsENS2_11SectionNodeEEEEES7_EvT_S9_RSaIT0_E
FNDA:1,_ZSt8_DestroyIPSt6vectorIN5Catch3PtrINS1_22CumulativeReporterBase11SectionNodeEEESaIS5_EES7_EvT_S9_RSaIT0_E
FNDA:7,_ZSt8_DestroyIPN5Catch14AssertionStatsES1_EvT_S3_RSaIT0_E
FNDA:8,_ZSt8_DestroyIPN5Catch3PtrINS0_22CumulativeReporterBase11SectionNodeEEES4_EvT_S6_RSaIT0_E
FNDA:0,_ZSt8_DestroyIPN5Catch11SectionInfoES1_EvT_S3_RSaIT0_E
FNDA:0,_ZSt8_DestroyIPN5Catch3PtrINS0_18IStreamingReporterEEES3_EvT_S5_RSaIT0_E
FNDA:0,_ZSt8_DestroyIPPKN5Catch8Matchers4Impl11MatcherBaseISsSsEES6_EvT_S8_RSaIT0_E
FNDA:0,_ZSt8_DestroyIPPN5Catch14IGeneratorInfoES2_EvT_S4_RSaIT0_E
FNDA:1,_ZSt8_DestroyIPPKN5Catch20IExceptionTranslatorES3_EvT_S5_RSaIT0_E
FNDA:11,_ZSt8_DestroyIPN5Catch5Clara6Parser5TokenES3_EvT_S5_RSaIT0_E
FNDA:2,_ZSt8_DestroyIPN5Catch3PtrINS0_16IReporterFactoryEEES3_EvT_S5_RSaIT0_E
FNDA:1,_ZSt8_DestroyIPPN5Catch16TestCaseTracking8ITrackerES3_EvT_S5_RSaIT0_E
FNDA:3,_ZSt8_DestroyIPN5Catch14SectionEndInfoES1_EvT_S3_RSaIT0_E
FNDA:6,_ZSt8_DestroyIPN5Catch3PtrINS0_16TestCaseTracking8ITrackerEEES4_EvT_S6_RSaIT0_E
FNDA:6,_ZSt8_DestroyIPN5Catch8TestCaseES1_EvT_S3_RSaIT0_E
FNDA:17,_ZSt8_DestroyIPN5Catch11MessageInfoES1_EvT_S3_RSaIT0_E
FNDA:7,_ZSt8_DestroyIPN5Catch5Clara11CommandLineINS0_10ConfigDataEE3ArgES5_EvT_S7_RSaIT0_E
FNDA:114,_ZSt8_DestroyIPSsSsEvT_S1_RSaIT0_E
FNDA:6,_ZSt8_DestroyIPN5Catch8TestSpec6FilterES2_EvT_S4_RSaIT0_E
FNDA:6,_ZSt8_DestroyIPN5Catch3PtrINS0_8TestSpec7PatternEEES4_EvT_S6_RSaIT0_E
FNDA:3,_ZSt8_DestroyIPjjEvT_S1_RSaIT0_E
FNF:117
FNH:80
DA:74,86
DA:75,86
DA:92,146
DA:93,146
DA:100,203
DA:102,349
DA:103,146
DA:104,203
DA:112,5
DA:122,208
DA:126,208
DA:128,208
DA:148,208
DA:151,208
DA:152,208
LF:15
LH:15
end_of_record
SF:/opt/Programs/buildroot-at91/output/host/usr/arm-buildroot-linux-gnueabi/include/c++/4.8.2/bits/stl_function.h
FN:234,_ZNKSt4lessIN5Catch8TestCaseEEclERKS1_S4_
FN:234,_ZNKSt4lessIiEclERKiS2_
FN:234,_ZNKSt4lessISsEclERKSsS2_
FN:477,_ZNKSt9_IdentityISsEclERSs
FN:481,_ZNKSt9_IdentityISsEclERKSs
FN:481,_ZNKSt9_IdentityIN5Catch8TestCaseEEclERKS1_
FN:494,_ZNKSt10_Select1stISt4pairIKSsN5Catch7TagInfoEEEclERKS4_
FN:494,_ZNKSt10_Select1stISt4pairIKSsPN5Catch14IGeneratorInfoEEEclERKS5_
FN:494,_ZNKSt10_Select1stISt4pairIKSsN5Catch3PtrINS2_16IReporterFactoryEEEEEclERKS6_
FN:494,_ZNKSt10_Select1stISt4pairIKiN5Catch5Clara11CommandLineINS2_10ConfigDataEE3ArgEEEclERKS8_
FN:494,_ZNKSt10_Select1stISt4pairIKSsPN5Catch18IGeneratorsForTestEEEclERKS5_
FN:494,_ZNKSt10_Select1stISt4pairIKSsN5Catch8TagAliasEEEclERKS4_
FN:500,_ZNKSt10_Select1stISt4pairIKSsN5Catch3PtrINS2_16IReporterFactoryEEEEEclIS0_ISsS5_EEERNT_10first_typeERSA_
FN:500,_ZNKSt10_Select1stISt4pairIKSsN5Catch7TagInfoEEEclIS0_ISsS3_EEERNT_10first_typeERS8_
FN:500,_ZNKSt10_Select1stISt4pairIKSsPN5Catch18IGeneratorsForTestEEEclIS0_ISsS4_EEERNT_10first_typeERS9_
FN:500,_ZNKSt10_Select1stISt4pairIKSsN5Catch8TagAliasEEEclIS0_IPKcS3_EEERNT_10first_typeERSA_
FN:500,_ZNKSt10_Select1stISt4pairIKSsPN5Catch14IGeneratorInfoEEEclIS0_ISsS4_EEERNT_10first_typeERS9_
FNDA:0,_ZNKSt4lessIiEclERKiS2_
FNDA:3,_ZNKSt4lessIN5Catch8TestCaseEEclERKS1_S4_
FNDA:15,_ZNKSt4lessISsEclERKSsS2_
FNDA:0,_ZNKSt9_IdentityISsEclERSs
FNDA:6,_ZNKSt9_IdentityIN5Catch8TestCaseEEclERKS1_
FNDA:8,_ZNKSt9_IdentityISsEclERKSs
FNDA:0,_ZNKSt10_Select1stISt4pairIKiN5Catch5Clara11CommandLineINS2_10ConfigDataEE3ArgEEEclERKS8_
FNDA:0,_ZNKSt10_Select1stISt4pairIKSsN5Catch8TagAliasEEEclERKS4_
FNDA:0,_ZNKSt10_Select1stISt4pairIKSsPN5Catch14IGeneratorInfoEEEclERKS5_
FNDA:0,_ZNKSt10_Select1stISt4pairIKSsPN5Catch18IGeneratorsForTestEEEclERKS5_
FNDA:11,_ZNKSt10_Select1stISt4pairIKSsN5Catch3PtrINS2_16IReporterFactoryEEEEEclERKS6_
FNDA:0,_ZNKSt10_Select1stISt4pairIKSsN5Catch7TagInfoEEEclERKS4_
FNDA:0,_ZNKSt10_Select1stISt4pairIKSsN5Catch8TagAliasEEEclIS0_IPKcS3_EEERNT_10first_typeERSA_
FNDA:0,_ZNKSt10_Select1stISt4pairIKSsPN5Catch14IGeneratorInfoEEEclIS0_ISsS4_EEERNT_10first_typeERS9_
FNDA:0,_ZNKSt10_Select1stISt4pairIKSsPN5Catch18IGeneratorsForTestEEEclIS0_ISsS4_EEERNT_10first_typeERS9_
FNDA:7,_ZNKSt10_Select1stISt4pairIKSsN5Catch3PtrINS2_16IReporterFactoryEEEEEclIS0_ISsS5_EEERNT_10first_typeERSA_
FNDA:0,_ZNKSt10_Select1stISt4pairIKSsN5Catch7TagInfoEEEclIS0_ISsS3_EEERNT_10first_typeERS8_
FNF:17
FNH:6
DA:234,18
DA:235,18
DA:477,0
DA:478,0
DA:481,14
DA:482,14
DA:494,11
DA:495,11
DA:500,7
DA:501,7
LF:10
LH:8
end_of_record
SF:/opt/Programs/buildroot-at91/output/host/usr/arm-buildroot-linux-gnueabi/include/c++/4.8.2/bits/stl_heap.h
FN:131,_ZSt11__push_heapIN9__gnu_cxx17__normal_iteratorIPN5Catch8TestCaseESt6vectorIS3_SaIS3_EEEEiS3_EvT_T0_SA_T1_
FN:227,_ZSt13__adjust_heapIN9__gnu_cxx17__normal_iteratorIPN5Catch8TestCaseESt6vectorIS3_SaIS3_EEEEiS3_EvT_T0_SA_T1_
FN:253,_ZSt10__pop_heapIN9__gnu_cxx17__normal_iteratorIPN5Catch8TestCaseESt6vectorIS3_SaIS3_EEEEEvT_S9_S9_
FN:386,_ZSt9make_heapIN9__gnu_cxx17__normal_iteratorIPN5Catch8TestCaseESt6vectorIS3_SaIS3_EEEEEvT_S9_
FN:465,_ZSt9sort_heapIN9__gnu_cxx17__normal_iteratorIPN5Catch8TestCaseESt6vectorIS3_SaIS3_EEEEEvT_S9_
FNDA:0,_ZSt11__push_heapIN9__gnu_cxx17__normal_iteratorIPN5Catch8TestCaseESt6vectorIS3_SaIS3_EEEEiS3_EvT_T0_SA_T1_
FNDA:0,_ZSt13__adjust_heapIN9__gnu_cxx17__normal_iteratorIPN5Catch8TestCaseESt6vectorIS3_SaIS3_EEEEiS3_EvT_T0_SA_T1_
FNDA:0,_ZSt10__pop_heapIN9__gnu_cxx17__normal_iteratorIPN5Catch8TestCaseESt6vectorIS3_SaIS3_EEEEEvT_S9_S9_
FNDA:0,_ZSt9make_heapIN9__gnu_cxx17__normal_iteratorIPN5Catch8TestCaseESt6vectorIS3_SaIS3_EEEEEvT_S9_
FNDA:0,_ZSt9sort_heapIN9__gnu_cxx17__normal_iteratorIPN5Catch8TestCaseESt6vectorIS3_SaIS3_EEEEEvT_S9_
FNF:5
FNH:0
DA:131,0
DA:134,0
DA:135,0
DA:137,0
DA:138,0
DA:139,0
DA:141,0
DA:142,0
DA:227,0
DA:230,0
DA:231,0
DA:232,0
DA:234,0
DA:235,0
DA:236,0
DA:237,0
DA:238,0
DA:240,0
DA:242,0
DA:243,0
DA:245,0
DA:247,0
DA:248,0
DA:249,0
DA:253,0
DA:261,0
DA:262,0
DA:263,0
DA:265,0
DA:266,0
DA:386,0
DA:399,0
DA:400,0
DA:402,0
DA:403,0
DA:404,0
DA:406,0
DA:407,0
DA:408,0
DA:409,0
DA:410,0
DA:411,0
DA:465,0
DA:475,0
DA:477,0
DA:478,0
DA:480,0
LF:47
LH:0
end_of_record
SF:/opt/Programs/buildroot-at91/output/host/usr/arm-buildroot-linux-gnueabi/include/c++/4.8.2/bits/stl_iterator.h
FN:126,_ZNSt16reverse_iteratorIN9__gnu_cxx17__normal_iteratorIPN5Catch14SectionEndInfoESt6vectorIS3_SaIS3_EEEEEC2ES8_
FN:126,_ZNSt16reverse_iteratorIN9__gnu_cxx17__normal_iteratorIPKcSsEEEC2ES4_
FN:131,_ZNSt16reverse_iteratorIN9__gnu_cxx17__normal_iteratorIPKcSsEEEC2ERKS5_
FN:139,_ZNSt16reverse_iteratorIN9__gnu_cxx17__normal_iteratorIPKN5Catch14SectionEndInfoESt6vectorIS3_SaIS3_EEEEEC2INS1_IPS3_S8_EEEERKS_IT_E
FN:146,_ZNKSt16reverse_iteratorIN9__gnu_cxx17__normal_iteratorIPN5Catch14SectionEndInfoESt6vectorIS3_SaIS3_EEEEE4baseEv
FN:146,_ZNKSt16reverse_iteratorIN9__gnu_cxx17__normal_iteratorIPKcSsEEE4baseEv
FN:146,_ZNKSt16reverse_iteratorIN9__gnu_cxx17__normal_iteratorIPKN5Catch14SectionEndInfoESt6vectorIS3_SaIS3_EEEEE4baseEv
FN:160,_ZNKSt16reverse_iteratorIN9__gnu_cxx17__normal_iteratorIPKN5Catch14SectionEndInfoESt6vectorIS3_SaIS3_EEEEEdeEv
FN:160,_ZNKSt16reverse_iteratorIN9__gnu_cxx17__normal_iteratorIPKcSsEEEdeEv
FN:181,_ZNSt16reverse_iteratorIN9__gnu_cxx17__normal_iteratorIPKcSsEEEppEv
FN:181,_ZNSt16reverse_iteratorIN9__gnu_cxx17__normal_iteratorIPKN5Catch14SectionEndInfoESt6vectorIS3_SaIS3_EEEEEppEv
FN:291,_ZSteqIN9__gnu_cxx17__normal_iteratorIPKcSsEEEbRKSt16reverse_iteratorIT_ES9_
FN:291,_ZSteqIN9__gnu_cxx17__normal_iteratorIPKN5Catch14SectionEndInfoESt6vectorIS3_SaIS3_EEEEEbRKSt16reverse_iteratorIT_ESE_
FN:303,_ZStneIN9__gnu_cxx17__normal_iteratorIPKcSsEEEbRKSt16reverse_iteratorIT_ES9_
FN:303,_ZStneIN9__gnu_cxx17__normal_iteratorIPKN5Catch14SectionEndInfoESt6vectorIS3_SaIS3_EEEEEbRKSt16reverse_iteratorIT_ESE_
FN:414,_ZNSt20back_insert_iteratorISt6vectorISsSaISsEEEC2ERS2_
FN:436,_ZNSt20back_insert_iteratorISt6vectorISsSaISsEEEaSERKSs
FN:452,_ZNSt20back_insert_iteratorISt6vectorISsSaISsEEEdeEv
FN:457,_ZNSt20back_insert_iteratorISt6vectorISsSaISsEEEppEv
FN:479,_ZSt13back_inserterISt6vectorISsSaISsEEESt20back_insert_iteratorIT_ERS4_
FN:726,_ZN9__gnu_cxx17__normal_iteratorIPKN5Catch3PtrINS1_16TestCaseTracking8ITrackerEEESt6vectorIS5_SaIS5_EEEC2ERKS7_
FN:726,_ZN9__gnu_cxx17__normal_iteratorIPKN5Catch3PtrINS1_8TestSpec7PatternEEESt6vectorIS5_SaIS5_EEEC2ERKS7_
FN:726,_ZN9__gnu_cxx17__normal_iteratorIPPN5Catch14IGeneratorInfoESt6vectorIS3_SaIS3_EEEC2ERKS4_
FN:726,_ZN9__gnu_cxx17__normal_iteratorIPPN5Catch16TestCaseTracking8ITrackerESt6vectorIS4_SaIS4_EEEC2ERKS5_
FN:726,_ZN9__gnu_cxx17__normal_iteratorIPKcSsEC2ERKS2_
FN:726,_ZN9__gnu_cxx17__normal_iteratorIPKN5Catch5Clara11CommandLineINS1_10ConfigDataEE3ArgESt6vectorIS6_SaIS6_EEEC2ERKS8_
FN:726,_ZN9__gnu_cxx17__normal_iteratorIPKN5Catch3PtrINS1_22CumulativeReporterBase4NodeINS1_13TestCaseStatsENS3_11SectionNodeEEEEESt6vectorIS8_SaIS8_EEEC2ERKSA_
FN:726,_ZN9__gnu_cxx17__normal_iteratorIPN5Catch14AssertionStatsESt6vectorIS2_SaIS2_EEEC2ERKS3_
FN:726,_ZN9__gnu_cxx17__normal_iteratorIPKN5Catch5Clara6Parser5TokenESt6vectorIS4_SaIS4_EEEC2ERKS6_
FN:726,_ZN9__gnu_cxx17__normal_iteratorIPN5Catch3PtrINS1_22CumulativeReporterBase4NodeINS1_14TestGroupStatsENS4_INS1_13TestCaseStatsENS3_11SectionNodeEEEEEEESt6vectorISA_SaISA_EEEC2ERKSB_
FN:726,_ZN9__gnu_cxx17__normal_iteratorIPKN5Catch14SectionEndInfoESt6vectorIS2_SaIS2_EEEC2ERKS4_
FN:726,_ZN9__gnu_cxx17__normal_iteratorIPKSsSt6vectorISsSaISsEEEC2ERKS2_
FN:726,_ZN9__gnu_cxx17__normal_iteratorIPcSsEC2ERKS1_
FN:726,_ZN9__gnu_cxx17__normal_iteratorIPKN5Catch3PtrINS1_16IReporterFactoryEEESt6vectorIS4_SaIS4_EEEC2ERKS6_
FN:726,_ZN9__gnu_cxx17__normal_iteratorIPKN5Catch8TestCaseESt6vectorIS2_SaIS2_EEEC2ERKS4_
FN:726,_ZN9__gnu_cxx17__normal_iteratorIPKN5Catch11SectionInfoESt6vectorIS2_SaIS2_EEEC2ERKS4_
FN:726,_ZN9__gnu_cxx17__normal_iteratorIPN5Catch8TestCaseESt6vectorIS2_SaIS2_EEEC2ERKS3_
FN:726,_ZN9__gnu_cxx17__normal_iteratorIPKN5Catch8TestSpec6FilterESt6vectorIS3_SaIS3_EEEC2ERKS5_
FN:726,_ZN9__gnu_cxx17__normal_iteratorIPN5Catch5Clara11CommandLineINS1_10ConfigDataEE3ArgESt6vectorIS6_SaIS6_EEEC2ERKS7_
FN:726,_ZN9__gnu_cxx17__normal_iteratorIPKN5Catch15ConsoleReporter13SummaryColumnESt6vectorIS3_SaIS3_EEEC2ERKS5_
FN:726,_ZN9__gnu_cxx17__normal_iteratorIPN5Catch3PtrINS1_16IReporterFactoryEEESt6vectorIS4_SaIS4_EEEC2ERKS5_
FN:726,_ZN9__gnu_cxx17__normal_iteratorIPKPN5Catch16TestCaseTracking8ITrackerESt6vectorIS4_SaIS4_EEEC2ERKS6_
FN:726,_ZN9__gnu_cxx17__normal_iteratorIPKN5Catch11MessageInfoESt6vectorIS2_SaIS2_EEEC2ERKS4_
FN:726,_ZN9__gnu_cxx17__normal_iteratorIPN5Catch3PtrINS1_18IStreamingReporterEEESt6vectorIS4_SaIS4_EEEC2ERKS5_
FN:726,_ZN9__gnu_cxx17__normal_iteratorIPN5Catch3PtrINS1_22CumulativeReporterBase11SectionNodeEEESt6vectorIS5_SaIS5_EEEC2ERKS6_
FN:726,_ZN9__gnu_cxx17__normal_iteratorIPKN5Catch3PtrINS1_22CumulativeReporterBase11SectionNodeEEESt6vectorIS5_SaIS5_EEEC2ERKS7_
FN:726,_ZN9__gnu_cxx17__normal_iteratorIPKPKN5Catch20IExceptionTranslatorESt6vectorIS4_SaIS4_EEEC2ERKS6_
FN:726,_ZN9__gnu_cxx17__normal_iteratorIPN5Catch14SectionEndInfoESt6vectorIS2_SaIS2_EEEC2ERKS3_
FN:726,_ZN9__gnu_cxx17__normal_iteratorIPSsSt6vectorISsSaISsEEEC2ERKS1_
FN:726,_ZN9__gnu_cxx17__normal_iteratorIPPKN5Catch20IExceptionTranslatorESt6vectorIS4_SaIS4_EEEC2ERKS5_
FN:726,_ZN9__gnu_cxx17__normal_iteratorIPN5Catch3PtrINS1_16TestCaseTracking8ITrackerEEESt6vectorIS5_SaIS5_EEEC2ERKS6_
FN:726,_ZN9__gnu_cxx17__normal_iteratorIPN5Catch11MessageInfoESt6vectorIS2_SaIS2_EEEC2ERKS3_
FN:726,_ZN9__gnu_cxx17__normal_iteratorIPKN5Catch14AssertionStatsESt6vectorIS2_SaIS2_EEEC2ERKS4_
FN:726,_ZN9__gnu_cxx17__normal_iteratorIPN5Catch11SectionInfoESt6vectorIS2_SaIS2_EEEC2ERKS3_
FN:730,_ZN9__gnu_cxx17__normal_iteratorIPKPN5Catch14IGeneratorInfoESt6vectorIS3_SaIS3_EEEC2IPS3_EERKNS0_IT_NS_11__enable_ifIXsrSt10__are_sameISC_SB_E7__valueES8_E6__typeEEE
FN:730,_ZN9__gnu_cxx17__normal_iteratorIPKN5Catch3PtrINS1_16IReporterFactoryEEESt6vectorIS4_SaIS4_EEEC2IPS4_EERKNS0_IT_NS_11__enable_ifIXsrSt10__are_sameISD_SC_E7__valueES9_E6__typeEEE
FN:730,_ZN9__gnu_cxx17__normal_iteratorIPKPKN5Catch20IExceptionTranslatorESt6vectorIS4_SaIS4_EEEC2IPS4_EERKNS0_IT_NS_11__enable_ifIXsrSt10__are_sameISD_SC_E7__valueES9_E6__typeEEE
FN:730,_ZN9__gnu_cxx17__normal_iteratorIPKN5Catch14SectionEndInfoESt6vectorIS2_SaIS2_EEEC2IPS2_EERKNS0_IT_NS_11__enable_ifIXsrSt10__are_sameISB_SA_E7__valueES7_E6__typeEEE
FN:730,_ZN9__gnu_cxx17__normal_iteratorIPKN5Catch8TestCaseESt6vectorIS2_SaIS2_EEEC2IPS2_EERKNS0_IT_NS_11__enable_ifIXsrSt10__are_sameISB_SA_E7__valueES7_E6__typeEEE
FN:730,_ZN9__gnu_cxx17__normal_iteratorIPKSsSt6vectorISsSaISsEEEC2IPSsEERKNS0_IT_NS_11__enable_ifIXsrSt10__are_sameIS9_S8_E7__valueES5_E6__typeEEE
FN:730,_ZN9__gnu_cxx17__normal_iteratorIPKN5Catch11SectionInfoESt6vectorIS2_SaIS2_EEEC2IPS2_EERKNS0_IT_NS_11__enable_ifIXsrSt10__are_sameISB_SA_E7__valueES7_E6__typeEEE
FN:730,_ZN9__gnu_cxx17__normal_iteratorIPKN5Catch3PtrINS1_16TestCaseTracking8ITrackerEEESt6vectorIS5_SaIS5_EEEC2IPS5_EERKNS0_IT_NS_11__enable_ifIXsrSt10__are_sameISE_SD_E7__valueESA_E6__typeEEE
FN:730,_ZN9__gnu_cxx17__normal_iteratorIPKN5Catch3PtrINS1_18IStreamingReporterEEESt6vectorIS4_SaIS4_EEEC2IPS4_EERKNS0_IT_NS_11__enable_ifIXsrSt10__are_sameISD_SC_E7__valueES9_E6__typeEEE
FN:730,_ZN9__gnu_cxx17__normal_iteratorIPKN5Catch3PtrINS1_22CumulativeReporterBase11SectionNodeEEESt6vectorIS5_SaIS5_EEEC2IPS5_EERKNS0_IT_NS_11__enable_ifIXsrSt10__are_sameISE_SD_E7__valueESA_E6__typeEEE
FN:730,_ZN9__gnu_cxx17__normal_iteratorIPKN5Catch11MessageInfoESt6vectorIS2_SaIS2_EEEC2IPS2_EERKNS0_IT_NS_11__enable_ifIXsrSt10__are_sameISB_SA_E7__valueES7_E6__typeEEE
FN:738,_ZNK9__gnu_cxx17__normal_iteratorIPN5Catch14AssertionStatsESt6vectorIS2_SaIS2_EEEdeEv
FN:738,_ZNK9__gnu_cxx17__normal_iteratorIPKN5Catch5Clara11CommandLineINS1_10ConfigDataEE3ArgESt6vectorIS6_SaIS6_EEEdeEv
FN:738,_ZNK9__gnu_cxx17__normal_iteratorIPKN5Catch3PtrINS1_16IReporterFactoryEEESt6vectorIS4_SaIS4_EEEdeEv
FN:738,_ZNK9__gnu_cxx17__normal_iteratorIPKSsSt6vectorISsSaISsEEEdeEv
FN:738,_ZNK9__gnu_cxx17__normal_iteratorIPcSsEdeEv
FN:738,_ZNK9__gnu_cxx17__normal_iteratorIPKN5Catch8TestCaseESt6vectorIS2_SaIS2_EEEdeEv
FN:738,_ZNK9__gnu_cxx17__normal_iteratorIPKPN5Catch14IGeneratorInfoESt6vectorIS3_SaIS3_EEEdeEv
FN:738,_ZNK9__gnu_cxx17__normal_iteratorIPN5Catch3PtrINS1_22CumulativeReporterBase11SectionNodeEEESt6vectorIS5_SaIS5_EEEdeEv
FN:738,_ZNK9__gnu_cxx17__normal_iteratorIPKN5Catch3PtrINS1_8TestSpec7PatternEEESt6vectorIS5_SaIS5_EEEdeEv
FN:738,_ZNK9__gnu_cxx17__normal_iteratorIPKN5Catch3PtrINS1_22CumulativeReporterBase11SectionNodeEEESt6vectorIS5_SaIS5_EEEdeEv
FN:738,_ZNK9__gnu_cxx17__normal_iteratorIPKPKN5Catch20IExceptionTranslatorESt6vectorIS4_SaIS4_EEEdeEv
FN:738,_ZNK9__gnu_cxx17__normal_iteratorIPKN5Catch3PtrINS1_18IStreamingReporterEEESt6vectorIS4_SaIS4_EEEdeEv
FN:738,_ZNK9__gnu_cxx17__normal_iteratorIPPN5Catch16TestCaseTracking8ITrackerESt6vectorIS4_SaIS4_EEEdeEv
FN:738,_ZNK9__gnu_cxx17__normal_iteratorIPKN5Catch14SectionEndInfoESt6vectorIS2_SaIS2_EEEdeEv
FN:738,_ZNK9__gnu_cxx17__normal_iteratorIPKN5Catch3PtrINS1_22CumulativeReporterBase4NodeINS1_13TestCaseStatsENS3_11SectionNodeEEEEESt6vectorIS8_SaIS8_EEEdeEv
FN:738,_ZNK9__gnu_cxx17__normal_iteratorIPN5Catch3PtrINS1_16TestCaseTracking8ITrackerEEESt6vectorIS5_SaIS5_EEEdeEv
FN:738,_ZNK9__gnu_cxx17__normal_iteratorIPN5Catch11SectionInfoESt6vectorIS2_SaIS2_EEEdeEv
FN:738,_ZNK9__gnu_cxx17__normal_iteratorIPKN5Catch8TestSpec6FilterESt6vectorIS3_SaIS3_EEEdeEv
FN:738,_ZNK9__gnu_cxx17__normal_iteratorIPKcSsEdeEv
FN:738,_ZNK9__gnu_cxx17__normal_iteratorIPN5Catch11MessageInfoESt6vectorIS2_SaIS2_EEEdeEv
FN:738,_ZNK9__gnu_cxx17__normal_iteratorIPN5Catch8TestCaseESt6vectorIS2_SaIS2_EEEdeEv
FN:738,_ZNK9__gnu_cxx17__normal_iteratorIPSsSt6vectorISsSaISsEEEdeEv
FN:738,_ZNK9__gnu_cxx17__normal_iteratorIPKN5Catch5Clara6Parser5TokenESt6vectorIS4_SaIS4_EEEdeEv
FN:738,_ZNK9__gnu_cxx17__normal_iteratorIPN5Catch3PtrINS1_22CumulativeReporterBase4NodeINS1_14TestGroupStatsENS4_INS1_13TestCaseStatsENS3_11SectionNodeEEEEEEESt6vectorISA_SaISA_EEEdeEv
FN:738,_ZNK9__gnu_cxx17__normal_iteratorIPN5Catch5Clara11CommandLineINS1_10ConfigDataEE3ArgESt6vectorIS6_SaIS6_EEEdeEv
FN:738,_ZNK9__gnu_cxx17__normal_iteratorIPKN5Catch14AssertionStatsESt6vectorIS2_SaIS2_EEEdeEv
FN:738,_ZNK9__gnu_cxx17__normal_iteratorIPKN5Catch11MessageInfoESt6vectorIS2_SaIS2_EEEdeEv
FN:742,_ZNK9__gnu_cxx17__normal_iteratorIPKN5Catch3PtrINS1_16TestCaseTracking8ITrackerEEESt6vectorIS5_SaIS5_EEEptEv
FN:742,_ZNK9__gnu_cxx17__normal_iteratorIPKN5Catch11MessageInfoESt6vectorIS2_SaIS2_EEEptEv
FN:742,_ZNK9__gnu_cxx17__normal_iteratorIPKN5Catch8TestCaseESt6vectorIS2_SaIS2_EEEptEv
FN:742,_ZNK9__gnu_cxx17__normal_iteratorIPKN5Catch8TestSpec6FilterESt6vectorIS3_SaIS3_EEEptEv
FN:742,_ZNK9__gnu_cxx17__normal_iteratorIPKN5Catch11SectionInfoESt6vectorIS2_SaIS2_EEEptEv
FN:742,_ZNK9__gnu_cxx17__normal_iteratorIPKN5Catch5Clara11CommandLineINS1_10ConfigDataEE3ArgESt6vectorIS6_SaIS6_EEEptEv
FN:742,_ZNK9__gnu_cxx17__normal_iteratorIPKN5Catch15ConsoleReporter13SummaryColumnESt6vectorIS3_SaIS3_EEEptEv
FN:742,_ZNK9__gnu_cxx17__normal_iteratorIPSsSt6vectorISsSaISsEEEptEv
FN:746,_ZN9__gnu_cxx17__normal_iteratorIPKN5Catch3PtrINS1_8TestSpec7PatternEEESt6vectorIS5_SaIS5_EEEppEv
FN:746,_ZN9__gnu_cxx17__normal_iteratorIPcSsEppEv
FN:746,_ZN9__gnu_cxx17__normal_iteratorIPKN5Catch3PtrINS1_22CumulativeReporterBase4NodeINS1_13TestCaseStatsENS3_11SectionNodeEEEEESt6vectorIS8_SaIS8_EEEppEv
FN:746,_ZN9__gnu_cxx17__normal_iteratorIPKN5Catch11MessageInfoESt6vectorIS2_SaIS2_EEEppEv
FN:746,_ZN9__gnu_cxx17__normal_iteratorIPKN5Catch15ConsoleReporter13SummaryColumnESt6vectorIS3_SaIS3_EEEppEv
FN:746,_ZN9__gnu_cxx17__normal_iteratorIPKPKN5Catch20IExceptionTranslatorESt6vectorIS4_SaIS4_EEEppEv
FN:746,_ZN9__gnu_cxx17__normal_iteratorIPKN5Catch14AssertionStatsESt6vectorIS2_SaIS2_EEEppEv
FN:746,_ZN9__gnu_cxx17__normal_iteratorIPN5Catch3PtrINS1_16TestCaseTracking8ITrackerEEESt6vectorIS5_SaIS5_EEEppEv
FN:746,_ZN9__gnu_cxx17__normal_iteratorIPKN5Catch11SectionInfoESt6vectorIS2_SaIS2_EEEppEv
FN:746,_ZN9__gnu_cxx17__normal_iteratorIPKN5Catch3PtrINS1_16IReporterFactoryEEESt6vectorIS4_SaIS4_EEEppEv
FN:746,_ZN9__gnu_cxx17__normal_iteratorIPKN5Catch8TestCaseESt6vectorIS2_SaIS2_EEEppEv
FN:746,_ZN9__gnu_cxx17__normal_iteratorIPKN5Catch5Clara11CommandLineINS1_10ConfigDataEE3ArgESt6vectorIS6_SaIS6_EEEppEv
FN:746,_ZN9__gnu_cxx17__normal_iteratorIPKN5Catch5Clara6Parser5TokenESt6vectorIS4_SaIS4_EEEppEv
FN:746,_ZN9__gnu_cxx17__normal_iteratorIPKN5Catch3PtrINS1_22CumulativeReporterBase11SectionNodeEEESt6vectorIS5_SaIS5_EEEppEv
FN:746,_ZN9__gnu_cxx17__normal_iteratorIPKSsSt6vectorISsSaISsEEEppEv
FN:746,_ZN9__gnu_cxx17__normal_iteratorIPKN5Catch8TestSpec6FilterESt6vectorIS3_SaIS3_EEEppEv
FN:746,_ZN9__gnu_cxx17__normal_iteratorIPSsSt6vectorISsSaISsEEEppEv
FN:746,_ZN9__gnu_cxx17__normal_iteratorIPN5Catch11MessageInfoESt6vectorIS2_SaIS2_EEEppEv
FN:746,_ZN9__gnu_cxx17__normal_iteratorIPKcSsEppEv
FN:746,_ZN9__gnu_cxx17__normal_iteratorIPN5Catch8TestCaseESt6vectorIS2_SaIS2_EEEppEv
FN:746,_ZN9__gnu_cxx17__normal_iteratorIPKN5Catch3PtrINS1_18IStreamingReporterEEESt6vectorIS4_SaIS4_EEEppEv
FN:746,_ZN9__gnu_cxx17__normal_iteratorIPKPN5Catch14IGeneratorInfoESt6vectorIS3_SaIS3_EEEppEv
FN:746,_ZN9__gnu_cxx17__normal_iteratorIPN5Catch3PtrINS1_22CumulativeReporterBase11SectionNodeEEESt6vectorIS5_SaIS5_EEEppEv
FN:758,_ZN9__gnu_cxx17__normal_iteratorIPN5Catch8TestCaseESt6vectorIS2_SaIS2_EEEmmEv
FN:758,_ZN9__gnu_cxx17__normal_iteratorIPKN5Catch14SectionEndInfoESt6vectorIS2_SaIS2_EEEmmEv
FN:758,_ZN9__gnu_cxx17__normal_iteratorIPKcSsEmmEv
FN:778,_ZNK9__gnu_cxx17__normal_iteratorIPN5Catch8TestCaseESt6vectorIS2_SaIS2_EEEplERKi
FN:778,_ZNK9__gnu_cxx17__normal_iteratorIPKcSsEplERKi
FN:778,_ZNK9__gnu_cxx17__normal_iteratorIPN5Catch11SectionInfoESt6vectorIS2_SaIS2_EEEplERKi
FN:778,_ZNK9__gnu_cxx17__normal_iteratorIPKPKN5Catch20IExceptionTranslatorESt6vectorIS4_SaIS4_EEEplERKi
FN:778,_ZNK9__gnu_cxx17__normal_iteratorIPKSsSt6vectorISsSaISsEEEplERKi
FN:786,_ZNK9__gnu_cxx17__normal_iteratorIPN5Catch11SectionInfoESt6vectorIS2_SaIS2_EEEmiERKi
FN:786,_ZNK9__gnu_cxx17__normal_iteratorIPN5Catch14AssertionStatsESt6vectorIS2_SaIS2_EEEmiERKi
FN:786,_ZNK9__gnu_cxx17__normal_iteratorIPN5Catch3PtrINS1_16TestCaseTracking8ITrackerEEESt6vectorIS5_SaIS5_EEEmiERKi
FN:786,_ZNK9__gnu_cxx17__normal_iteratorIPN5Catch3PtrINS1_22CumulativeReporterBase4NodeINS1_14TestGroupStatsENS4_INS1_13TestCaseStatsENS3_11SectionNodeEEEEEEESt6vectorISA_SaISA_EEEmiERKi
FN:786,_ZNK9__gnu_cxx17__normal_iteratorIPN5Catch8TestCaseESt6vectorIS2_SaIS2_EEEmiERKi
FN:786,_ZNK9__gnu_cxx17__normal_iteratorIPKcSsEmiERKi
FN:786,_ZNK9__gnu_cxx17__normal_iteratorIPSsSt6vectorISsSaISsEEEmiERKi
FN:786,_ZNK9__gnu_cxx17__normal_iteratorIPN5Catch5Clara11CommandLineINS1_10ConfigDataEE3ArgESt6vectorIS6_SaIS6_EEEmiERKi
FN:786,_ZNK9__gnu_cxx17__normal_iteratorIPPN5Catch16TestCaseTracking8ITrackerESt6vectorIS4_SaIS4_EEEmiERKi
FN:786,_ZNK9__gnu_cxx17__normal_iteratorIPN5Catch3PtrINS1_22CumulativeReporterBase11SectionNodeEEESt6vectorIS5_SaIS5_EEEmiERKi
FN:790,_ZNK9__gnu_cxx17__normal_iteratorIPKN5Catch14SectionEndInfoESt6vectorIS2_SaIS2_EEE4baseEv
FN:790,_ZNK9__gnu_cxx17__normal_iteratorIPKPN5Catch16TestCaseTracking8ITrackerESt6vectorIS4_SaIS4_EEE4baseEv
FN:790,_ZNK9__gnu_cxx17__normal_iteratorIPKN5Catch5Clara11CommandLineINS1_10ConfigDataEE3ArgESt6vectorIS6_SaIS6_EEE4baseEv
FN:790,_ZNK9__gnu_cxx17__normal_iteratorIPcSsE4baseEv
FN:790,_ZNK9__gnu_cxx17__normal_iteratorIPKN5Catch8TestSpec6FilterESt6vectorIS3_SaIS3_EEE4baseEv
FN:790,_ZNK9__gnu_cxx17__normal_iteratorIPN5Catch3PtrINS1_18IStreamingReporterEEESt6vectorIS4_SaIS4_EEE4baseEv
FN:790,_ZNK9__gnu_cxx17__normal_iteratorIPKN5Catch15ConsoleReporter13SummaryColumnESt6vectorIS3_SaIS3_EEE4baseEv
FN:790,_ZNK9__gnu_cxx17__normal_iteratorIPN5Catch3PtrINS1_16IReporterFactoryEEESt6vectorIS4_SaIS4_EEE4baseEv
FN:790,_ZNK9__gnu_cxx17__normal_iteratorIPN5Catch3PtrINS1_16TestCaseTracking8ITrackerEEESt6vectorIS5_SaIS5_EEE4baseEv
FN:790,_ZNK9__gnu_cxx17__normal_iteratorIPKN5Catch11SectionInfoESt6vectorIS2_SaIS2_EEE4baseEv
FN:790,_ZNK9__gnu_cxx17__normal_iteratorIPKPN5Catch14IGeneratorInfoESt6vectorIS3_SaIS3_EEE4baseEv
FN:790,_ZNK9__gnu_cxx17__normal_iteratorIPKN5Catch3PtrINS1_16IReporterFactoryEEESt6vectorIS4_SaIS4_EEE4baseEv
FN:790,_ZNK9__gnu_cxx17__normal_iteratorIPKN5Catch3PtrINS1_18IStreamingReporterEEESt6vectorIS4_SaIS4_EEE4baseEv
FN:790,_ZNK9__gnu_cxx17__normal_iteratorIPKN5Catch14AssertionStatsESt6vectorIS2_SaIS2_EEE4baseEv
FN:790,_ZNK9__gnu_cxx17__normal_iteratorIPN5Catch8TestCaseESt6vectorIS2_SaIS2_EEE4baseEv
FN:790,_ZNK9__gnu_cxx17__normal_iteratorIPN5Catch11MessageInfoESt6vectorIS2_SaIS2_EEE4baseEv
FN:790,_ZNK9__gnu_cxx17__normal_iteratorIPSsSt6vectorISsSaISsEEE4baseEv
FN:790,_ZNK9__gnu_cxx17__normal_iteratorIPKSsSt6vectorISsSaISsEEE4baseEv
FN:790,_ZNK9__gnu_cxx17__normal_iteratorIPKN5Catch3PtrINS1_22CumulativeReporterBase4NodeINS1_13TestCaseStatsENS3_11SectionNodeEEEEESt6vectorIS8_SaIS8_EEE4baseEv
FN:790,_ZNK9__gnu_cxx17__normal_iteratorIPKN5Catch5Clara6Parser5TokenESt6vectorIS4_SaIS4_EEE4baseEv
FN:790,_ZNK9__gnu_cxx17__normal_iteratorIPN5Catch11SectionInfoESt6vectorIS2_SaIS2_EEE4baseEv
FN:790,_ZNK9__gnu_cxx17__normal_iteratorIPPKN5Catch20IExceptionTranslatorESt6vectorIS4_SaIS4_EEE4baseEv
FN:790,_ZNK9__gnu_cxx17__normal_iteratorIPKN5Catch3PtrINS1_22CumulativeReporterBase11SectionNodeEEESt6vectorIS5_SaIS5_EEE4baseEv
FN:790,_ZNK9__gnu_cxx17__normal_iteratorIPN5Catch3PtrINS1_22CumulativeReporterBase11SectionNodeEEESt6vectorIS5_SaIS5_EEE4baseEv
FN:790,_ZNK9__gnu_cxx17__normal_iteratorIPN5Catch14SectionEndInfoESt6vectorIS2_SaIS2_EEE4baseEv
FN:790,_ZNK9__gnu_cxx17__normal_iteratorIPKN5Catch3PtrINS1_8TestSpec7PatternEEESt6vectorIS5_SaIS5_EEE4baseEv
FN:790,_ZNK9__gnu_cxx17__normal_iteratorIPKN5Catch11MessageInfoESt6vectorIS2_SaIS2_EEE4baseEv
FN:790,_ZNK9__gnu_cxx17__normal_iteratorIPKcSsE4baseEv
FN:790,_ZNK9__gnu_cxx17__normal_iteratorIPKPKN5Catch20IExceptionTranslatorESt6vectorIS4_SaIS4_EEE4baseEv
FN:790,_ZNK9__gnu_cxx17__normal_iteratorIPPN5Catch14IGeneratorInfoESt6vectorIS3_SaIS3_EEE4baseEv
FN:790,_ZNK9__gnu_cxx17__normal_iteratorIPKN5Catch8TestCaseESt6vectorIS2_SaIS2_EEE4baseEv
FN:790,_ZNK9__gnu_cxx17__normal_iteratorIPKN5Catch3PtrINS1_16TestCaseTracking8ITrackerEEESt6vectorIS5_SaIS5_EEE4baseEv
FN:805,_ZN9__gnu_cxxeqIPKN5Catch3PtrINS1_22CumulativeReporterBase11SectionNodeEEEPS5_St6vectorIS5_SaIS5_EEEEbRKNS_17__normal_iteratorIT_T1_EERKNSC_IT0_SE_EE
FN:805,_ZN9__gnu_cxxeqIPKN5Catch11MessageInfoEPS2_St6vectorIS2_SaIS2_EEEEbRKNS_17__normal_iteratorIT_T1_EERKNS9_IT0_SB_EE
FN:811,_ZN9__gnu_cxxeqIPKN5Catch14AssertionStatsESt6vectorIS2_SaIS2_EEEEbRKNS_17__normal_iteratorIT_T0_EESD_
FN:811,_ZN9__gnu_cxxeqIPKN5Catch11SectionInfoESt6vectorIS2_SaIS2_EEEEbRKNS_17__normal_iteratorIT_T0_EESD_
FN:811,_ZN9__gnu_cxxeqIPKN5Catch8TestCaseESt6vectorIS2_SaIS2_EEEEbRKNS_17__normal_iteratorIT_T0_EESD_
FN:811,_ZN9__gnu_cxxeqIPKN5Catch3PtrINS1_16TestCaseTracking8ITrackerEEESt6vectorIS5_SaIS5_EEEEbRKNS_17__normal_iteratorIT_T0_EESG_
FN:811,_ZN9__gnu_cxxeqIPKN5Catch3PtrINS1_22CumulativeReporterBase11SectionNodeEEESt6vectorIS5_SaIS5_EEEEbRKNS_17__normal_iteratorIT_T0_EESG_
FN:811,_ZN9__gnu_cxxeqIPN5Catch11MessageInfoESt6vectorIS2_SaIS2_EEEEbRKNS_17__normal_iteratorIT_T0_EESC_
FN:811,_ZN9__gnu_cxxeqIPKN5Catch8TestSpec6FilterESt6vectorIS3_SaIS3_EEEEbRKNS_17__normal_iteratorIT_T0_EESE_
FN:811,_ZN9__gnu_cxxeqIPKPN5Catch16TestCaseTracking8ITrackerESt6vectorIS4_SaIS4_EEEEbRKNS_17__normal_iteratorIT_T0_EESF_
FN:811,_ZN9__gnu_cxxeqIPKN5Catch5Clara11CommandLineINS1_10ConfigDataEE3ArgESt6vectorIS6_SaIS6_EEEEbRKNS_17__normal_iteratorIT_T0_EESH_
FN:811,_ZN9__gnu_cxxeqIPKN5Catch3PtrINS1_8TestSpec7PatternEEESt6vectorIS5_SaIS5_EEEEbRKNS_17__normal_iteratorIT_T0_EESG_
FN:811,_ZN9__gnu_cxxeqIPKSsSt6vectorISsSaISsEEEEbRKNS_17__normal_iteratorIT_T0_EESB_
FN:811,_ZN9__gnu_cxxeqIPKPKN5Catch20IExceptionTranslatorESt6vectorIS4_SaIS4_EEEEbRKNS_17__normal_iteratorIT_T0_EESF_
FN:811,_ZN9__gnu_cxxeqIPKcSsEEbRKNS_17__normal_iteratorIT_T0_EES8_
FN:811,_ZN9__gnu_cxxeqIPKN5Catch14SectionEndInfoESt6vectorIS2_SaIS2_EEEEbRKNS_17__normal_iteratorIT_T0_EESD_
FN:811,_ZN9__gnu_cxxeqIPN5Catch8TestCaseESt6vectorIS2_SaIS2_EEEEbRKNS_17__normal_iteratorIT_T0_EESC_
FN:817,_ZN9__gnu_cxxneIPKN5Catch3PtrINS1_16TestCaseTracking8ITrackerEEEPS5_St6vectorIS5_SaIS5_EEEEbRKNS_17__normal_iteratorIT_T1_EERKNSC_IT0_SE_EE
FN:817,_ZN9__gnu_cxxneIPKN5Catch11MessageInfoEPS2_St6vectorIS2_SaIS2_EEEEbRKNS_17__normal_iteratorIT_T1_EERKNS9_IT0_SB_EE
FN:817,_ZN9__gnu_cxxneIPKSsPSsSt6vectorISsSaISsEEEEbRKNS_17__normal_iteratorIT_T1_EERKNS7_IT0_S9_EE
FN:823,_ZN9__gnu_cxxneIPKN5Catch5Clara6Parser5TokenESt6vectorIS4_SaIS4_EEEEbRKNS_17__normal_iteratorIT_T0_EESF_
FN:823,_ZN9__gnu_cxxneIPcSsEEbRKNS_17__normal_iteratorIT_T0_EES7_
FN:823,_ZN9__gnu_cxxneIPKN5Catch3PtrINS1_8TestSpec7PatternEEESt6vectorIS5_SaIS5_EEEEbRKNS_17__normal_iteratorIT_T0_EESG_
FN:823,_ZN9__gnu_cxxneIPKN5Catch5Clara11CommandLineINS1_10ConfigDataEE3ArgESt6vectorIS6_SaIS6_EEEEbRKNS_17__normal_iteratorIT_T0_EESH_
FN:823,_ZN9__gnu_cxxneIPKN5Catch3PtrINS1_22CumulativeReporterBase11SectionNodeEEESt6vectorIS5_SaIS5_EEEEbRKNS_17__normal_iteratorIT_T0_EESG_
FN:823,_ZN9__gnu_cxxneIPKcSsEEbRKNS_17__normal_iteratorIT_T0_EES8_
FN:823,_ZN9__gnu_cxxneIPKN5Catch3PtrINS1_16IReporterFactoryEEESt6vectorIS4_SaIS4_EEEEbRKNS_17__normal_iteratorIT_T0_EESF_
FN:823,_ZN9__gnu_cxxneIPN5Catch11MessageInfoESt6vectorIS2_SaIS2_EEEEbRKNS_17__normal_iteratorIT_T0_EESC_
FN:823,_ZN9__gnu_cxxneIPKN5Catch14AssertionStatsESt6vectorIS2_SaIS2_EEEEbRKNS_17__normal_iteratorIT_T0_EESD_
FN:823,_ZN9__gnu_cxxneIPKN5Catch8TestSpec6FilterESt6vectorIS3_SaIS3_EEEEbRKNS_17__normal_iteratorIT_T0_EESE_
FN:823,_ZN9__gnu_cxxneIPN5Catch8TestCaseESt6vectorIS2_SaIS2_EEEEbRKNS_17__normal_iteratorIT_T0_EESC_
FN:823,_ZN9__gnu_cxxneIPSsSt6vectorISsSaISsEEEEbRKNS_17__normal_iteratorIT_T0_EESA_
FN:823,_ZN9__gnu_cxxneIPKPN5Catch14IGeneratorInfoESt6vectorIS3_SaIS3_EEEEbRKNS_17__normal_iteratorIT_T0_EESE_
FN:823,_ZN9__gnu_cxxneIPKN5Catch11SectionInfoESt6vectorIS2_SaIS2_EEEEbRKNS_17__normal_iteratorIT_T0_EESD_
FN:823,_ZN9__gnu_cxxneIPKSsSt6vectorISsSaISsEEEEbRKNS_17__normal_iteratorIT_T0_EESB_
FN:823,_ZN9__gnu_cxxneIPKN5Catch15ConsoleReporter13SummaryColumnESt6vectorIS3_SaIS3_EEEEbRKNS_17__normal_iteratorIT_T0_EESE_
FN:823,_ZN9__gnu_cxxneIPKN5Catch3PtrINS1_22CumulativeReporterBase4NodeINS1_13TestCaseStatsENS3_11SectionNodeEEEEESt6vectorIS8_SaIS8_EEEEbRKNS_17__normal_iteratorIT_T0_EESJ_
FN:823,_ZN9__gnu_cxxneIPKPKN5Catch20IExceptionTranslatorESt6vectorIS4_SaIS4_EEEEbRKNS_17__normal_iteratorIT_T0_EESF_
FN:823,_ZN9__gnu_cxxneIPKN5Catch3PtrINS1_18IStreamingReporterEEESt6vectorIS4_SaIS4_EEEEbRKNS_17__normal_iteratorIT_T0_EESF_
FN:823,_ZN9__gnu_cxxneIPKN5Catch11MessageInfoESt6vectorIS2_SaIS2_EEEEbRKNS_17__normal_iteratorIT_T0_EESD_
FN:823,_ZN9__gnu_cxxneIPKN5Catch8TestCaseESt6vectorIS2_SaIS2_EEEEbRKNS_17__normal_iteratorIT_T0_EESD_
FN:836,_ZN9__gnu_cxxltIPN5Catch8TestCaseESt6vectorIS2_SaIS2_EEEEbRKNS_17__normal_iteratorIT_T0_EESC_
FN:848,_ZN9__gnu_cxxgtIPKcSsEEbRKNS_17__normal_iteratorIT_T0_EES8_
FN:896,_ZN9__gnu_cxxmiIPKSsSt6vectorISsSaISsEEEENS_17__normal_iteratorIT_T0_E15difference_typeERKS9_SC_
FN:896,_ZN9__gnu_cxxmiIPN5Catch11MessageInfoESt6vectorIS2_SaIS2_EEEENS_17__normal_iteratorIT_T0_E15difference_typeERKSA_SD_
FN:896,_ZN9__gnu_cxxmiIPN5Catch3PtrINS1_16TestCaseTracking8ITrackerEEESt6vectorIS5_SaIS5_EEEENS_17__normal_iteratorIT_T0_E15difference_typeERKSD_SG_
FN:896,_ZN9__gnu_cxxmiIPN5Catch8TestCaseESt6vectorIS2_SaIS2_EEEENS_17__normal_iteratorIT_T0_E15difference_typeERKSA_SD_
FN:896,_ZN9__gnu_cxxmiIPN5Catch3PtrINS1_22CumulativeReporterBase11SectionNodeEEESt6vectorIS5_SaIS5_EEEENS_17__normal_iteratorIT_T0_E15difference_typeERKSD_SG_
FN:896,_ZN9__gnu_cxxmiIPKcSsEENS_17__normal_iteratorIT_T0_E15difference_typeERKS6_S9_
FN:896,_ZN9__gnu_cxxmiIPKN5Catch11MessageInfoESt6vectorIS2_SaIS2_EEEENS_17__normal_iteratorIT_T0_E15difference_typeERKSB_SE_
FN:950,_ZNSt13move_iteratorIPPKN5Catch20IExceptionTranslatorEEC2ES4_
FN:950,_ZNSt13move_iteratorIPSsEC2ES0_
FN:950,_ZNSt13move_iteratorIPN5Catch11MessageInfoEEC2ES2_
FN:950,_ZNSt13move_iteratorIPjEC2ES0_
FN:950,_ZNSt13move_iteratorIPN5Catch15ConsoleReporter13SummaryColumnEEC2ES3_
FN:950,_ZNSt13move_iteratorIPN5Catch5Clara6Parser5TokenEEC2ES4_
FN:950,_ZNSt13move_iteratorIPN5Catch11SectionInfoEEC2ES2_
FN:950,_ZNSt13move_iteratorIPN5Catch14AssertionStatsEEC2ES2_
FN:950,_ZNSt13move_iteratorIPPN5Catch16TestCaseTracking8ITrackerEEC2ES4_
FN:950,_ZNSt13move_iteratorIPN5Catch8TestSpec6FilterEEC2ES3_
FN:950,_ZNSt13move_iteratorIPN5Catch14SectionEndInfoEEC2ES2_
FN:950,_ZNSt13move_iteratorIPPN5Catch14IGeneratorInfoEEC2ES3_
FN:958,_ZNKSt13move_iteratorIPN5Catch11MessageInfoEE4baseEv
FN:958,_ZNKSt13move_iteratorIPPN5Catch16TestCaseTracking8ITrackerEE4baseEv
FN:958,_ZNKSt13move_iteratorIPSsE4baseEv
FN:958,_ZNKSt13move_iteratorIPN5Catch11SectionInfoEE4baseEv
FN:958,_ZNKSt13move_iteratorIPPKN5Catch20IExceptionTranslatorEE4baseEv
FN:958,_ZNKSt13move_iteratorIPN5Catch14SectionEndInfoEE4baseEv
FN:958,_ZNKSt13move_iteratorIPN5Catch5Clara6Parser5TokenEE4baseEv
FN:958,_ZNKSt13move_iteratorIPjE4baseEv
FN:958,_ZNKSt13move_iteratorIPPN5Catch14IGeneratorInfoEE4baseEv
FN:958,_ZNKSt13move_iteratorIPN5Catch14AssertionStatsEE4baseEv
FN:958,_ZNKSt13move_iteratorIPN5Catch8TestSpec6FilterEE4baseEv
FN:958,_ZNKSt13move_iteratorIPN5Catch15ConsoleReporter13SummaryColumnEE4baseEv
FN:962,_ZNKSt13move_iteratorIPSsEdeEv
FN:962,_ZNKSt13move_iteratorIPN5Catch11SectionInfoEEdeEv
FN:962,_ZNKSt13move_iteratorIPN5Catch14AssertionStatsEEdeEv
FN:962,_ZNKSt13move_iteratorIPN5Catch14SectionEndInfoEEdeEv
FN:962,_ZNKSt13move_iteratorIPN5Catch15ConsoleReporter13SummaryColumnEEdeEv
FN:962,_ZNKSt13move_iteratorIPN5Catch5Clara6Parser5TokenEEdeEv
FN:962,_ZNKSt13move_iteratorIPN5Catch8TestSpec6FilterEEdeEv
FN:962,_ZNKSt13move_iteratorIPN5Catch11MessageInfoEEdeEv
FN:970,_ZNSt13move_iteratorIPN5Catch14SectionEndInfoEEppEv
FN:970,_ZNSt13move_iteratorIPN5Catch15ConsoleReporter13SummaryColumnEEppEv
FN:970,_ZNSt13move_iteratorIPN5Catch5Clara6Parser5TokenEEppEv
FN:970,_ZNSt13move_iteratorIPN5Catch14AssertionStatsEEppEv
FN:970,_ZNSt13move_iteratorIPN5Catch8TestSpec6FilterEEppEv
FN:970,_ZNSt13move_iteratorIPSsEppEv
FN:970,_ZNSt13move_iteratorIPN5Catch11SectionInfoEEppEv
FN:970,_ZNSt13move_iteratorIPN5Catch11MessageInfoEEppEv
FN:1037,_ZSteqIPN5Catch5Clara6Parser5TokenEEbRKSt13move_iteratorIT_ES9_
FN:1037,_ZSteqIPN5Catch14SectionEndInfoEEbRKSt13move_iteratorIT_ES7_
FN:1037,_ZSteqIPN5Catch8TestSpec6FilterEEbRKSt13move_iteratorIT_ES8_
FN:1037,_ZSteqIPN5Catch14AssertionStatsEEbRKSt13move_iteratorIT_ES7_
FN:1037,_ZSteqIPN5Catch11MessageInfoEEbRKSt13move_iteratorIT_ES7_
FN:1037,_ZSteqIPN5Catch11SectionInfoEEbRKSt13move_iteratorIT_ES7_
FN:1037,_ZSteqIPSsEbRKSt13move_iteratorIT_ES5_
FN:1037,_ZSteqIPN5Catch15ConsoleReporter13SummaryColumnEEbRKSt13move_iteratorIT_ES8_
FN:1049,_ZStneIPN5Catch11SectionInfoEEbRKSt13move_iteratorIT_ES7_
FN:1049,_ZStneIPN5Catch14SectionEndInfoEEbRKSt13move_iteratorIT_ES7_
FN:1049,_ZStneIPSsEbRKSt13move_iteratorIT_ES5_
FN:1049,_ZStneIPN5Catch14AssertionStatsEEbRKSt13move_iteratorIT_ES7_
FN:1049,_ZStneIPN5Catch11MessageInfoEEbRKSt13move_iteratorIT_ES7_
FN:1049,_ZStneIPN5Catch8TestSpec6FilterEEbRKSt13move_iteratorIT_ES8_
FN:1049,_ZStneIPN5Catch15ConsoleReporter13SummaryColumnEEbRKSt13move_iteratorIT_ES8_
FN:1049,_ZStneIPN5Catch5Clara6Parser5TokenEEbRKSt13move_iteratorIT_ES9_
FN:1132,_ZSt32__make_move_if_noexcept_iteratorIPN5Catch15ConsoleReporter13SummaryColumnESt13move_iteratorIS3_EET0_T_
FN:1132,_ZSt32__make_move_if_noexcept_iteratorIPN5Catch3PtrINS0_16TestCaseTracking8ITrackerEEES5_ET0_T_
FN:1132,_ZSt32__make_move_if_noexcept_iteratorIPN5Catch3PtrINS0_16IReporterFactoryEEES4_ET0_T_
FN:1132,_ZSt32__make_move_if_noexcept_iteratorIPN5Catch11SectionInfoESt13move_iteratorIS2_EET0_T_
FN:1132,_ZSt32__make_move_if_noexcept_iteratorIPN5Catch14SectionEndInfoESt13move_iteratorIS2_EET0_T_
FN:1132,_ZSt32__make_move_if_noexcept_iteratorIPN5Catch8TestSpec6FilterESt13move_iteratorIS3_EET0_T_
FN:1132,_ZSt32__make_move_if_noexcept_iteratorIPN5Catch8TestCaseES2_ET0_T_
FN:1132,_ZSt32__make_move_if_noexcept_iteratorIPN5Catch5Clara11CommandLineINS0_10ConfigDataEE3ArgES6_ET0_T_
FN:1132,_ZSt32__make_move_if_noexcept_iteratorIPSsSt13move_iteratorIS0_EET0_T_
FN:1132,_ZSt32__make_move_if_noexcept_iteratorIPPKN5Catch20IExceptionTranslatorESt13move_iteratorIS4_EET0_T_
FN:1132,_ZSt32__make_move_if_noexcept_iteratorIPN5Catch3PtrINS0_18IStreamingReporterEEES4_ET0_T_
FN:1132,_ZSt32__make_move_if_noexcept_iteratorIPN5Catch3PtrINS0_22CumulativeReporterBase4NodeINS0_12TestRunStatsENS3_INS0_14TestGroupStatsENS3_INS0_13TestCaseStatsENS2_11SectionNodeEEEEEEEEESC_ET0_T_
FN:1132,_ZSt32__make_move_if_noexcept_iteratorIPN5Catch3PtrINS0_8TestSpec7PatternEEES5_ET0_T_
FN:1132,_ZSt32__make_move_if_noexcept_iteratorIPN5Catch3PtrINS0_22CumulativeReporterBase4NodeINS0_13TestCaseStatsENS2_11SectionNodeEEEEES8_ET0_T_
FN:1132,_ZSt32__make_move_if_noexcept_iteratorIPN5Catch5Clara6Parser5TokenESt13move_iteratorIS4_EET0_T_
FN:1132,_ZSt32__make_move_if_noexcept_iteratorIPPN5Catch14IGeneratorInfoESt13move_iteratorIS3_EET0_T_
FN:1132,_ZSt32__make_move_if_noexcept_iteratorIPPN5Catch16TestCaseTracking8ITrackerESt13move_iteratorIS4_EET0_T_
FN:1132,_ZSt32__make_move_if_noexcept_iteratorIPN5Catch3PtrINS0_22CumulativeReporterBase4NodeINS0_14TestGroupStatsENS3_INS0_13TestCaseStatsENS2_11SectionNodeEEEEEEESA_ET0_T_
FN:1132,_ZSt32__make_move_if_noexcept_iteratorIPN5Catch11MessageInfoESt13move_iteratorIS2_EET0_T_
FN:1132,_ZSt32__make_move_if_noexcept_iteratorIPjSt13move_iteratorIS0_EET0_T_
FN:1132,_ZSt32__make_move_if_noexcept_iteratorIPN5Catch3PtrINS0_22CumulativeReporterBase11SectionNodeEEES5_ET0_T_
FN:1132,_ZSt32__make_move_if_noexcept_iteratorIPN5Catch14AssertionStatsESt13move_iteratorIS2_EET0_T_
FNDA:0,_ZNSt16reverse_iteratorIN9__gnu_cxx17__normal_iteratorIPKcSsEEEC2ES4_
FNDA:4,_ZNSt16reverse_iteratorIN9__gnu_cxx17__normal_iteratorIPN5Catch14SectionEndInfoESt6vectorIS3_SaIS3_EEEEEC2ES8_
FNDA:0,_ZNSt16reverse_iteratorIN9__gnu_cxx17__normal_iteratorIPKcSsEEEC2ERKS5_
FNDA:4,_ZNSt16reverse_iteratorIN9__gnu_cxx17__normal_iteratorIPKN5Catch14SectionEndInfoESt6vectorIS3_SaIS3_EEEEEC2INS1_IPS3_S8_EEEERKS_IT_E
FNDA:0,_ZNKSt16reverse_iteratorIN9__gnu_cxx17__normal_iteratorIPKcSsEEE4baseEv
FNDA:4,_ZNKSt16reverse_iteratorIN9__gnu_cxx17__normal_iteratorIPKN5Catch14SectionEndInfoESt6vectorIS3_SaIS3_EEEEE4baseEv
FNDA:4,_ZNKSt16reverse_iteratorIN9__gnu_cxx17__normal_iteratorIPN5Catch14SectionEndInfoESt6vectorIS3_SaIS3_EEEEE4baseEv
FNDA:0,_ZNKSt16reverse_iteratorIN9__gnu_cxx17__normal_iteratorIPKcSsEEEdeEv
FNDA:0,_ZNKSt16reverse_iteratorIN9__gnu_cxx17__normal_iteratorIPKN5Catch14SectionEndInfoESt6vectorIS3_SaIS3_EEEEEdeEv
FNDA:0,_ZNSt16reverse_iteratorIN9__gnu_cxx17__normal_iteratorIPKcSsEEEppEv
FNDA:0,_ZNSt16reverse_iteratorIN9__gnu_cxx17__normal_iteratorIPKN5Catch14SectionEndInfoESt6vectorIS3_SaIS3_EEEEEppEv
FNDA:0,_ZSteqIN9__gnu_cxx17__normal_iteratorIPKcSsEEEbRKSt16reverse_iteratorIT_ES9_
FNDA:2,_ZSteqIN9__gnu_cxx17__normal_iteratorIPKN5Catch14SectionEndInfoESt6vectorIS3_SaIS3_EEEEEbRKSt16reverse_iteratorIT_ESE_
FNDA:0,_ZStneIN9__gnu_cxx17__normal_iteratorIPKcSsEEEbRKSt16reverse_iteratorIT_ES9_
FNDA:2,_ZStneIN9__gnu_cxx17__normal_iteratorIPKN5Catch14SectionEndInfoESt6vectorIS3_SaIS3_EEEEEbRKSt16reverse_iteratorIT_ESE_
FNDA:0,_ZNSt20back_insert_iteratorISt6vectorISsSaISsEEEC2ERS2_
FNDA:0,_ZNSt20back_insert_iteratorISt6vectorISsSaISsEEEaSERKSs
FNDA:0,_ZNSt20back_insert_iteratorISt6vectorISsSaISsEEEdeEv
FNDA:0,_ZNSt20back_insert_iteratorISt6vectorISsSaISsEEEppEv
FNDA:0,_ZSt13back_inserterISt6vectorISsSaISsEEESt20back_insert_iteratorIT_ERS4_
FNDA:0,_ZN9__gnu_cxx17__normal_iteratorIPKN5Catch5Clara6Parser5TokenESt6vectorIS4_SaIS4_EEEC2ERKS6_
FNDA:6,_ZN9__gnu_cxx17__normal_iteratorIPKN5Catch5Clara11CommandLineINS1_10ConfigDataEE3ArgESt6vectorIS6_SaIS6_EEEC2ERKS8_
FNDA:92,_ZN9__gnu_cxx17__normal_iteratorIPN5Catch5Clara11CommandLineINS1_10ConfigDataEE3ArgESt6vectorIS6_SaIS6_EEEC2ERKS7_
FNDA:0,_ZN9__gnu_cxx17__normal_iteratorIPKN5Catch11SectionInfoESt6vectorIS2_SaIS2_EEEC2ERKS4_
FNDA:2,_ZN9__gnu_cxx17__normal_iteratorIPN5Catch3PtrINS1_22CumulativeReporterBase4NodeINS1_14TestGroupStatsENS4_INS1_13TestCaseStatsENS3_11SectionNodeEEEEEEESt6vectorISA_SaISA_EEEC2ERKSB_
FNDA:8,_ZN9__gnu_cxx17__normal_iteratorIPN5Catch14AssertionStatsESt6vectorIS2_SaIS2_EEEC2ERKS3_
FNDA:2,_ZN9__gnu_cxx17__normal_iteratorIPPKN5Catch20IExceptionTranslatorESt6vectorIS4_SaIS4_EEEC2ERKS5_
FNDA:2,_ZN9__gnu_cxx17__normal_iteratorIPKN5Catch3PtrINS1_16IReporterFactoryEEESt6vectorIS4_SaIS4_EEEC2ERKS6_
FNDA:4,_ZN9__gnu_cxx17__normal_iteratorIPN5Catch14SectionEndInfoESt6vectorIS2_SaIS2_EEEC2ERKS3_
FNDA:0,_ZN9__gnu_cxx17__normal_iteratorIPKN5Catch14SectionEndInfoESt6vectorIS2_SaIS2_EEEC2ERKS4_
FNDA:0,_ZN9__gnu_cxx17__normal_iteratorIPPN5Catch16TestCaseTracking8ITrackerESt6vectorIS4_SaIS4_EEEC2ERKS5_
FNDA:0,_ZN9__gnu_cxx17__normal_iteratorIPKPN5Catch16TestCaseTracking8ITrackerESt6vectorIS4_SaIS4_EEEC2ERKS6_
FNDA:0,_ZN9__gnu_cxx17__normal_iteratorIPKN5Catch3PtrINS1_16TestCaseTracking8ITrackerEEESt6vectorIS5_SaIS5_EEEC2ERKS7_
FNDA:0,_ZN9__gnu_cxx17__normal_iteratorIPKN5Catch15ConsoleReporter13SummaryColumnESt6vectorIS3_SaIS3_EEEC2ERKS5_
FNDA:0,_ZN9__gnu_cxx17__normal_iteratorIPN5Catch11SectionInfoESt6vectorIS2_SaIS2_EEEC2ERKS3_
FNDA:8,_ZN9__gnu_cxx17__normal_iteratorIPKN5Catch14AssertionStatsESt6vectorIS2_SaIS2_EEEC2ERKS4_
FNDA:26,_ZN9__gnu_cxx17__normal_iteratorIPKN5Catch3PtrINS1_22CumulativeReporterBase11SectionNodeEEESt6vectorIS5_SaIS5_EEEC2ERKS7_
FNDA:2,_ZN9__gnu_cxx17__normal_iteratorIPKN5Catch3PtrINS1_22CumulativeReporterBase4NodeINS1_13TestCaseStatsENS3_11SectionNodeEEEEESt6vectorIS8_SaIS8_EEEC2ERKSA_
FNDA:12,_ZN9__gnu_cxx17__normal_iteratorIPN5Catch3PtrINS1_22CumulativeReporterBase11SectionNodeEEESt6vectorIS5_SaIS5_EEEC2ERKS6_
FNDA:0,_ZN9__gnu_cxx17__normal_iteratorIPN5Catch3PtrINS1_18IStreamingReporterEEESt6vectorIS4_SaIS4_EEEC2ERKS5_
FNDA:16,_ZN9__gnu_cxx17__normal_iteratorIPKN5Catch11MessageInfoESt6vectorIS2_SaIS2_EEEC2ERKS4_
FNDA:0,_ZN9__gnu_cxx17__normal_iteratorIPPN5Catch14IGeneratorInfoESt6vectorIS3_SaIS3_EEEC2ERKS4_
FNDA:0,_ZN9__gnu_cxx17__normal_iteratorIPKPKN5Catch20IExceptionTranslatorESt6vectorIS4_SaIS4_EEEC2ERKS6_
FNDA:10,_ZN9__gnu_cxx17__normal_iteratorIPKN5Catch8TestCaseESt6vectorIS2_SaIS2_EEEC2ERKS4_
FNDA:2,_ZN9__gnu_cxx17__normal_iteratorIPN5Catch3PtrINS1_16IReporterFactoryEEESt6vectorIS4_SaIS4_EEEC2ERKS5_
FNDA:16,_ZN9__gnu_cxx17__normal_iteratorIPSsSt6vectorISsSaISsEEEC2ERKS1_
FNDA:0,_ZN9__gnu_cxx17__normal_iteratorIPN5Catch11MessageInfoESt6vectorIS2_SaIS2_EEEC2ERKS3_
FNDA:6,_ZN9__gnu_cxx17__normal_iteratorIPN5Catch3PtrINS1_16TestCaseTracking8ITrackerEEESt6vectorIS5_SaIS5_EEEC2ERKS6_
FNDA:0,_ZN9__gnu_cxx17__normal_iteratorIPN5Catch8TestCaseESt6vectorIS2_SaIS2_EEEC2ERKS3_
FNDA:0,_ZN9__gnu_cxx17__normal_iteratorIPKcSsEC2ERKS2_
FNDA:0,_ZN9__gnu_cxx17__normal_iteratorIPcSsEC2ERKS1_
FNDA:113,_ZN9__gnu_cxx17__normal_iteratorIPKSsSt6vectorISsSaISsEEEC2ERKS2_
FNDA:10,_ZN9__gnu_cxx17__normal_iteratorIPKN5Catch8TestSpec6FilterESt6vectorIS3_SaIS3_EEEC2ERKS5_
FNDA:10,_ZN9__gnu_cxx17__normal_iteratorIPKN5Catch3PtrINS1_8TestSpec7PatternEEESt6vectorIS5_SaIS5_EEEC2ERKS7_
FNDA:2,_ZN9__gnu_cxx17__normal_iteratorIPKPKN5Catch20IExceptionTranslatorESt6vectorIS4_SaIS4_EEEC2IPS4_EERKNS0_IT_NS_11__enable_ifIXsrSt10__are_sameISD_SC_E7__valueES9_E6__typeEEE
FNDA:4,_ZN9__gnu_cxx17__normal_iteratorIPKN5Catch14SectionEndInfoESt6vectorIS2_SaIS2_EEEC2IPS2_EERKNS0_IT_NS_11__enable_ifIXsrSt10__are_sameISB_SA_E7__valueES7_E6__typeEEE
FNDA:0,_ZN9__gnu_cxx17__normal_iteratorIPKN5Catch11MessageInfoESt6vectorIS2_SaIS2_EEEC2IPS2_EERKNS0_IT_NS_11__enable_ifIXsrSt10__are_sameISB_SA_E7__valueES7_E6__typeEEE
FNDA:0,_ZN9__gnu_cxx17__normal_iteratorIPKN5Catch11SectionInfoESt6vectorIS2_SaIS2_EEEC2IPS2_EERKNS0_IT_NS_11__enable_ifIXsrSt10__are_sameISB_SA_E7__valueES7_E6__typeEEE
FNDA:0,_ZN9__gnu_cxx17__normal_iteratorIPKN5Catch3PtrINS1_22CumulativeReporterBase11SectionNodeEEESt6vectorIS5_SaIS5_EEEC2IPS5_EERKNS0_IT_NS_11__enable_ifIXsrSt10__are_sameISE_SD_E7__valueESA_E6__typeEEE
FNDA:0,_ZN9__gnu_cxx17__normal_iteratorIPKN5Catch3PtrINS1_18IStreamingReporterEEESt6vectorIS4_SaIS4_EEEC2IPS4_EERKNS0_IT_NS_11__enable_ifIXsrSt10__are_sameISD_SC_E7__valueES9_E6__typeEEE
FNDA:0,_ZN9__gnu_cxx17__normal_iteratorIPKPN5Catch14IGeneratorInfoESt6vectorIS3_SaIS3_EEEC2IPS3_EERKNS0_IT_NS_11__enable_ifIXsrSt10__are_sameISC_SB_E7__valueES8_E6__typeEEE
FNDA:2,_ZN9__gnu_cxx17__normal_iteratorIPKN5Catch3PtrINS1_16IReporterFactoryEEESt6vectorIS4_SaIS4_EEEC2IPS4_EERKNS0_IT_NS_11__enable_ifIXsrSt10__are_sameISD_SC_E7__valueES9_E6__typeEEE
FNDA:2,_ZN9__gnu_cxx17__normal_iteratorIPKSsSt6vectorISsSaISsEEEC2IPSsEERKNS0_IT_NS_11__enable_ifIXsrSt10__are_sameIS9_S8_E7__valueES5_E6__typeEEE
FNDA:2,_ZN9__gnu_cxx17__normal_iteratorIPKN5Catch3PtrINS1_16TestCaseTracking8ITrackerEEESt6vectorIS5_SaIS5_EEEC2IPS5_EERKNS0_IT_NS_11__enable_ifIXsrSt10__are_sameISE_SD_E7__valueESA_E6__typeEEE
FNDA:0,_ZN9__gnu_cxx17__normal_iteratorIPKN5Catch8TestCaseESt6vectorIS2_SaIS2_EEEC2IPS2_EERKNS0_IT_NS_11__enable_ifIXsrSt10__are_sameISB_SA_E7__valueES7_E6__typeEEE
FNDA:0,_ZNK9__gnu_cxx17__normal_iteratorIPKN5Catch5Clara6Parser5TokenESt6vectorIS4_SaIS4_EEEdeEv
FNDA:0,_ZNK9__gnu_cxx17__normal_iteratorIPKN5Catch11MessageInfoESt6vectorIS2_SaIS2_EEEdeEv
FNDA:1,_ZNK9__gnu_cxx17__normal_iteratorIPKN5Catch8TestSpec6FilterESt6vectorIS3_SaIS3_EEEdeEv
FNDA:0,_ZNK9__gnu_cxx17__normal_iteratorIPN5Catch8TestCaseESt6vectorIS2_SaIS2_EEEdeEv
FNDA:9,_ZNK9__gnu_cxx17__normal_iteratorIPKN5Catch5Clara11CommandLineINS1_10ConfigDataEE3ArgESt6vectorIS6_SaIS6_EEEdeEv
FNDA:46,_ZNK9__gnu_cxx17__normal_iteratorIPN5Catch5Clara11CommandLineINS1_10ConfigDataEE3ArgESt6vectorIS6_SaIS6_EEEdeEv
FNDA:0,_ZNK9__gnu_cxx17__normal_iteratorIPN5Catch11SectionInfoESt6vectorIS2_SaIS2_EEEdeEv
FNDA:1,_ZNK9__gnu_cxx17__normal_iteratorIPN5Catch3PtrINS1_22CumulativeReporterBase4NodeINS1_14TestGroupStatsENS4_INS1_13TestCaseStatsENS3_11SectionNodeEEEEEEESt6vectorISA_SaISA_EEEdeEv
FNDA:4,_ZNK9__gnu_cxx17__normal_iteratorIPN5Catch14AssertionStatsESt6vectorIS2_SaIS2_EEEdeEv
FNDA:6,_ZNK9__gnu_cxx17__normal_iteratorIPN5Catch3PtrINS1_22CumulativeReporterBase11SectionNodeEEESt6vectorIS5_SaIS5_EEEdeEv
FNDA:0,_ZNK9__gnu_cxx17__normal_iteratorIPKPKN5Catch20IExceptionTranslatorESt6vectorIS4_SaIS4_EEEdeEv
FNDA:0,_ZNK9__gnu_cxx17__normal_iteratorIPKN5Catch14SectionEndInfoESt6vectorIS2_SaIS2_EEEdeEv
FNDA:0,_ZNK9__gnu_cxx17__normal_iteratorIPN5Catch11MessageInfoESt6vectorIS2_SaIS2_EEEdeEv
FNDA:0,_ZNK9__gnu_cxx17__normal_iteratorIPPN5Catch16TestCaseTracking8ITrackerESt6vectorIS4_SaIS4_EEEdeEv
FNDA:0,_ZNK9__gnu_cxx17__normal_iteratorIPN5Catch3PtrINS1_16TestCaseTracking8ITrackerEEESt6vectorIS5_SaIS5_EEEdeEv
FNDA:64,_ZNK9__gnu_cxx17__normal_iteratorIPcSsEdeEv
FNDA:7,_ZNK9__gnu_cxx17__normal_iteratorIPSsSt6vectorISsSaISsEEEdeEv
FNDA:4,_ZNK9__gnu_cxx17__normal_iteratorIPKN5Catch14AssertionStatsESt6vectorIS2_SaIS2_EEEdeEv
FNDA:2,_ZNK9__gnu_cxx17__normal_iteratorIPKN5Catch3PtrINS1_22CumulativeReporterBase4NodeINS1_13TestCaseStatsENS3_11SectionNodeEEEEESt6vectorIS8_SaIS8_EEEdeEv
FNDA:2,_ZNK9__gnu_cxx17__normal_iteratorIPKN5Catch3PtrINS1_22CumulativeReporterBase11SectionNodeEEESt6vectorIS5_SaIS5_EEEdeEv
FNDA:0,_ZNK9__gnu_cxx17__normal_iteratorIPKN5Catch3PtrINS1_18IStreamingReporterEEESt6vectorIS4_SaIS4_EEEdeEv
FNDA:0,_ZNK9__gnu_cxx17__normal_iteratorIPKPN5Catch14IGeneratorInfoESt6vectorIS3_SaIS3_EEEdeEv
FNDA:8,_ZNK9__gnu_cxx17__normal_iteratorIPKN5Catch8TestCaseESt6vectorIS2_SaIS2_EEEdeEv
FNDA:0,_ZNK9__gnu_cxx17__normal_iteratorIPKN5Catch3PtrINS1_16IReporterFactoryEEESt6vectorIS4_SaIS4_EEEdeEv
FNDA:0,_ZNK9__gnu_cxx17__normal_iteratorIPKcSsEdeEv
FNDA:49,_ZNK9__gnu_cxx17__normal_iteratorIPKSsSt6vectorISsSaISsEEEdeEv
FNDA:4,_ZNK9__gnu_cxx17__normal_iteratorIPKN5Catch3PtrINS1_8TestSpec7PatternEEESt6vectorIS5_SaIS5_EEEdeEv
FNDA:23,_ZNK9__gnu_cxx17__normal_iteratorIPKN5Catch5Clara11CommandLineINS1_10ConfigDataEE3ArgESt6vectorIS6_SaIS6_EEEptEv
FNDA:0,_ZNK9__gnu_cxx17__normal_iteratorIPKN5Catch15ConsoleReporter13SummaryColumnESt6vectorIS3_SaIS3_EEEptEv
FNDA:0,_ZNK9__gnu_cxx17__normal_iteratorIPSsSt6vectorISsSaISsEEEptEv
FNDA:0,_ZNK9__gnu_cxx17__normal_iteratorIPKN5Catch11SectionInfoESt6vectorIS2_SaIS2_EEEptEv
FNDA:0,_ZNK9__gnu_cxx17__normal_iteratorIPKN5Catch11MessageInfoESt6vectorIS2_SaIS2_EEEptEv
FNDA:0,_ZNK9__gnu_cxx17__normal_iteratorIPKN5Catch3PtrINS1_16TestCaseTracking8ITrackerEEESt6vectorIS5_SaIS5_EEEptEv
FNDA:0,_ZNK9__gnu_cxx17__normal_iteratorIPKN5Catch8TestCaseESt6vectorIS2_SaIS2_EEEptEv
FNDA:2,_ZNK9__gnu_cxx17__normal_iteratorIPKN5Catch8TestSpec6FilterESt6vectorIS3_SaIS3_EEEptEv
FNDA:0,_ZN9__gnu_cxx17__normal_iteratorIPKN5Catch5Clara6Parser5TokenESt6vectorIS4_SaIS4_EEEppEv
FNDA:0,_ZN9__gnu_cxx17__normal_iteratorIPN5Catch3PtrINS1_22CumulativeReporterBase11SectionNodeEEESt6vectorIS5_SaIS5_EEEppEv
FNDA:0,_ZN9__gnu_cxx17__normal_iteratorIPN5Catch8TestCaseESt6vectorIS2_SaIS2_EEEppEv
FNDA:31,_ZN9__gnu_cxx17__normal_iteratorIPKN5Catch5Clara11CommandLineINS1_10ConfigDataEE3ArgESt6vectorIS6_SaIS6_EEEppEv
FNDA:0,_ZN9__gnu_cxx17__normal_iteratorIPN5Catch3PtrINS1_16TestCaseTracking8ITrackerEEESt6vectorIS5_SaIS5_EEEppEv
FNDA:0,_ZN9__gnu_cxx17__normal_iteratorIPKcSsEppEv
FNDA:0,_ZN9__gnu_cxx17__normal_iteratorIPKPKN5Catch20IExceptionTranslatorESt6vectorIS4_SaIS4_EEEppEv
FNDA:0,_ZN9__gnu_cxx17__normal_iteratorIPN5Catch11MessageInfoESt6vectorIS2_SaIS2_EEEppEv
FNDA:64,_ZN9__gnu_cxx17__normal_iteratorIPcSsEppEv
FNDA:0,_ZN9__gnu_cxx17__normal_iteratorIPKN5Catch15ConsoleReporter13SummaryColumnESt6vectorIS3_SaIS3_EEEppEv
FNDA:0,_ZN9__gnu_cxx17__normal_iteratorIPSsSt6vectorISsSaISsEEEppEv
FNDA:0,_ZN9__gnu_cxx17__normal_iteratorIPKN5Catch11SectionInfoESt6vectorIS2_SaIS2_EEEppEv
FNDA:4,_ZN9__gnu_cxx17__normal_iteratorIPKN5Catch14AssertionStatsESt6vectorIS2_SaIS2_EEEppEv
FNDA:0,_ZN9__gnu_cxx17__normal_iteratorIPKN5Catch3PtrINS1_22CumulativeReporterBase11SectionNodeEEESt6vectorIS5_SaIS5_EEEppEv
FNDA:2,_ZN9__gnu_cxx17__normal_iteratorIPKN5Catch3PtrINS1_22CumulativeReporterBase4NodeINS1_13TestCaseStatsENS3_11SectionNodeEEEEESt6vectorIS8_SaIS8_EEEppEv
FNDA:0,_ZN9__gnu_cxx17__normal_iteratorIPKN5Catch3PtrINS1_18IStreamingReporterEEESt6vectorIS4_SaIS4_EEEppEv
FNDA:0,_ZN9__gnu_cxx17__normal_iteratorIPKN5Catch11MessageInfoESt6vectorIS2_SaIS2_EEEppEv
FNDA:0,_ZN9__gnu_cxx17__normal_iteratorIPKPN5Catch14IGeneratorInfoESt6vectorIS3_SaIS3_EEEppEv
FNDA:0,_ZN9__gnu_cxx17__normal_iteratorIPKN5Catch3PtrINS1_16IReporterFactoryEEESt6vectorIS4_SaIS4_EEEppEv
FNDA:6,_ZN9__gnu_cxx17__normal_iteratorIPKN5Catch8TestCaseESt6vectorIS2_SaIS2_EEEppEv
FNDA:48,_ZN9__gnu_cxx17__normal_iteratorIPKSsSt6vectorISsSaISsEEEppEv
FNDA:1,_ZN9__gnu_cxx17__normal_iteratorIPKN5Catch8TestSpec6FilterESt6vectorIS3_SaIS3_EEEppEv
FNDA:4,_ZN9__gnu_cxx17__normal_iteratorIPKN5Catch3PtrINS1_8TestSpec7PatternEEESt6vectorIS5_SaIS5_EEEppEv
FNDA:0,_ZN9__gnu_cxx17__normal_iteratorIPN5Catch8TestCaseESt6vectorIS2_SaIS2_EEEmmEv
FNDA:0,_ZN9__gnu_cxx17__normal_iteratorIPKN5Catch14SectionEndInfoESt6vectorIS2_SaIS2_EEEmmEv
FNDA:0,_ZN9__gnu_cxx17__normal_iteratorIPKcSsEmmEv
FNDA:0,_ZNK9__gnu_cxx17__normal_iteratorIPN5Catch8TestCaseESt6vectorIS2_SaIS2_EEEplERKi
FNDA:0,_ZNK9__gnu_cxx17__normal_iteratorIPN5Catch11SectionInfoESt6vectorIS2_SaIS2_EEEplERKi
FNDA:0,_ZNK9__gnu_cxx17__normal_iteratorIPKPKN5Catch20IExceptionTranslatorESt6vectorIS4_SaIS4_EEEplERKi
FNDA:0,_ZNK9__gnu_cxx17__normal_iteratorIPKSsSt6vectorISsSaISsEEEplERKi
FNDA:0,_ZNK9__gnu_cxx17__normal_iteratorIPKcSsEplERKi
FNDA:0,_ZNK9__gnu_cxx17__normal_iteratorIPN5Catch8TestCaseESt6vectorIS2_SaIS2_EEEmiERKi
FNDA:46,_ZNK9__gnu_cxx17__normal_iteratorIPN5Catch5Clara11CommandLineINS1_10ConfigDataEE3ArgESt6vectorIS6_SaIS6_EEEmiERKi
FNDA:0,_ZNK9__gnu_cxx17__normal_iteratorIPN5Catch11SectionInfoESt6vectorIS2_SaIS2_EEEmiERKi
FNDA:1,_ZNK9__gnu_cxx17__normal_iteratorIPN5Catch3PtrINS1_22CumulativeReporterBase4NodeINS1_14TestGroupStatsENS4_INS1_13TestCaseStatsENS3_11SectionNodeEEEEEEESt6vectorISA_SaISA_EEEmiERKi
FNDA:4,_ZNK9__gnu_cxx17__normal_iteratorIPN5Catch14AssertionStatsESt6vectorIS2_SaIS2_EEEmiERKi
FNDA:6,_ZNK9__gnu_cxx17__normal_iteratorIPN5Catch3PtrINS1_22CumulativeReporterBase11SectionNodeEEESt6vectorIS5_SaIS5_EEEmiERKi
FNDA:0,_ZNK9__gnu_cxx17__normal_iteratorIPPN5Catch16TestCaseTracking8ITrackerESt6vectorIS4_SaIS4_EEEmiERKi
FNDA:0,_ZNK9__gnu_cxx17__normal_iteratorIPN5Catch3PtrINS1_16TestCaseTracking8ITrackerEEESt6vectorIS5_SaIS5_EEEmiERKi
FNDA:7,_ZNK9__gnu_cxx17__normal_iteratorIPSsSt6vectorISsSaISsEEEmiERKi
FNDA:0,_ZNK9__gnu_cxx17__normal_iteratorIPKcSsEmiERKi
FNDA:0,_ZNK9__gnu_cxx17__normal_iteratorIPKN5Catch5Clara6Parser5TokenESt6vectorIS4_SaIS4_EEE4baseEv
FNDA:70,_ZNK9__gnu_cxx17__normal_iteratorIPKN5Catch5Clara11CommandLineINS1_10ConfigDataEE3ArgESt6vectorIS6_SaIS6_EEE4baseEv
FNDA:2,_ZNK9__gnu_cxx17__normal_iteratorIPKPKN5Catch20IExceptionTranslatorESt6vectorIS4_SaIS4_EEE4baseEv
FNDA:2,_ZNK9__gnu_cxx17__normal_iteratorIPPKN5Catch20IExceptionTranslatorESt6vectorIS4_SaIS4_EEE4baseEv
FNDA:4,_ZNK9__gnu_cxx17__normal_iteratorIPN5Catch14SectionEndInfoESt6vectorIS2_SaIS2_EEE4baseEv
FNDA:4,_ZNK9__gnu_cxx17__normal_iteratorIPKN5Catch14SectionEndInfoESt6vectorIS2_SaIS2_EEE4baseEv
FNDA:0,_ZNK9__gnu_cxx17__normal_iteratorIPKPN5Catch16TestCaseTracking8ITrackerESt6vectorIS4_SaIS4_EEE4baseEv
FNDA:70,_ZNK9__gnu_cxx17__normal_iteratorIPcSsE4baseEv
FNDA:0,_ZNK9__gnu_cxx17__normal_iteratorIPKN5Catch15ConsoleReporter13SummaryColumnESt6vectorIS3_SaIS3_EEE4baseEv
FNDA:0,_ZNK9__gnu_cxx17__normal_iteratorIPKN5Catch11SectionInfoESt6vectorIS2_SaIS2_EEE4baseEv
FNDA:0,_ZNK9__gnu_cxx17__normal_iteratorIPN5Catch11SectionInfoESt6vectorIS2_SaIS2_EEE4baseEv
FNDA:16,_ZNK9__gnu_cxx17__normal_iteratorIPKN5Catch14AssertionStatsESt6vectorIS2_SaIS2_EEE4baseEv
FNDA:6,_ZNK9__gnu_cxx17__normal_iteratorIPKN5Catch3PtrINS1_22CumulativeReporterBase4NodeINS1_13TestCaseStatsENS3_11SectionNodeEEEEESt6vectorIS8_SaIS8_EEE4baseEv
FNDA:24,_ZNK9__gnu_cxx17__normal_iteratorIPKN5Catch3PtrINS1_22CumulativeReporterBase11SectionNodeEEESt6vectorIS5_SaIS5_EEE4baseEv
FNDA:0,_ZNK9__gnu_cxx17__normal_iteratorIPN5Catch3PtrINS1_22CumulativeReporterBase11SectionNodeEEESt6vectorIS5_SaIS5_EEE4baseEv
FNDA:0,_ZNK9__gnu_cxx17__normal_iteratorIPKN5Catch3PtrINS1_18IStreamingReporterEEESt6vectorIS4_SaIS4_EEE4baseEv
FNDA:0,_ZNK9__gnu_cxx17__normal_iteratorIPN5Catch3PtrINS1_18IStreamingReporterEEESt6vectorIS4_SaIS4_EEE4baseEv
FNDA:16,_ZNK9__gnu_cxx17__normal_iteratorIPKN5Catch11MessageInfoESt6vectorIS2_SaIS2_EEE4baseEv
FNDA:0,_ZNK9__gnu_cxx17__normal_iteratorIPKPN5Catch14IGeneratorInfoESt6vectorIS3_SaIS3_EEE4baseEv
FNDA:0,_ZNK9__gnu_cxx17__normal_iteratorIPPN5Catch14IGeneratorInfoESt6vectorIS3_SaIS3_EEE4baseEv
FNDA:4,_ZNK9__gnu_cxx17__normal_iteratorIPKN5Catch3PtrINS1_16IReporterFactoryEEESt6vectorIS4_SaIS4_EEE4baseEv
FNDA:2,_ZNK9__gnu_cxx17__normal_iteratorIPN5Catch3PtrINS1_16IReporterFactoryEEESt6vectorIS4_SaIS4_EEE4baseEv
FNDA:2,_ZNK9__gnu_cxx17__normal_iteratorIPSsSt6vectorISsSaISsEEE4baseEv
FNDA:0,_ZNK9__gnu_cxx17__normal_iteratorIPN5Catch11MessageInfoESt6vectorIS2_SaIS2_EEE4baseEv
FNDA:2,_ZNK9__gnu_cxx17__normal_iteratorIPKN5Catch3PtrINS1_16TestCaseTracking8ITrackerEEESt6vectorIS5_SaIS5_EEE4baseEv
FNDA:12,_ZNK9__gnu_cxx17__normal_iteratorIPN5Catch3PtrINS1_16TestCaseTracking8ITrackerEEESt6vectorIS5_SaIS5_EEE4baseEv
FNDA:22,_ZNK9__gnu_cxx17__normal_iteratorIPKN5Catch8TestCaseESt6vectorIS2_SaIS2_EEE4baseEv
FNDA:0,_ZNK9__gnu_cxx17__normal_iteratorIPN5Catch8TestCaseESt6vectorIS2_SaIS2_EEE4baseEv
FNDA:6,_ZNK9__gnu_cxx17__normal_iteratorIPKcSsE4baseEv
FNDA:220,_ZNK9__gnu_cxx17__normal_iteratorIPKSsSt6vectorISsSaISsEEE4baseEv
FNDA:12,_ZNK9__gnu_cxx17__normal_iteratorIPKN5Catch8TestSpec6FilterESt6vectorIS3_SaIS3_EEE4baseEv
FNDA:18,_ZNK9__gnu_cxx17__normal_iteratorIPKN5Catch3PtrINS1_8TestSpec7PatternEEESt6vectorIS5_SaIS5_EEE4baseEv
FNDA:0,_ZN9__gnu_cxxeqIPKN5Catch11MessageInfoEPS2_St6vectorIS2_SaIS2_EEEEbRKNS_17__normal_iteratorIT_T1_EERKNS9_IT0_SB_EE
FNDA:0,_ZN9__gnu_cxxeqIPKN5Catch3PtrINS1_22CumulativeReporterBase11SectionNodeEEEPS5_St6vectorIS5_SaIS5_EEEEbRKNS_17__normal_iteratorIT_T1_EERKNSC_IT0_SE_EE
FNDA:0,_ZN9__gnu_cxxeqIPN5Catch8TestCaseESt6vectorIS2_SaIS2_EEEEbRKNS_17__normal_iteratorIT_T0_EESC_
FNDA:2,_ZN9__gnu_cxxeqIPKN5Catch5Clara11CommandLineINS1_10ConfigDataEE3ArgESt6vectorIS6_SaIS6_EEEEbRKNS_17__normal_iteratorIT_T0_EESH_
FNDA:0,_ZN9__gnu_cxxeqIPKN5Catch11SectionInfoESt6vectorIS2_SaIS2_EEEEbRKNS_17__normal_iteratorIT_T0_EESD_
FNDA:2,_ZN9__gnu_cxxeqIPKN5Catch14AssertionStatsESt6vectorIS2_SaIS2_EEEEbRKNS_17__normal_iteratorIT_T0_EESD_
FNDA:10,_ZN9__gnu_cxxeqIPKN5Catch3PtrINS1_22CumulativeReporterBase11SectionNodeEEESt6vectorIS5_SaIS5_EEEEbRKNS_17__normal_iteratorIT_T0_EESG_
FNDA:0,_ZN9__gnu_cxxeqIPKPKN5Catch20IExceptionTranslatorESt6vectorIS4_SaIS4_EEEEbRKNS_17__normal_iteratorIT_T0_EESF_
FNDA:2,_ZN9__gnu_cxxeqIPKN5Catch8TestCaseESt6vectorIS2_SaIS2_EEEEbRKNS_17__normal_iteratorIT_T0_EESD_
FNDA:0,_ZN9__gnu_cxxeqIPN5Catch11MessageInfoESt6vectorIS2_SaIS2_EEEEbRKNS_17__normal_iteratorIT_T0_EESC_
FNDA:2,_ZN9__gnu_cxxeqIPKN5Catch14SectionEndInfoESt6vectorIS2_SaIS2_EEEEbRKNS_17__normal_iteratorIT_T0_EESD_
FNDA:0,_ZN9__gnu_cxxeqIPKPN5Catch16TestCaseTracking8ITrackerESt6vectorIS4_SaIS4_EEEEbRKNS_17__normal_iteratorIT_T0_EESF_
FNDA:0,_ZN9__gnu_cxxeqIPKN5Catch3PtrINS1_16TestCaseTracking8ITrackerEEESt6vectorIS5_SaIS5_EEEEbRKNS_17__normal_iteratorIT_T0_EESG_
FNDA:8,_ZN9__gnu_cxxeqIPKSsSt6vectorISsSaISsEEEEbRKNS_17__normal_iteratorIT_T0_EESB_
FNDA:1,_ZN9__gnu_cxxeqIPKN5Catch3PtrINS1_8TestSpec7PatternEEESt6vectorIS5_SaIS5_EEEEbRKNS_17__normal_iteratorIT_T0_EESG_
FNDA:1,_ZN9__gnu_cxxeqIPKN5Catch8TestSpec6FilterESt6vectorIS3_SaIS3_EEEEbRKNS_17__normal_iteratorIT_T0_EESE_
FNDA:0,_ZN9__gnu_cxxeqIPKcSsEEbRKNS_17__normal_iteratorIT_T0_EES8_
FNDA:0,_ZN9__gnu_cxxneIPKSsPSsSt6vectorISsSaISsEEEEbRKNS_17__normal_iteratorIT_T1_EERKNS7_IT0_S9_EE
FNDA:0,_ZN9__gnu_cxxneIPKN5Catch11MessageInfoEPS2_St6vectorIS2_SaIS2_EEEEbRKNS_17__normal_iteratorIT_T1_EERKNS9_IT0_SB_EE
FNDA:2,_ZN9__gnu_cxxneIPKN5Catch3PtrINS1_16TestCaseTracking8ITrackerEEEPS5_St6vectorIS5_SaIS5_EEEEbRKNS_17__normal_iteratorIT_T1_EERKNSC_IT0_SE_EE
FNDA:0,_ZN9__gnu_cxxneIPKN5Catch5Clara6Parser5TokenESt6vectorIS4_SaIS4_EEEEbRKNS_17__normal_iteratorIT_T0_EESF_
FNDA:33,_ZN9__gnu_cxxneIPKN5Catch5Clara11CommandLineINS1_10ConfigDataEE3ArgESt6vectorIS6_SaIS6_EEEEbRKNS_17__normal_iteratorIT_T0_EESH_
FNDA:1,_ZN9__gnu_cxxneIPKPKN5Catch20IExceptionTranslatorESt6vectorIS4_SaIS4_EEEEbRKNS_17__normal_iteratorIT_T0_EESF_
FNDA:0,_ZN9__gnu_cxxneIPN5Catch8TestCaseESt6vectorIS2_SaIS2_EEEEbRKNS_17__normal_iteratorIT_T0_EESC_
FNDA:0,_ZN9__gnu_cxxneIPN5Catch11MessageInfoESt6vectorIS2_SaIS2_EEEEbRKNS_17__normal_iteratorIT_T0_EESC_
FNDA:35,_ZN9__gnu_cxxneIPcSsEEbRKNS_17__normal_iteratorIT_T0_EES7_
FNDA:0,_ZN9__gnu_cxxneIPKN5Catch15ConsoleReporter13SummaryColumnESt6vectorIS3_SaIS3_EEEEbRKNS_17__normal_iteratorIT_T0_EESE_
FNDA:0,_ZN9__gnu_cxxneIPSsSt6vectorISsSaISsEEEEbRKNS_17__normal_iteratorIT_T0_EESA_
FNDA:0,_ZN9__gnu_cxxneIPKN5Catch11SectionInfoESt6vectorIS2_SaIS2_EEEEbRKNS_17__normal_iteratorIT_T0_EESD_
FNDA:6,_ZN9__gnu_cxxneIPKN5Catch14AssertionStatsESt6vectorIS2_SaIS2_EEEEbRKNS_17__normal_iteratorIT_T0_EESD_
FNDA:2,_ZN9__gnu_cxxneIPKN5Catch3PtrINS1_22CumulativeReporterBase11SectionNodeEEESt6vectorIS5_SaIS5_EEEEbRKNS_17__normal_iteratorIT_T0_EESG_
FNDA:3,_ZN9__gnu_cxxneIPKN5Catch3PtrINS1_22CumulativeReporterBase4NodeINS1_13TestCaseStatsENS3_11SectionNodeEEEEESt6vectorIS8_SaIS8_EEEEbRKNS_17__normal_iteratorIT_T0_EESJ_
FNDA:0,_ZN9__gnu_cxxneIPKN5Catch3PtrINS1_18IStreamingReporterEEESt6vectorIS4_SaIS4_EEEEbRKNS_17__normal_iteratorIT_T0_EESF_
FNDA:8,_ZN9__gnu_cxxneIPKN5Catch11MessageInfoESt6vectorIS2_SaIS2_EEEEbRKNS_17__normal_iteratorIT_T0_EESD_
FNDA:0,_ZN9__gnu_cxxneIPKPN5Catch14IGeneratorInfoESt6vectorIS3_SaIS3_EEEEbRKNS_17__normal_iteratorIT_T0_EESE_
FNDA:2,_ZN9__gnu_cxxneIPKN5Catch3PtrINS1_16IReporterFactoryEEESt6vectorIS4_SaIS4_EEEEbRKNS_17__normal_iteratorIT_T0_EESF_
FNDA:9,_ZN9__gnu_cxxneIPKN5Catch8TestCaseESt6vectorIS2_SaIS2_EEEEbRKNS_17__normal_iteratorIT_T0_EESD_
FNDA:0,_ZN9__gnu_cxxneIPKcSsEEbRKNS_17__normal_iteratorIT_T0_EES8_
FNDA:84,_ZN9__gnu_cxxneIPKSsSt6vectorISsSaISsEEEEbRKNS_17__normal_iteratorIT_T0_EESB_
FNDA:5,_ZN9__gnu_cxxneIPKN5Catch8TestSpec6FilterESt6vectorIS3_SaIS3_EEEEbRKNS_17__normal_iteratorIT_T0_EESE_
FNDA:8,_ZN9__gnu_cxxneIPKN5Catch3PtrINS1_8TestSpec7PatternEEESt6vectorIS5_SaIS5_EEEEbRKNS_17__normal_iteratorIT_T0_EESG_
FNDA:0,_ZN9__gnu_cxxltIPN5Catch8TestCaseESt6vectorIS2_SaIS2_EEEEbRKNS_17__normal_iteratorIT_T0_EESC_
FNDA:0,_ZN9__gnu_cxxgtIPKcSsEEbRKNS_17__normal_iteratorIT_T0_EES8_
FNDA:0,_ZN9__gnu_cxxmiIPKN5Catch11MessageInfoESt6vectorIS2_SaIS2_EEEENS_17__normal_iteratorIT_T0_E15difference_typeERKSB_SE_
FNDA:0,_ZN9__gnu_cxxmiIPN5Catch3PtrINS1_22CumulativeReporterBase11SectionNodeEEESt6vectorIS5_SaIS5_EEEENS_17__normal_iteratorIT_T0_E15difference_typeERKSD_SG_
FNDA:4,_ZN9__gnu_cxxmiIPN5Catch3PtrINS1_16TestCaseTracking8ITrackerEEESt6vectorIS5_SaIS5_EEEENS_17__normal_iteratorIT_T0_E15difference_typeERKSD_SG_
FNDA:18,_ZN9__gnu_cxxmiIPKSsSt6vectorISsSaISsEEEENS_17__normal_iteratorIT_T0_E15difference_typeERKS9_SC_
FNDA:0,_ZN9__gnu_cxxmiIPN5Catch8TestCaseESt6vectorIS2_SaIS2_EEEENS_17__normal_iteratorIT_T0_E15difference_typeERKSA_SD_
FNDA:0,_ZN9__gnu_cxxmiIPN5Catch11MessageInfoESt6vectorIS2_SaIS2_EEEENS_17__normal_iteratorIT_T0_E15difference_typeERKSA_SD_
FNDA:0,_ZN9__gnu_cxxmiIPKcSsEENS_17__normal_iteratorIT_T0_E15difference_typeERKS6_S9_
FNDA:0,_ZNSt13move_iteratorIPN5Catch15ConsoleReporter13SummaryColumnEEC2ES3_
FNDA:0,_ZNSt13move_iteratorIPPN5Catch16TestCaseTracking8ITrackerEEC2ES4_
FNDA:4,_ZNSt13move_iteratorIPN5Catch5Clara6Parser5TokenEEC2ES4_
FNDA:8,_ZNSt13move_iteratorIPN5Catch14AssertionStatsEEC2ES2_
FNDA:0,_ZNSt13move_iteratorIPN5Catch11SectionInfoEEC2ES2_
FNDA:0,_ZNSt13move_iteratorIPPN5Catch14IGeneratorInfoEEC2ES3_
FNDA:0,_ZNSt13move_iteratorIPPKN5Catch20IExceptionTranslatorEEC2ES4_
FNDA:0,_ZNSt13move_iteratorIPN5Catch14SectionEndInfoEEC2ES2_
FNDA:0,_ZNSt13move_iteratorIPN5Catch11MessageInfoEEC2ES2_
FNDA:44,_ZNSt13move_iteratorIPSsEC2ES0_
FNDA:2,_ZNSt13move_iteratorIPN5Catch8TestSpec6FilterEEC2ES3_
FNDA:0,_ZNSt13move_iteratorIPjEC2ES0_
FNDA:0,_ZNKSt13move_iteratorIPPN5Catch16TestCaseTracking8ITrackerEE4baseEv
FNDA:0,_ZNKSt13move_iteratorIPN5Catch15ConsoleReporter13SummaryColumnEE4baseEv
FNDA:0,_ZNKSt13move_iteratorIPPN5Catch14IGeneratorInfoEE4baseEv
FNDA:0,_ZNKSt13move_iteratorIPPKN5Catch20IExceptionTranslatorEE4baseEv
FNDA:6,_ZNKSt13move_iteratorIPN5Catch5Clara6Parser5TokenEE4baseEv
FNDA:0,_ZNKSt13move_iteratorIPjE4baseEv
FNDA:12,_ZNKSt13move_iteratorIPN5Catch14AssertionStatsEE4baseEv
FNDA:0,_ZNKSt13move_iteratorIPN5Catch11SectionInfoEE4baseEv
FNDA:0,_ZNKSt13move_iteratorIPN5Catch14SectionEndInfoEE4baseEv
FNDA:0,_ZNKSt13move_iteratorIPN5Catch11MessageInfoEE4baseEv
FNDA:52,_ZNKSt13move_iteratorIPSsE4baseEv
FNDA:2,_ZNKSt13move_iteratorIPN5Catch8TestSpec6FilterEE4baseEv
FNDA:0,_ZNKSt13move_iteratorIPN5Catch15ConsoleReporter13SummaryColumnEEdeEv
FNDA:1,_ZNKSt13move_iteratorIPN5Catch5Clara6Parser5TokenEEdeEv
FNDA:2,_ZNKSt13move_iteratorIPN5Catch14AssertionStatsEEdeEv
FNDA:0,_ZNKSt13move_iteratorIPN5Catch11SectionInfoEEdeEv
FNDA:0,_ZNKSt13move_iteratorIPN5Catch14SectionEndInfoEEdeEv
FNDA:0,_ZNKSt13move_iteratorIPN5Catch11MessageInfoEEdeEv
FNDA:4,_ZNKSt13move_iteratorIPSsEdeEv
FNDA:0,_ZNKSt13move_iteratorIPN5Catch8TestSpec6FilterEEdeEv
FNDA:0,_ZNSt13move_iteratorIPN5Catch15ConsoleReporter13SummaryColumnEEppEv
FNDA:1,_ZNSt13move_iteratorIPN5Catch5Clara6Parser5TokenEEppEv
FNDA:2,_ZNSt13move_iteratorIPN5Catch14AssertionStatsEEppEv
FNDA:0,_ZNSt13move_iteratorIPN5Catch11SectionInfoEEppEv
FNDA:0,_ZNSt13move_iteratorIPN5Catch14SectionEndInfoEEppEv
FNDA:0,_ZNSt13move_iteratorIPN5Catch11MessageInfoEEppEv
FNDA:4,_ZNSt13move_iteratorIPSsEppEv
FNDA:0,_ZNSt13move_iteratorIPN5Catch8TestSpec6FilterEEppEv
FNDA:0,_ZSteqIPN5Catch15ConsoleReporter13SummaryColumnEEbRKSt13move_iteratorIT_ES8_
FNDA:3,_ZSteqIPN5Catch5Clara6Parser5TokenEEbRKSt13move_iteratorIT_ES9_
FNDA:6,_ZSteqIPN5Catch14AssertionStatsEEbRKSt13move_iteratorIT_ES7_
FNDA:0,_ZSteqIPN5Catch11SectionInfoEEbRKSt13move_iteratorIT_ES7_
FNDA:0,_ZSteqIPN5Catch14SectionEndInfoEEbRKSt13move_iteratorIT_ES7_
FNDA:0,_ZSteqIPN5Catch11MessageInfoEEbRKSt13move_iteratorIT_ES7_
FNDA:26,_ZSteqIPSsEbRKSt13move_iteratorIT_ES5_
FNDA:1,_ZSteqIPN5Catch8TestSpec6FilterEEbRKSt13move_iteratorIT_ES8_
FNDA:0,_ZStneIPN5Catch15ConsoleReporter13SummaryColumnEEbRKSt13move_iteratorIT_ES8_
FNDA:3,_ZStneIPN5Catch5Clara6Parser5TokenEEbRKSt13move_iteratorIT_ES9_
FNDA:6,_ZStneIPN5Catch14AssertionStatsEEbRKSt13move_iteratorIT_ES7_
FNDA:0,_ZStneIPN5Catch11SectionInfoEEbRKSt13move_iteratorIT_ES7_
FNDA:0,_ZStneIPN5Catch14SectionEndInfoEEbRKSt13move_iteratorIT_ES7_
FNDA:0,_ZStneIPN5Catch11MessageInfoEEbRKSt13move_iteratorIT_ES7_
FNDA:26,_ZStneIPSsEbRKSt13move_iteratorIT_ES5_
FNDA:1,_ZStneIPN5Catch8TestSpec6FilterEEbRKSt13move_iteratorIT_ES8_
FNDA:12,_ZSt32__make_move_if_noexcept_iteratorIPN5Catch5Clara11CommandLineINS0_10ConfigDataEE3ArgES6_ET0_T_
FNDA:0,_ZSt32__make_move_if_noexcept_iteratorIPN5Catch15ConsoleReporter13SummaryColumnESt13move_iteratorIS3_EET0_T_
FNDA:0,_ZSt32__make_move_if_noexcept_iteratorIPPN5Catch16TestCaseTracking8ITrackerESt13move_iteratorIS4_EET0_T_
FNDA:4,_ZSt32__make_move_if_noexcept_iteratorIPN5Catch5Clara6Parser5TokenESt13move_iteratorIS4_EET0_T_
FNDA:2,_ZSt32__make_move_if_noexcept_iteratorIPN5Catch3PtrINS0_8TestSpec7PatternEEES5_ET0_T_
FNDA:2,_ZSt32__make_move_if_noexcept_iteratorIPN5Catch3PtrINS0_22CumulativeReporterBase4NodeINS0_12TestRunStatsENS3_INS0_14TestGroupStatsENS3_INS0_13TestCaseStatsENS2_11SectionNodeEEEEEEEEESC_ET0_T_
FNDA:2,_ZSt32__make_move_if_noexcept_iteratorIPN5Catch3PtrINS0_22CumulativeReporterBase4NodeINS0_14TestGroupStatsENS3_INS0_13TestCaseStatsENS2_11SectionNodeEEEEEEESA_ET0_T_
FNDA:4,_ZSt32__make_move_if_noexcept_iteratorIPN5Catch3PtrINS0_22CumulativeReporterBase4NodeINS0_13TestCaseStatsENS2_11SectionNodeEEEEES8_ET0_T_
FNDA:8,_ZSt32__make_move_if_noexcept_iteratorIPN5Catch14AssertionStatsESt13move_iteratorIS2_EET0_T_
FNDA:6,_ZSt32__make_move_if_noexcept_iteratorIPN5Catch3PtrINS0_22CumulativeReporterBase11SectionNodeEEES5_ET0_T_
FNDA:0,_ZSt32__make_move_if_noexcept_iteratorIPN5Catch11SectionInfoESt13move_iteratorIS2_EET0_T_
FNDA:0,_ZSt32__make_move_if_noexcept_iteratorIPN5Catch3PtrINS0_18IStreamingReporterEEES4_ET0_T_
FNDA:0,_ZSt32__make_move_if_noexcept_iteratorIPPN5Catch14IGeneratorInfoESt13move_iteratorIS3_EET0_T_
FNDA:0,_ZSt32__make_move_if_noexcept_iteratorIPPKN5Catch20IExceptionTranslatorESt13move_iteratorIS4_EET0_T_
FNDA:0,_ZSt32__make_move_if_noexcept_iteratorIPN5Catch3PtrINS0_16IReporterFactoryEEES4_ET0_T_
FNDA:0,_ZSt32__make_move_if_noexcept_iteratorIPN5Catch14SectionEndInfoESt13move_iteratorIS2_EET0_T_
FNDA:4,_ZSt32__make_move_if_noexcept_iteratorIPN5Catch3PtrINS0_16TestCaseTracking8ITrackerEEES5_ET0_T_
FNDA:0,_ZSt32__make_move_if_noexcept_iteratorIPN5Catch11MessageInfoESt13move_iteratorIS2_EET0_T_
FNDA:44,_ZSt32__make_move_if_noexcept_iteratorIPSsSt13move_iteratorIS0_EET0_T_
FNDA:2,_ZSt32__make_move_if_noexcept_iteratorIPN5Catch8TestSpec6FilterESt13move_iteratorIS3_EET0_T_
FNDA:0,_ZSt32__make_move_if_noexcept_iteratorIPjSt13move_iteratorIS0_EET0_T_
FNDA:4,_ZSt32__make_move_if_noexcept_iteratorIPN5Catch8TestCaseES2_ET0_T_
FNF:301
FNH:136
DA:126,4
DA:131,0
DA:132,0
DA:139,4
DA:140,4
DA:146,8
DA:147,8
DA:160,0
DA:162,0
DA:163,0
DA:181,0
DA:183,0
DA:184,0
DA:291,2
DA:293,2
DA:303,2
DA:305,2
DA:414,0
DA:436,0
DA:438,0
DA:439,0
DA:452,0
DA:453,0
DA:457,0
DA:458,0
DA:479,0
DA:480,0
DA:726,347
DA:730,12
DA:734,12
DA:738,207
DA:739,207
DA:742,25
DA:743,25
DA:746,160
DA:748,160
DA:749,160
DA:758,0
DA:760,0
DA:761,0
DA:778,0
DA:779,0
DA:786,64
DA:787,64
DA:790,514
DA:791,514
DA:805,0
DA:807,0
DA:811,28
DA:813,28
DA:817,2
DA:819,2
DA:823,196
DA:825,196
DA:836,0
DA:838,0
DA:848,0
DA:850,0
DA:896,22
DA:898,22
DA:950,58
DA:951,58
DA:958,72
DA:959,72
DA:962,7
DA:963,7
DA:970,7
DA:972,7
DA:973,7
DA:1037,36
DA:1039,36
DA:1049,36
DA:1051,36
DA:1132,94
DA:1133,94
LF:75
LH:46
end_of_record
SF:/opt/Programs/buildroot-at91/output/host/usr/arm-buildroot-linux-gnueabi/include/c++/4.8.2/bits/stl_iterator_base_funcs.h
FN:90,_ZSt10__distanceIPcENSt15iterator_traitsIT_E15difference_typeES2_S2_St26random_access_iterator_tag
FN:90,_ZSt10__distanceIN9__gnu_cxx17__normal_iteratorIPKcSsEEENSt15iterator_traitsIT_E15difference_typeES6_S6_St26random_access_iterator_tag
FN:90,_ZSt10__distanceIN9__gnu_cxx17__normal_iteratorIPKN5Catch11MessageInfoESt6vectorIS3_SaIS3_EEEEENSt15iterator_traitsIT_E15difference_typeESB_SB_St26random_access_iterator_tag
FN:114,_ZSt8distanceIPcENSt15iterator_traitsIT_E15difference_typeES2_S2_
FN:114,_ZSt8distanceIN9__gnu_cxx17__normal_iteratorIPKN5Catch11MessageInfoESt6vectorIS3_SaIS3_EEEEENSt15iterator_traitsIT_E15difference_typeESB_SB_
FN:114,_ZSt8distanceIN9__gnu_cxx17__normal_iteratorIPKcSsEEENSt15iterator_traitsIT_E15difference_typeES6_S6_
FNDA:0,_ZSt10__distanceIPcENSt15iterator_traitsIT_E15difference_typeES2_S2_St26random_access_iterator_tag
FNDA:0,_ZSt10__distanceIN9__gnu_cxx17__normal_iteratorIPKcSsEEENSt15iterator_traitsIT_E15difference_typeES6_S6_St26random_access_iterator_tag
FNDA:0,_ZSt10__distanceIN9__gnu_cxx17__normal_iteratorIPKN5Catch11MessageInfoESt6vectorIS3_SaIS3_EEEEENSt15iterator_traitsIT_E15difference_typeESB_SB_St26random_access_iterator_tag
FNDA:0,_ZSt8distanceIPcENSt15iterator_traitsIT_E15difference_typeES2_S2_
FNDA:0,_ZSt8distanceIN9__gnu_cxx17__normal_iteratorIPKcSsEEENSt15iterator_traitsIT_E15difference_typeES6_S6_
FNDA:0,_ZSt8distanceIN9__gnu_cxx17__normal_iteratorIPKN5Catch11MessageInfoESt6vectorIS3_SaIS3_EEEEENSt15iterator_traitsIT_E15difference_typeESB_SB_
FNF:6
FNH:0
DA:90,0
DA:96,0
DA:114,0
DA:118,0
LF:4
LH:0
end_of_record
SF:/opt/Programs/buildroot-at91/output/host/usr/arm-buildroot-linux-gnueabi/include/c++/4.8.2/bits/stl_iterator_base_types.h
FN:118,_ZNSt8iteratorISt26random_access_iterator_tagN5Catch14SectionEndInfoEiPKS2_RS3_EC2Ev
FN:118,_ZNSt8iteratorISt19output_iterator_tagvvvvEC2Ev
FN:118,_ZNSt8iteratorISt26random_access_iterator_tagciPKcRS1_EC2Ev
FN:118,_ZNSt8iteratorISt26random_access_iterator_tagN5Catch14SectionEndInfoEiPS2_RS2_EC2Ev
FN:201,_ZSt19__iterator_categoryIN9__gnu_cxx17__normal_iteratorIPKSsSt6vectorISsSaISsEEEEENSt15iterator_traitsIT_E17iterator_categoryERKS9_
FN:201,_ZSt19__iterator_categoryIN9__gnu_cxx17__normal_iteratorIPN5Catch11MessageInfoESt6vectorIS3_SaIS3_EEEEENSt15iterator_traitsIT_E17iterator_categoryERKSA_
FN:201,_ZSt19__iterator_categoryIN9__gnu_cxx17__normal_iteratorIPKN5Catch11MessageInfoESt6vectorIS3_SaIS3_EEEEENSt15iterator_traitsIT_E17iterator_categoryERKSB_
FN:201,_ZSt19__iterator_categoryIN9__gnu_cxx17__normal_iteratorIPKcSsEEENSt15iterator_traitsIT_E17iterator_categoryERKS6_
FN:201,_ZSt19__iterator_categoryIPcENSt15iterator_traitsIT_E17iterator_categoryERKS2_
FN:201,_ZSt19__iterator_categoryIN9__gnu_cxx17__normal_iteratorIPN5Catch3PtrINS2_16TestCaseTracking8ITrackerEEESt6vectorIS6_SaIS6_EEEEENSt15iterator_traitsIT_E17iterator_categoryERKSD_
FN:201,_ZSt19__iterator_categoryIN9__gnu_cxx17__normal_iteratorIPN5Catch3PtrINS2_22CumulativeReporterBase11SectionNodeEEESt6vectorIS6_SaIS6_EEEEENSt15iterator_traitsIT_E17iterator_categoryERKSD_
FN:212,_ZNSt10_Iter_baseIPPKN5Catch20IExceptionTranslatorELb0EE7_S_baseES4_
FN:212,_ZNSt10_Iter_baseIPjLb0EE7_S_baseES0_
FN:212,_ZNSt10_Iter_baseIPPN5Catch14IGeneratorInfoELb0EE7_S_baseES3_
FN:212,_ZNSt10_Iter_baseISt16reverse_iteratorIN9__gnu_cxx17__normal_iteratorIPKcSsEEELb0EE7_S_baseES6_
FN:212,_ZNSt10_Iter_baseISt20back_insert_iteratorISt6vectorISsSaISsEEELb0EE7_S_baseES4_
FN:212,_ZNSt10_Iter_baseIPPN5Catch16TestCaseTracking8ITrackerELb0EE7_S_baseES4_
FN:212,_ZNSt10_Iter_baseIN9__gnu_cxx17__normal_iteratorIPN5Catch11MessageInfoESt6vectorIS3_SaIS3_EEEELb0EE7_S_baseES8_
FN:212,_ZNSt10_Iter_baseIN9__gnu_cxx17__normal_iteratorIPN5Catch8TestCaseESt6vectorIS3_SaIS3_EEEELb0EE7_S_baseES8_
FN:212,_ZNSt10_Iter_baseIN9__gnu_cxx17__normal_iteratorIPKSsSt6vectorISsSaISsEEEELb0EE7_S_baseES7_
FN:220,_ZNSt10_Iter_baseIN9__gnu_cxx17__normal_iteratorIPN5Catch8TestCaseESt6vectorIS3_SaIS3_EEEELb1EE7_S_baseES8_
FN:220,_ZNSt10_Iter_baseIN9__gnu_cxx17__normal_iteratorIPKcSsEELb1EE7_S_baseES4_
FN:220,_ZNSt10_Iter_baseIN9__gnu_cxx17__normal_iteratorIPN5Catch11MessageInfoESt6vectorIS3_SaIS3_EEEELb1EE7_S_baseES8_
FN:220,_ZNSt10_Iter_baseISt13move_iteratorIPPN5Catch16TestCaseTracking8ITrackerEELb1EE7_S_baseES6_
FN:220,_ZNSt10_Iter_baseISt13move_iteratorIPPN5Catch14IGeneratorInfoEELb1EE7_S_baseES5_
FN:220,_ZNSt10_Iter_baseISt13move_iteratorIPjELb1EE7_S_baseES2_
FN:220,_ZNSt10_Iter_baseIN9__gnu_cxx17__normal_iteratorIPKSsSt6vectorISsSaISsEEEELb1EE7_S_baseES7_
FN:220,_ZNSt10_Iter_baseISt13move_iteratorIPPKN5Catch20IExceptionTranslatorEELb1EE7_S_baseES6_
FNDA:4,_ZNSt8iteratorISt26random_access_iterator_tagN5Catch14SectionEndInfoEiPS2_RS2_EC2Ev
FNDA:0,_ZNSt8iteratorISt19output_iterator_tagvvvvEC2Ev
FNDA:0,_ZNSt8iteratorISt26random_access_iterator_tagciPKcRS1_EC2Ev
FNDA:4,_ZNSt8iteratorISt26random_access_iterator_tagN5Catch14SectionEndInfoEiPKS2_RS3_EC2Ev
FNDA:0,_ZSt19__iterator_categoryIPcENSt15iterator_traitsIT_E17iterator_categoryERKS2_
FNDA:0,_ZSt19__iterator_categoryIN9__gnu_cxx17__normal_iteratorIPN5Catch11MessageInfoESt6vectorIS3_SaIS3_EEEEENSt15iterator_traitsIT_E17iterator_categoryERKSA_
FNDA:0,_ZSt19__iterator_categoryIN9__gnu_cxx17__normal_iteratorIPKN5Catch11MessageInfoESt6vectorIS3_SaIS3_EEEEENSt15iterator_traitsIT_E17iterator_categoryERKSB_
FNDA:0,_ZSt19__iterator_categoryIN9__gnu_cxx17__normal_iteratorIPN5Catch3PtrINS2_22CumulativeReporterBase11SectionNodeEEESt6vectorIS6_SaIS6_EEEEENSt15iterator_traitsIT_E17iterator_categoryERKSD_
FNDA:2,_ZSt19__iterator_categoryIN9__gnu_cxx17__normal_iteratorIPN5Catch3PtrINS2_16TestCaseTracking8ITrackerEEESt6vectorIS6_SaIS6_EEEEENSt15iterator_traitsIT_E17iterator_categoryERKSD_
FNDA:0,_ZSt19__iterator_categoryIN9__gnu_cxx17__normal_iteratorIPKcSsEEENSt15iterator_traitsIT_E17iterator_categoryERKS6_
FNDA:9,_ZSt19__iterator_categoryIN9__gnu_cxx17__normal_iteratorIPKSsSt6vectorISsSaISsEEEEENSt15iterator_traitsIT_E17iterator_categoryERKS9_
FNDA:0,_ZNSt10_Iter_baseIPPN5Catch16TestCaseTracking8ITrackerELb0EE7_S_baseES4_
FNDA:0,_ZNSt10_Iter_baseIPPN5Catch14IGeneratorInfoELb0EE7_S_baseES3_
FNDA:0,_ZNSt10_Iter_baseIPPKN5Catch20IExceptionTranslatorELb0EE7_S_baseES4_
FNDA:0,_ZNSt10_Iter_baseIPjLb0EE7_S_baseES0_
FNDA:0,_ZNSt10_Iter_baseIN9__gnu_cxx17__normal_iteratorIPN5Catch8TestCaseESt6vectorIS3_SaIS3_EEEELb0EE7_S_baseES8_
FNDA:0,_ZNSt10_Iter_baseIN9__gnu_cxx17__normal_iteratorIPN5Catch11MessageInfoESt6vectorIS3_SaIS3_EEEELb0EE7_S_baseES8_
FNDA:0,_ZNSt10_Iter_baseISt20back_insert_iteratorISt6vectorISsSaISsEEELb0EE7_S_baseES4_
FNDA:0,_ZNSt10_Iter_baseISt16reverse_iteratorIN9__gnu_cxx17__normal_iteratorIPKcSsEEELb0EE7_S_baseES6_
FNDA:0,_ZNSt10_Iter_baseIN9__gnu_cxx17__normal_iteratorIPKSsSt6vectorISsSaISsEEEELb0EE7_S_baseES7_
FNDA:0,_ZNSt10_Iter_baseISt13move_iteratorIPPN5Catch16TestCaseTracking8ITrackerEELb1EE7_S_baseES6_
FNDA:0,_ZNSt10_Iter_baseISt13move_iteratorIPPN5Catch14IGeneratorInfoEELb1EE7_S_baseES5_
FNDA:0,_ZNSt10_Iter_baseISt13move_iteratorIPPKN5Catch20IExceptionTranslatorEELb1EE7_S_baseES6_
FNDA:0,_ZNSt10_Iter_baseISt13move_iteratorIPjELb1EE7_S_baseES2_
FNDA:0,_ZNSt10_Iter_baseIN9__gnu_cxx17__normal_iteratorIPN5Catch8TestCaseESt6vectorIS3_SaIS3_EEEELb1EE7_S_baseES8_
FNDA:0,_ZNSt10_Iter_baseIN9__gnu_cxx17__normal_iteratorIPN5Catch11MessageInfoESt6vectorIS3_SaIS3_EEEELb1EE7_S_baseES8_
FNDA:0,_ZNSt10_Iter_baseIN9__gnu_cxx17__normal_iteratorIPKSsSt6vectorISsSaISsEEEELb1EE7_S_baseES7_
FNDA:6,_ZNSt10_Iter_baseIN9__gnu_cxx17__normal_iteratorIPKcSsEELb1EE7_S_baseES4_
FNF:28
FNH:5
DA:118,8
DA:201,11
DA:202,11
DA:212,0
DA:213,0
DA:220,6
DA:221,6
LF:7
LH:5
end_of_record
SF:/opt/Programs/buildroot-at91/output/host/usr/arm-buildroot-linux-gnueabi/include/c++/4.8.2/bits/stl_map.h
FN:96,_ZNSt3mapISsPN5Catch18IGeneratorsForTestESt4lessISsESaISt4pairIKSsS2_EEED2Ev
FN:96,_ZNSt3mapISsPN5Catch14IGeneratorInfoESt4lessISsESaISt4pairIKSsS2_EEED2Ev
FN:96,_ZNSt3mapIiN5Catch5Clara11CommandLineINS0_10ConfigDataEE3ArgESt4lessIiESaISt4pairIKiS5_EEED2Ev
FN:96,_ZNSt3mapISsN5Catch8TagAliasESt4lessISsESaISt4pairIKSsS1_EEED2Ev
FN:96,_ZNSt3mapISsN5Catch7TagInfoESt4lessISsESaISt4pairIKSsS1_EEED2Ev
FN:96,_ZNSt3mapISsN5Catch3PtrINS0_16IReporterFactoryEEESt4lessISsESaISt4pairIKSsS3_EEED2Ev
FN:160,_ZNSt3mapISsN5Catch7TagInfoESt4lessISsESaISt4pairIKSsS1_EEEC2Ev
FN:160,_ZNSt3mapISsPN5Catch14IGeneratorInfoESt4lessISsESaISt4pairIKSsS2_EEEC2Ev
FN:160,_ZNSt3mapISsN5Catch8TagAliasESt4lessISsESaISt4pairIKSsS1_EEEC2Ev
FN:160,_ZNSt3mapISsN5Catch3PtrINS0_16IReporterFactoryEEESt4lessISsESaISt4pairIKSsS3_EEEC2Ev
FN:160,_ZNSt3mapIiN5Catch5Clara11CommandLineINS0_10ConfigDataEE3ArgESt4lessIiESaISt4pairIKiS5_EEEC2Ev
FN:160,_ZNSt3mapISsPN5Catch18IGeneratorsForTestESt4lessISsESaISt4pairIKSsS2_EEEC2Ev
FN:320,_ZNSt3mapISsN5Catch7TagInfoESt4lessISsESaISt4pairIKSsS1_EEE5beginEv
FN:320,_ZNSt3mapISsPN5Catch18IGeneratorsForTestESt4lessISsESaISt4pairIKSsS2_EEE5beginEv
FN:329,_ZNKSt3mapISsN5Catch8TagAliasESt4lessISsESaISt4pairIKSsS1_EEE5beginEv
FN:329,_ZNKSt3mapISsN5Catch3PtrINS0_16IReporterFactoryEEESt4lessISsESaISt4pairIKSsS3_EEE5beginEv
FN:338,_ZNSt3mapISsPN5Catch18IGeneratorsForTestESt4lessISsESaISt4pairIKSsS2_EEE3endEv
FN:338,_ZNSt3mapISsN5Catch7TagInfoESt4lessISsESaISt4pairIKSsS1_EEE3endEv
FN:338,_ZNSt3mapISsPN5Catch14IGeneratorInfoESt4lessISsESaISt4pairIKSsS2_EEE3endEv
FN:347,_ZNKSt3mapISsN5Catch3PtrINS0_16IReporterFactoryEEESt4lessISsESaISt4pairIKSsS3_EEE3endEv
FN:347,_ZNKSt3mapIiN5Catch5Clara11CommandLineINS0_10ConfigDataEE3ArgESt4lessIiESaISt4pairIKiS5_EEE3endEv
FN:347,_ZNKSt3mapISsN5Catch8TagAliasESt4lessISsESaISt4pairIKSsS1_EEE3endEv
FN:429,_ZNKSt3mapIiN5Catch5Clara11CommandLineINS0_10ConfigDataEE3ArgESt4lessIiESaISt4pairIKiS5_EEE5emptyEv
FN:434,_ZNKSt3mapISsN5Catch3PtrINS0_16IReporterFactoryEEESt4lessISsESaISt4pairIKSsS3_EEE4sizeEv
FN:434,_ZNKSt3mapISsN5Catch7TagInfoESt4lessISsESaISt4pairIKSsS1_EEE4sizeEv
FN:602,_ZNSt3mapISsN5Catch8TagAliasESt4lessISsESaISt4pairIKSsS1_EEE6insertIS4_IPKcS1_EvEES4_ISt17_Rb_tree_iteratorIS6_EbEOT_
FN:602,_ZNSt3mapISsN5Catch3PtrINS0_16IReporterFactoryEEESt4lessISsESaISt4pairIKSsS3_EEE6insertIS6_ISsS3_EvEES6_ISt17_Rb_tree_iteratorIS8_EbEOT_
FN:602,_ZNSt3mapISsPN5Catch18IGeneratorsForTestESt4lessISsESaISt4pairIKSsS2_EEE6insertIS5_ISsS2_EvEES5_ISt17_Rb_tree_iteratorIS7_EbEOT_
FN:602,_ZNSt3mapISsPN5Catch14IGeneratorInfoESt4lessISsESaISt4pairIKSsS2_EEE6insertIS5_ISsS2_EvEES5_ISt17_Rb_tree_iteratorIS7_EbEOT_
FN:602,_ZNSt3mapISsN5Catch7TagInfoESt4lessISsESaISt4pairIKSsS1_EEE6insertIS4_ISsS1_EvEES4_ISt17_Rb_tree_iteratorIS6_EbEOT_
FN:821,_ZNSt3mapISsPN5Catch14IGeneratorInfoESt4lessISsESaISt4pairIKSsS2_EEE4findERS6_
FN:821,_ZNSt3mapISsPN5Catch18IGeneratorsForTestESt4lessISsESaISt4pairIKSsS2_EEE4findERS6_
FN:821,_ZNSt3mapISsN5Catch7TagInfoESt4lessISsESaISt4pairIKSsS1_EEE4findERS5_
FN:836,_ZNKSt3mapISsN5Catch8TagAliasESt4lessISsESaISt4pairIKSsS1_EEE4findERS5_
FN:836,_ZNKSt3mapIiN5Catch5Clara11CommandLineINS0_10ConfigDataEE3ArgESt4lessIiESaISt4pairIKiS5_EEE4findERS9_
FN:836,_ZNKSt3mapISsN5Catch3PtrINS0_16IReporterFactoryEEESt4lessISsESaISt4pairIKSsS3_EEE4findERS7_
FNDA:1,_ZNSt3mapISsN5Catch8TagAliasESt4lessISsESaISt4pairIKSsS1_EEED2Ev
FNDA:0,_ZNSt3mapISsPN5Catch14IGeneratorInfoESt4lessISsESaISt4pairIKSsS2_EEED2Ev
FNDA:1,_ZNSt3mapISsPN5Catch18IGeneratorsForTestESt4lessISsESaISt4pairIKSsS2_EEED2Ev
FNDA:1,_ZNSt3mapISsN5Catch3PtrINS0_16IReporterFactoryEEESt4lessISsESaISt4pairIKSsS3_EEED2Ev
FNDA:0,_ZNSt3mapISsN5Catch7TagInfoESt4lessISsESaISt4pairIKSsS1_EEED2Ev
FNDA:1,_ZNSt3mapIiN5Catch5Clara11CommandLineINS0_10ConfigDataEE3ArgESt4lessIiESaISt4pairIKiS5_EEED2Ev
FNDA:1,_ZNSt3mapIiN5Catch5Clara11CommandLineINS0_10ConfigDataEE3ArgESt4lessIiESaISt4pairIKiS5_EEEC2Ev
FNDA:1,_ZNSt3mapISsN5Catch8TagAliasESt4lessISsESaISt4pairIKSsS1_EEEC2Ev
FNDA:0,_ZNSt3mapISsPN5Catch14IGeneratorInfoESt4lessISsESaISt4pairIKSsS2_EEEC2Ev
FNDA:1,_ZNSt3mapISsPN5Catch18IGeneratorsForTestESt4lessISsESaISt4pairIKSsS2_EEEC2Ev
FNDA:1,_ZNSt3mapISsN5Catch3PtrINS0_16IReporterFactoryEEESt4lessISsESaISt4pairIKSsS3_EEEC2Ev
FNDA:0,_ZNSt3mapISsN5Catch7TagInfoESt4lessISsESaISt4pairIKSsS1_EEEC2Ev
FNDA:1,_ZNSt3mapISsPN5Catch18IGeneratorsForTestESt4lessISsESaISt4pairIKSsS2_EEE5beginEv
FNDA:0,_ZNSt3mapISsN5Catch7TagInfoESt4lessISsESaISt4pairIKSsS1_EEE5beginEv
FNDA:1,_ZNKSt3mapISsN5Catch8TagAliasESt4lessISsESaISt4pairIKSsS1_EEE5beginEv
FNDA:0,_ZNKSt3mapISsN5Catch3PtrINS0_16IReporterFactoryEEESt4lessISsESaISt4pairIKSsS3_EEE5beginEv
FNDA:0,_ZNSt3mapISsPN5Catch14IGeneratorInfoESt4lessISsESaISt4pairIKSsS2_EEE3endEv
FNDA:3,_ZNSt3mapISsPN5Catch18IGeneratorsForTestESt4lessISsESaISt4pairIKSsS2_EEE3endEv
FNDA:0,_ZNSt3mapISsN5Catch7TagInfoESt4lessISsESaISt4pairIKSsS1_EEE3endEv
FNDA:0,_ZNKSt3mapIiN5Catch5Clara11CommandLineINS0_10ConfigDataEE3ArgESt4lessIiESaISt4pairIKiS5_EEE3endEv
FNDA:1,_ZNKSt3mapISsN5Catch8TagAliasESt4lessISsESaISt4pairIKSsS1_EEE3endEv
FNDA:1,_ZNKSt3mapISsN5Catch3PtrINS0_16IReporterFactoryEEESt4lessISsESaISt4pairIKSsS3_EEE3endEv
FNDA:0,_ZNKSt3mapIiN5Catch5Clara11CommandLineINS0_10ConfigDataEE3ArgESt4lessIiESaISt4pairIKiS5_EEE5emptyEv
FNDA:0,_ZNKSt3mapISsN5Catch3PtrINS0_16IReporterFactoryEEESt4lessISsESaISt4pairIKSsS3_EEE4sizeEv
FNDA:0,_ZNKSt3mapISsN5Catch7TagInfoESt4lessISsESaISt4pairIKSsS1_EEE4sizeEv
FNDA:0,_ZNSt3mapISsN5Catch8TagAliasESt4lessISsESaISt4pairIKSsS1_EEE6insertIS4_IPKcS1_EvEES4_ISt17_Rb_tree_iteratorIS6_EbEOT_
FNDA:0,_ZNSt3mapISsPN5Catch14IGeneratorInfoESt4lessISsESaISt4pairIKSsS2_EEE6insertIS5_ISsS2_EvEES5_ISt17_Rb_tree_iteratorIS7_EbEOT_
FNDA:0,_ZNSt3mapISsPN5Catch18IGeneratorsForTestESt4lessISsESaISt4pairIKSsS2_EEE6insertIS5_ISsS2_EvEES5_ISt17_Rb_tree_iteratorIS7_EbEOT_
FNDA:4,_ZNSt3mapISsN5Catch3PtrINS0_16IReporterFactoryEEESt4lessISsESaISt4pairIKSsS3_EEE6insertIS6_ISsS3_EvEES6_ISt17_Rb_tree_iteratorIS8_EbEOT_
FNDA:0,_ZNSt3mapISsN5Catch7TagInfoESt4lessISsESaISt4pairIKSsS1_EEE6insertIS4_ISsS1_EvEES4_ISt17_Rb_tree_iteratorIS6_EbEOT_
FNDA:0,_ZNSt3mapISsPN5Catch14IGeneratorInfoESt4lessISsESaISt4pairIKSsS2_EEE4findERS6_
FNDA:2,_ZNSt3mapISsPN5Catch18IGeneratorsForTestESt4lessISsESaISt4pairIKSsS2_EEE4findERS6_
FNDA:0,_ZNSt3mapISsN5Catch7TagInfoESt4lessISsESaISt4pairIKSsS1_EEE4findERS5_
FNDA:0,_ZNKSt3mapIiN5Catch5Clara11CommandLineINS0_10ConfigDataEE3ArgESt4lessIiESaISt4pairIKiS5_EEE4findERS9_
FNDA:0,_ZNKSt3mapISsN5Catch8TagAliasESt4lessISsESaISt4pairIKSsS1_EEE4findERS5_
FNDA:1,_ZNKSt3mapISsN5Catch3PtrINS0_16IReporterFactoryEEESt4lessISsESaISt4pairIKSsS3_EEE4findERS7_
FNF:36
FNH:16
DA:96,4
DA:160,4
DA:161,4
DA:320,1
DA:321,1
DA:329,1
DA:330,1
DA:338,3
DA:339,3
DA:347,2
DA:348,2
DA:429,0
DA:430,0
DA:434,0
DA:435,0
DA:602,4
DA:603,4
DA:821,2
DA:822,2
DA:836,1
DA:837,1
LF:21
LH:17
end_of_record
SF:/opt/Programs/buildroot-at91/output/host/usr/arm-buildroot-linux-gnueabi/include/c++/4.8.2/bits/stl_pair.h
FN:96,_ZNSt4pairISsN5Catch3PtrINS0_16IReporterFactoryEEEED2Ev
FN:96,_ZNSt4pairISsPN5Catch18IGeneratorsForTestEED2Ev
FN:96,_ZNSt4pairIKSsPN5Catch14IGeneratorInfoEED2Ev
FN:96,_ZNSt4pairISsPN5Catch14IGeneratorInfoEED2Ev
FN:96,_ZNSt4pairISsN5Catch7TagInfoEED2Ev
FN:96,_ZNSt4pairIPKcN5Catch8TagAliasEED2Ev
FN:96,_ZNSt4pairIKSsN5Catch8TagAliasEED2Ev
FN:96,_ZNSt4pairIKiN5Catch5Clara11CommandLineINS1_10ConfigDataEE3ArgEED2Ev
FN:96,_ZNSt4pairIKSsN5Catch3PtrINS1_16IReporterFactoryEEEED2Ev
FN:96,_ZNSt4pairIKSsPN5Catch18IGeneratorsForTestEED2Ev
FN:96,_ZNSt4pairIKSsN5Catch7TagInfoEED2Ev
FN:112,_ZNSt4pairISsN5Catch3PtrINS0_16IReporterFactoryEEEEC1ERKSsRKS3_
FN:133,_ZNSt4pairIPSt18_Rb_tree_node_baseS1_EC2IRS1_vEEOT_RKS1_
FN:138,_ZNSt4pairISsPN5Catch14IGeneratorInfoEEC1IRS2_vEERKSsOT_
FN:144,_ZNSt4pairISt17_Rb_tree_iteratorIS_IKSsN5Catch3PtrINS2_16IReporterFactoryEEEEEbEC2IS7_bvEEOT_OT0_
FN:144,_ZNSt4pairISt17_Rb_tree_iteratorIN5Catch8TestCaseEEbEC2IS3_bvEEOT_OT0_
FN:144,_ZNSt4pairIPSt18_Rb_tree_node_baseS1_EC2IRPSt13_Rb_tree_nodeIS_IKSsN5Catch8TagAliasEEESB_vEEOT_OT0_
FN:144,_ZNSt4pairISsPN5Catch18IGeneratorsForTestEEC1IRSsRS2_vEEOT_OT0_
FN:144,_ZNSt4pairISt17_Rb_tree_iteratorISsEbEC2IS1_bvEEOT_OT0_
FN:144,_ZNSt4pairIPSt18_Rb_tree_node_baseS1_EC2IRPSt13_Rb_tree_nodeIS_IKSsN5Catch3PtrINS6_16IReporterFactoryEEEEESD_vEEOT_OT0_
FN:144,_ZNSt4pairIPSt18_Rb_tree_node_baseS1_EC2IRPSt13_Rb_tree_nodeIN5Catch8TestCaseEES9_vEEOT_OT0_
FN:144,_ZNSt4pairISt17_Rb_tree_iteratorIS_IKSsN5Catch8TagAliasEEEbEC2IS5_bvEEOT_OT0_
FN:144,_ZNSt4pairISsN5Catch7TagInfoEEC1IRSsS1_vEEOT_OT0_
FN:144,_ZNSt4pairIPKcN5Catch8TagAliasEEC1IRS1_S3_vEEOT_OT0_
FN:144,_ZNSt4pairISt17_Rb_tree_iteratorIS_IKSsPN5Catch14IGeneratorInfoEEEbEC2IS6_bvEEOT_OT0_
FN:144,_ZNSt4pairIPSt18_Rb_tree_node_baseS1_EC2IRPSt13_Rb_tree_nodeIS_IKSsN5Catch7TagInfoEEESB_vEEOT_OT0_
FN:144,_ZNSt4pairISt23_Rb_tree_const_iteratorIN5Catch8TestCaseEEbEC2IRSt17_Rb_tree_iteratorIS2_ERbvEEOT_OT0_
FN:144,_ZNSt4pairISt17_Rb_tree_iteratorIS_IKSsN5Catch7TagInfoEEEbEC2IS5_bvEEOT_OT0_
FN:144,_ZNSt4pairIPSt18_Rb_tree_node_baseS1_EC2IRPSt13_Rb_tree_nodeISsES7_vEEOT_OT0_
FN:144,_ZNSt4pairISt23_Rb_tree_const_iteratorISsEbEC2IRSt17_Rb_tree_iteratorISsERbvEEOT_OT0_
FN:144,_ZNSt4pairISt17_Rb_tree_iteratorIS_IKSsPN5Catch18IGeneratorsForTestEEEbEC2IS6_bvEEOT_OT0_
FN:144,_ZNSt4pairIPSt18_Rb_tree_node_baseS1_EC2IRPSt13_Rb_tree_nodeIS_IKSsPN5Catch18IGeneratorsForTestEEESC_vEEOT_OT0_
FN:144,_ZNSt4pairIPSt18_Rb_tree_node_baseS1_EC2IRPSt13_Rb_tree_nodeIS_IKSsPN5Catch14IGeneratorInfoEEESC_vEEOT_OT0_
FN:150,_ZNSt4pairIKSsN5Catch8TagAliasEEC1IPKcS2_vEEOS_IT_T0_E
FN:150,_ZNSt4pairIKSsN5Catch3PtrINS1_16IReporterFactoryEEEEC1ISsS4_vEEOS_IT_T0_E
FN:150,_ZNSt4pairIKSsPN5Catch18IGeneratorsForTestEEC1ISsS3_vEEOS_IT_T0_E
FN:150,_ZNSt4pairIKSsN5Catch7TagInfoEEC1ISsS2_vEEOS_IT_T0_E
FN:150,_ZNSt4pairIKSsPN5Catch14IGeneratorInfoEEC1ISsS3_vEEOS_IT_T0_E
FN:276,_ZSt9make_pairIRKSsRPN5Catch14IGeneratorInfoEESt4pairINSt17__decay_and_stripIT_E6__typeENS7_IT0_E6__typeEEOS8_OSB_
FN:276,_ZSt9make_pairIRKSsRKN5Catch3PtrINS2_16IReporterFactoryEEEESt4pairINSt17__decay_and_stripIT_E6__typeENS9_IT0_E6__typeEEOSA_OSD_
FN:276,_ZSt9make_pairIRSsN5Catch7TagInfoEESt4pairINSt17__decay_and_stripIT_E6__typeENS4_IT0_E6__typeEEOS5_OS8_
FN:276,_ZSt9make_pairIRPKcN5Catch8TagAliasEESt4pairINSt17__decay_and_stripIT_E6__typeENS6_IT0_E6__typeEEOS7_OSA_
FN:276,_ZSt9make_pairIRSsRPN5Catch18IGeneratorsForTestEESt4pairINSt17__decay_and_stripIT_E6__typeENS6_IT0_E6__typeEEOS7_OSA_
FNDA:0,_ZNSt4pairIKSsN5Catch8TagAliasEED2Ev
FNDA:0,_ZNSt4pairIKSsPN5Catch14IGeneratorInfoEED2Ev
FNDA:0,_ZNSt4pairIKSsPN5Catch18IGeneratorsForTestEED2Ev
FNDA:4,_ZNSt4pairIKSsN5Catch3PtrINS1_16IReporterFactoryEEEED2Ev
FNDA:0,_ZNSt4pairIKSsN5Catch7TagInfoEED2Ev
FNDA:0,_ZNSt4pairIKiN5Catch5Clara11CommandLineINS1_10ConfigDataEE3ArgEED2Ev
FNDA:0,_ZNSt4pairIPKcN5Catch8TagAliasEED2Ev
FNDA:0,_ZNSt4pairISsPN5Catch14IGeneratorInfoEED2Ev
FNDA:0,_ZNSt4pairISsPN5Catch18IGeneratorsForTestEED2Ev
FNDA:4,_ZNSt4pairISsN5Catch3PtrINS0_16IReporterFactoryEEEED2Ev
FNDA:0,_ZNSt4pairISsN5Catch7TagInfoEED2Ev
FNDA:4,_ZNSt4pairISsN5Catch3PtrINS0_16IReporterFactoryEEEEC1ERKSsRKS3_
FNDA:0,_ZNSt4pairIPSt18_Rb_tree_node_baseS1_EC2IRS1_vEEOT_RKS1_
FNDA:0,_ZNSt4pairISsPN5Catch14IGeneratorInfoEEC1IRS2_vEERKSsOT_
FNDA:0,_ZNSt4pairIPSt18_Rb_tree_node_baseS1_EC2IRPSt13_Rb_tree_nodeIS_IKSsN5Catch8TagAliasEEESB_vEEOT_OT0_
FNDA:0,_ZNSt4pairIPSt18_Rb_tree_node_baseS1_EC2IRPSt13_Rb_tree_nodeIS_IKSsPN5Catch14IGeneratorInfoEEESC_vEEOT_OT0_
FNDA:0,_ZNSt4pairIPSt18_Rb_tree_node_baseS1_EC2IRPSt13_Rb_tree_nodeIS_IKSsPN5Catch18IGeneratorsForTestEEESC_vEEOT_OT0_
FNDA:4,_ZNSt4pairIPSt18_Rb_tree_node_baseS1_EC2IRPSt13_Rb_tree_nodeIS_IKSsN5Catch3PtrINS6_16IReporterFactoryEEEEESD_vEEOT_OT0_
FNDA:2,_ZNSt4pairIPSt18_Rb_tree_node_baseS1_EC2IRPSt13_Rb_tree_nodeIN5Catch8TestCaseEES9_vEEOT_OT0_
FNDA:0,_ZNSt4pairIPSt18_Rb_tree_node_baseS1_EC2IRPSt13_Rb_tree_nodeIS_IKSsN5Catch7TagInfoEEESB_vEEOT_OT0_
FNDA:4,_ZNSt4pairIPSt18_Rb_tree_node_baseS1_EC2IRPSt13_Rb_tree_nodeISsES7_vEEOT_OT0_
FNDA:0,_ZNSt4pairISt17_Rb_tree_iteratorIS_IKSsN5Catch8TagAliasEEEbEC2IS5_bvEEOT_OT0_
FNDA:0,_ZNSt4pairISt17_Rb_tree_iteratorIS_IKSsPN5Catch14IGeneratorInfoEEEbEC2IS6_bvEEOT_OT0_
FNDA:0,_ZNSt4pairISt17_Rb_tree_iteratorIS_IKSsPN5Catch18IGeneratorsForTestEEEbEC2IS6_bvEEOT_OT0_
FNDA:4,_ZNSt4pairISt17_Rb_tree_iteratorIS_IKSsN5Catch3PtrINS2_16IReporterFactoryEEEEEbEC2IS7_bvEEOT_OT0_
FNDA:2,_ZNSt4pairISt17_Rb_tree_iteratorIN5Catch8TestCaseEEbEC2IS3_bvEEOT_OT0_
FNDA:0,_ZNSt4pairISt17_Rb_tree_iteratorIS_IKSsN5Catch7TagInfoEEEbEC2IS5_bvEEOT_OT0_
FNDA:4,_ZNSt4pairISt17_Rb_tree_iteratorISsEbEC2IS1_bvEEOT_OT0_
FNDA:2,_ZNSt4pairISt23_Rb_tree_const_iteratorIN5Catch8TestCaseEEbEC2IRSt17_Rb_tree_iteratorIS2_ERbvEEOT_OT0_
FNDA:4,_ZNSt4pairISt23_Rb_tree_const_iteratorISsEbEC2IRSt17_Rb_tree_iteratorISsERbvEEOT_OT0_
FNDA:0,_ZNSt4pairIPKcN5Catch8TagAliasEEC1IRS1_S3_vEEOT_OT0_
FNDA:0,_ZNSt4pairISsPN5Catch18IGeneratorsForTestEEC1IRSsRS2_vEEOT_OT0_
FNDA:0,_ZNSt4pairISsN5Catch7TagInfoEEC1IRSsS1_vEEOT_OT0_
FNDA:0,_ZNSt4pairIKSsN5Catch8TagAliasEEC1IPKcS2_vEEOS_IT_T0_E
FNDA:0,_ZNSt4pairIKSsPN5Catch14IGeneratorInfoEEC1ISsS3_vEEOS_IT_T0_E
FNDA:0,_ZNSt4pairIKSsPN5Catch18IGeneratorsForTestEEC1ISsS3_vEEOS_IT_T0_E
FNDA:4,_ZNSt4pairIKSsN5Catch3PtrINS1_16IReporterFactoryEEEEC1ISsS4_vEEOS_IT_T0_E
FNDA:0,_ZNSt4pairIKSsN5Catch7TagInfoEEC1ISsS2_vEEOS_IT_T0_E
FNDA:0,_ZSt9make_pairIRPKcN5Catch8TagAliasEESt4pairINSt17__decay_and_stripIT_E6__typeENS6_IT0_E6__typeEEOS7_OSA_
FNDA:0,_ZSt9make_pairIRKSsRPN5Catch14IGeneratorInfoEESt4pairINSt17__decay_and_stripIT_E6__typeENS7_IT0_E6__typeEEOS8_OSB_
FNDA:0,_ZSt9make_pairIRSsRPN5Catch18IGeneratorsForTestEESt4pairINSt17__decay_and_stripIT_E6__typeENS6_IT0_E6__typeEEOS7_OSA_
FNDA:4,_ZSt9make_pairIRKSsRKN5Catch3PtrINS2_16IReporterFactoryEEEESt4pairINSt17__decay_and_stripIT_E6__typeENS9_IT0_E6__typeEEOSA_OSD_
FNDA:0,_ZSt9make_pairIRSsN5Catch7TagInfoEESt4pairINSt17__decay_and_stripIT_E6__typeENS4_IT0_E6__typeEEOS5_OS8_
FNF:43
FNH:13
DA:96,8
DA:112,4
DA:113,4
DA:133,0
DA:134,0
DA:138,0
DA:139,0
DA:144,26
DA:145,26
DA:150,4
DA:151,4
DA:152,8
DA:276,4
DA:281,4
LF:14
LH:10
end_of_record
SF:/opt/Programs/buildroot-at91/output/host/usr/arm-buildroot-linux-gnueabi/include/c++/4.8.2/bits/stl_set.h
FN:90,_ZNSt3setIN5Catch8TestCaseESt4lessIS1_ESaIS1_EED2Ev
FN:90,_ZNSt3setISsSt4lessISsESaISsEED2Ev
FN:139,_ZNSt3setISsSt4lessISsESaISsEEC2Ev
FN:139,_ZNSt3setIN5Catch8TestCaseESt4lessIS1_ESaIS1_EEC2Ev
FN:193,_ZNSt3setISsSt4lessISsESaISsEEC2ERKS3_
FN:204,_ZNSt3setISsSt4lessISsESaISsEEC2EOS3_
FN:233,_ZNSt3setISsSt4lessISsESaISsEEaSERKS3_
FN:298,_ZNKSt3setISsSt4lessISsESaISsEE5beginEv
FN:307,_ZNKSt3setISsSt4lessISsESaISsEE3endEv
FN:368,_ZNKSt3setISsSt4lessISsESaISsEE5emptyEv
FN:393,_ZNSt3setISsSt4lessISsESaISsEE4swapERS3_
FN:460,_ZNSt3setISsSt4lessISsESaISsEE6insertERKSs
FN:460,_ZNSt3setIN5Catch8TestCaseESt4lessIS1_ESaIS1_EE6insertERKS1_
FN:469,_ZNSt3setISsSt4lessISsESaISsEE6insertEOSs
FN:630,_ZNSt3setISsSt4lessISsESaISsEE5clearEv
FN:666,_ZNKSt3setISsSt4lessISsESaISsEE4findERKSs
FNDA:1,_ZNSt3setIN5Catch8TestCaseESt4lessIS1_ESaIS1_EED2Ev
FNDA:36,_ZNSt3setISsSt4lessISsESaISsEED2Ev
FNDA:1,_ZNSt3setIN5Catch8TestCaseESt4lessIS1_ESaIS1_EEC2Ev
FNDA:6,_ZNSt3setISsSt4lessISsESaISsEEC2Ev
FNDA:30,_ZNSt3setISsSt4lessISsESaISsEEC2ERKS3_
FNDA:0,_ZNSt3setISsSt4lessISsESaISsEEC2EOS3_
FNDA:2,_ZNSt3setISsSt4lessISsESaISsEEaSERKS3_
FNDA:2,_ZNKSt3setISsSt4lessISsESaISsEE5beginEv
FNDA:4,_ZNKSt3setISsSt4lessISsESaISsEE3endEv
FNDA:0,_ZNKSt3setISsSt4lessISsESaISsEE5emptyEv
FNDA:0,_ZNSt3setISsSt4lessISsESaISsEE4swapERS3_
FNDA:2,_ZNSt3setIN5Catch8TestCaseESt4lessIS1_ESaIS1_EE6insertERKS1_
FNDA:4,_ZNSt3setISsSt4lessISsESaISsEE6insertERKSs
FNDA:0,_ZNSt3setISsSt4lessISsESaISsEE6insertEOSs
FNDA:2,_ZNSt3setISsSt4lessISsESaISsEE5clearEv
FNDA:2,_ZNKSt3setISsSt4lessISsESaISsEE4findERKSs
FNF:16
FNH:12
DA:90,37
DA:139,7
DA:140,7
DA:193,30
DA:194,30
DA:204,0
DA:206,0
DA:233,2
DA:235,2
DA:236,2
DA:298,2
DA:299,2
DA:307,4
DA:308,4
DA:368,0
DA:369,0
DA:393,0
DA:394,0
DA:460,6
DA:463,6
DA:464,6
DA:469,0
DA:472,0
DA:473,0
DA:630,2
DA:631,2
DA:666,2
DA:667,2
LF:28
LH:19
end_of_record
SF:/opt/Programs/buildroot-at91/output/host/usr/arm-buildroot-linux-gnueabi/include/c++/4.8.2/bits/stl_tree.h
FN:102,_ZNSt18_Rb_tree_node_base10_S_minimumEPS_
FN:116,_ZNSt18_Rb_tree_node_base10_S_maximumEPS_
FN:131,_ZNSt13_Rb_tree_nodeISsED2Ev
FN:131,_ZNSt13_Rb_tree_nodeISt4pairIKSsPN5Catch18IGeneratorsForTestEEED2Ev
FN:131,_ZNSt13_Rb_tree_nodeIN5Catch8TestCaseEED2Ev
FN:131,_ZNSt13_Rb_tree_nodeISt4pairIKiN5Catch5Clara11CommandLineINS2_10ConfigDataEE3ArgEEED2Ev
FN:131,_ZNSt13_Rb_tree_nodeISt4pairIKSsPN5Catch14IGeneratorInfoEEED2Ev
FN:131,_ZNSt13_Rb_tree_nodeISt4pairIKSsN5Catch8TagAliasEEED2Ev
FN:131,_ZNSt13_Rb_tree_nodeISt4pairIKSsN5Catch7TagInfoEEED2Ev
FN:131,_ZNSt13_Rb_tree_nodeISt4pairIKSsN5Catch3PtrINS2_16IReporterFactoryEEEEED2Ev
FN:138,_ZNSt13_Rb_tree_nodeISsEC2IIRKSsEEEDpOT_
FN:138,_ZNSt13_Rb_tree_nodeISt4pairIKSsN5Catch8TagAliasEEEC2IIS0_IPKcS3_EEEEDpOT_
FN:138,_ZNSt13_Rb_tree_nodeISsEC2IISsEEEDpOT_
FN:138,_ZNSt13_Rb_tree_nodeISt4pairIKSsN5Catch7TagInfoEEEC2IIS0_ISsS3_EEEEDpOT_
FN:138,_ZNSt13_Rb_tree_nodeISt4pairIKSsPN5Catch14IGeneratorInfoEEEC2IIS0_ISsS4_EEEEDpOT_
FN:138,_ZNSt13_Rb_tree_nodeIN5Catch8TestCaseEEC2IIRKS1_EEEDpOT_
FN:138,_ZNSt13_Rb_tree_nodeISt4pairIKSsN5Catch3PtrINS2_16IReporterFactoryEEEEEC2IIS0_ISsS5_EEEEDpOT_
FN:138,_ZNSt13_Rb_tree_nodeISt4pairIKSsPN5Catch18IGeneratorsForTestEEEC2IIS0_ISsS4_EEEEDpOT_
FN:174,_ZNSt17_Rb_tree_iteratorISt4pairIKSsPN5Catch14IGeneratorInfoEEEC2EPSt13_Rb_tree_nodeIS5_E
FN:174,_ZNSt17_Rb_tree_iteratorISsEC2EPSt13_Rb_tree_nodeISsE
FN:174,_ZNSt17_Rb_tree_iteratorISt4pairIKSsN5Catch3PtrINS2_16IReporterFactoryEEEEEC2EPSt13_Rb_tree_nodeIS6_E
FN:174,_ZNSt17_Rb_tree_iteratorIN5Catch8TestCaseEEC2EPSt13_Rb_tree_nodeIS1_E
FN:174,_ZNSt17_Rb_tree_iteratorISt4pairIKSsN5Catch7TagInfoEEEC2EPSt13_Rb_tree_nodeIS4_E
FN:174,_ZNSt17_Rb_tree_iteratorISt4pairIKSsPN5Catch18IGeneratorsForTestEEEC2EPSt13_Rb_tree_nodeIS5_E
FN:174,_ZNSt17_Rb_tree_iteratorISt4pairIKSsN5Catch8TagAliasEEEC2EPSt13_Rb_tree_nodeIS4_E
FN:182,_ZNKSt17_Rb_tree_iteratorISt4pairIKSsN5Catch7TagInfoEEEptEv
FN:202,_ZNSt17_Rb_tree_iteratorISt4pairIKSsN5Catch8TagAliasEEEmmEv
FN:202,_ZNSt17_Rb_tree_iteratorISt4pairIKSsPN5Catch18IGeneratorsForTestEEEmmEv
FN:202,_ZNSt17_Rb_tree_iteratorIN5Catch8TestCaseEEmmEv
FN:202,_ZNSt17_Rb_tree_iteratorISt4pairIKSsN5Catch3PtrINS2_16IReporterFactoryEEEEEmmEv
FN:202,_ZNSt17_Rb_tree_iteratorISt4pairIKSsPN5Catch14IGeneratorInfoEEEmmEv
FN:202,_ZNSt17_Rb_tree_iteratorISsEmmEv
FN:202,_ZNSt17_Rb_tree_iteratorISt4pairIKSsN5Catch7TagInfoEEEmmEv
FN:217,_ZNKSt17_Rb_tree_iteratorIN5Catch8TestCaseEEeqERKS2_
FN:217,_ZNKSt17_Rb_tree_iteratorISt4pairIKSsPN5Catch14IGeneratorInfoEEEeqERKS6_
FN:217,_ZNKSt17_Rb_tree_iteratorISt4pairIKSsN5Catch3PtrINS2_16IReporterFactoryEEEEEeqERKS7_
FN:217,_ZNKSt17_Rb_tree_iteratorISt4pairIKSsPN5Catch18IGeneratorsForTestEEEeqERKS6_
FN:217,_ZNKSt17_Rb_tree_iteratorISsEeqERKS0_
FN:217,_ZNKSt17_Rb_tree_iteratorISt4pairIKSsN5Catch7TagInfoEEEeqERKS5_
FN:217,_ZNKSt17_Rb_tree_iteratorISt4pairIKSsN5Catch8TagAliasEEEeqERKS5_
FN:243,_ZNSt23_Rb_tree_const_iteratorISt4pairIKSsN5Catch3PtrINS2_16IReporterFactoryEEEEEC2Ev
FN:247,_ZNSt23_Rb_tree_const_iteratorISt4pairIKiN5Catch5Clara11CommandLineINS2_10ConfigDataEE3ArgEEEC2EPKSt13_Rb_tree_nodeIS8_E
FN:247,_ZNSt23_Rb_tree_const_iteratorISt4pairIKSsN5Catch8TagAliasEEEC2EPKSt13_Rb_tree_nodeIS4_E
FN:247,_ZNSt23_Rb_tree_const_iteratorISsEC2EPKSt13_Rb_tree_nodeISsE
FN:247,_ZNSt23_Rb_tree_const_iteratorISt4pairIKSsN5Catch3PtrINS2_16IReporterFactoryEEEEEC2EPKSt13_Rb_tree_nodeIS6_E
FN:250,_ZNSt23_Rb_tree_const_iteratorISt4pairIKSsN5Catch7TagInfoEEEC2ERKSt17_Rb_tree_iteratorIS4_E
FN:250,_ZNSt23_Rb_tree_const_iteratorISsEC2ERKSt17_Rb_tree_iteratorISsE
FN:250,_ZNSt23_Rb_tree_const_iteratorISt4pairIKSsPN5Catch18IGeneratorsForTestEEEC2ERKSt17_Rb_tree_iteratorIS5_E
FN:250,_ZNSt23_Rb_tree_const_iteratorISt4pairIKSsPN5Catch14IGeneratorInfoEEEC2ERKSt17_Rb_tree_iteratorIS5_E
FN:250,_ZNSt23_Rb_tree_const_iteratorIN5Catch8TestCaseEEC2ERKSt17_Rb_tree_iteratorIS1_E
FN:259,_ZNKSt23_Rb_tree_const_iteratorISsEdeEv
FN:263,_ZNKSt23_Rb_tree_const_iteratorISt4pairIKSsPN5Catch14IGeneratorInfoEEEptEv
FN:263,_ZNKSt23_Rb_tree_const_iteratorISt4pairIKSsN5Catch7TagInfoEEEptEv
FN:263,_ZNKSt23_Rb_tree_const_iteratorISt4pairIKiN5Catch5Clara11CommandLineINS2_10ConfigDataEE3ArgEEEptEv
FN:263,_ZNKSt23_Rb_tree_const_iteratorISt4pairIKSsN5Catch3PtrINS2_16IReporterFactoryEEEEEptEv
FN:263,_ZNKSt23_Rb_tree_const_iteratorIN5Catch8TestCaseEEptEv
FN:263,_ZNKSt23_Rb_tree_const_iteratorISt4pairIKSsN5Catch8TagAliasEEEptEv
FN:263,_ZNKSt23_Rb_tree_const_iteratorISt4pairIKSsPN5Catch18IGeneratorsForTestEEEptEv
FN:268,_ZNSt23_Rb_tree_const_iteratorISt4pairIKSsN5Catch7TagInfoEEEppEv
FN:268,_ZNSt23_Rb_tree_const_iteratorISsEppEv
FN:268,_ZNSt23_Rb_tree_const_iteratorISt4pairIKSsN5Catch3PtrINS2_16IReporterFactoryEEEEEppEv
FN:268,_ZNSt23_Rb_tree_const_iteratorISt4pairIKSsPN5Catch18IGeneratorsForTestEEEppEv
FN:268,_ZNSt23_Rb_tree_const_iteratorISt4pairIKSsN5Catch8TagAliasEEEppEv
FN:298,_ZNKSt23_Rb_tree_const_iteratorISsEeqERKS0_
FN:298,_ZNKSt23_Rb_tree_const_iteratorISt4pairIKSsN5Catch8TagAliasEEEeqERKS5_
FN:298,_ZNKSt23_Rb_tree_const_iteratorISt4pairIKiN5Catch5Clara11CommandLineINS2_10ConfigDataEE3ArgEEEeqERKS9_
FN:298,_ZNKSt23_Rb_tree_const_iteratorISt4pairIKSsPN5Catch14IGeneratorInfoEEEeqERKS6_
FN:298,_ZNKSt23_Rb_tree_const_iteratorISt4pairIKSsN5Catch3PtrINS2_16IReporterFactoryEEEEEeqERKS7_
FN:302,_ZNKSt23_Rb_tree_const_iteratorISt4pairIKSsN5Catch7TagInfoEEEneERKS5_
FN:302,_ZNKSt23_Rb_tree_const_iteratorISt4pairIKSsPN5Catch18IGeneratorsForTestEEEneERKS6_
FN:302,_ZNKSt23_Rb_tree_const_iteratorISt4pairIKSsN5Catch3PtrINS2_16IReporterFactoryEEEEEneERKS7_
FN:302,_ZNKSt23_Rb_tree_const_iteratorISt4pairIKiN5Catch5Clara11CommandLineINS2_10ConfigDataEE3ArgEEEneERKS9_
FN:302,_ZNKSt23_Rb_tree_const_iteratorISsEneERKS0_
FN:302,_ZNKSt23_Rb_tree_const_iteratorISt4pairIKSsN5Catch8TagAliasEEEneERKS5_
FN:356,_ZNSt8_Rb_treeIiSt4pairIKiN5Catch5Clara11CommandLineINS2_10ConfigDataEE3ArgEESt10_Select1stIS8_ESt4lessIiESaIS8_EE21_M_get_Node_allocatorEv
FN:356,_ZNSt8_Rb_treeISsSt4pairIKSsPN5Catch14IGeneratorInfoEESt10_Select1stIS5_ESt4lessISsESaIS5_EE21_M_get_Node_allocatorEv
FN:356,_ZNSt8_Rb_treeISsSt4pairIKSsN5Catch3PtrINS2_16IReporterFactoryEEEESt10_Select1stIS6_ESt4lessISsESaIS6_EE21_M_get_Node_allocatorEv
FN:356,_ZNSt8_Rb_treeISsSt4pairIKSsPN5Catch18IGeneratorsForTestEESt10_Select1stIS5_ESt4lessISsESaIS5_EE21_M_get_Node_allocatorEv
FN:356,_ZNSt8_Rb_treeISsSt4pairIKSsN5Catch8TagAliasEESt10_Select1stIS4_ESt4lessISsESaIS4_EE21_M_get_Node_allocatorEv
FN:356,_ZNSt8_Rb_treeISsSsSt9_IdentityISsESt4lessISsESaISsEE21_M_get_Node_allocatorEv
FN:356,_ZNSt8_Rb_treeISsSt4pairIKSsN5Catch7TagInfoEESt10_Select1stIS4_ESt4lessISsESaIS4_EE21_M_get_Node_allocatorEv
FN:356,_ZNSt8_Rb_treeIN5Catch8TestCaseES1_St9_IdentityIS1_ESt4lessIS1_ESaIS1_EE21_M_get_Node_allocatorEv
FN:360,_ZNKSt8_Rb_treeISsSsSt9_IdentityISsESt4lessISsESaISsEE21_M_get_Node_allocatorEv
FN:369,_ZNSt8_Rb_treeISsSt4pairIKSsN5Catch8TagAliasEESt10_Select1stIS4_ESt4lessISsESaIS4_EE11_M_get_nodeEv
FN:369,_ZNSt8_Rb_treeISsSsSt9_IdentityISsESt4lessISsESaISsEE11_M_get_nodeEv
FN:369,_ZNSt8_Rb_treeISsSt4pairIKSsPN5Catch14IGeneratorInfoEESt10_Select1stIS5_ESt4lessISsESaIS5_EE11_M_get_nodeEv
FN:369,_ZNSt8_Rb_treeISsSt4pairIKSsN5Catch3PtrINS2_16IReporterFactoryEEEESt10_Select1stIS6_ESt4lessISsESaIS6_EE11_M_get_nodeEv
FN:369,_ZNSt8_Rb_treeIN5Catch8TestCaseES1_St9_IdentityIS1_ESt4lessIS1_ESaIS1_EE11_M_get_nodeEv
FN:369,_ZNSt8_Rb_treeISsSt4pairIKSsN5Catch7TagInfoEESt10_Select1stIS4_ESt4lessISsESaIS4_EE11_M_get_nodeEv
FN:369,_ZNSt8_Rb_treeISsSt4pairIKSsPN5Catch18IGeneratorsForTestEESt10_Select1stIS5_ESt4lessISsESaIS5_EE11_M_get_nodeEv
FN:373,_ZNSt8_Rb_treeISsSt4pairIKSsPN5Catch14IGeneratorInfoEESt10_Select1stIS5_ESt4lessISsESaIS5_EE11_M_put_nodeEPSt13_Rb_tree_nodeIS5_E
FN:373,_ZNSt8_Rb_treeISsSt4pairIKSsN5Catch3PtrINS2_16IReporterFactoryEEEESt10_Select1stIS6_ESt4lessISsESaIS6_EE11_M_put_nodeEPSt13_Rb_tree_nodeIS6_E
FN:373,_ZNSt8_Rb_treeISsSt4pairIKSsN5Catch8TagAliasEESt10_Select1stIS4_ESt4lessISsESaIS4_EE11_M_put_nodeEPSt13_Rb_tree_nodeIS4_E
FN:373,_ZNSt8_Rb_treeIN5Catch8TestCaseES1_St9_IdentityIS1_ESt4lessIS1_ESaIS1_EE11_M_put_nodeEPSt13_Rb_tree_nodeIS1_E
FN:373,_ZNSt8_Rb_treeISsSt4pairIKSsN5Catch7TagInfoEESt10_Select1stIS4_ESt4lessISsESaIS4_EE11_M_put_nodeEPSt13_Rb_tree_nodeIS4_E
FN:373,_ZNSt8_Rb_treeIiSt4pairIKiN5Catch5Clara11CommandLineINS2_10ConfigDataEE3ArgEESt10_Select1stIS8_ESt4lessIiESaIS8_EE11_M_put_nodeEPSt13_Rb_tree_nodeIS8_E
FN:373,_ZNSt8_Rb_treeISsSt4pairIKSsPN5Catch18IGeneratorsForTestEESt10_Select1stIS5_ESt4lessISsESaIS5_EE11_M_put_nodeEPSt13_Rb_tree_nodeIS5_E
FN:373,_ZNSt8_Rb_treeISsSsSt9_IdentityISsESt4lessISsESaISsEE11_M_put_nodeEPSt13_Rb_tree_nodeISsE
FN:401,_ZNSt8_Rb_treeISsSsSt9_IdentityISsESt4lessISsESaISsEE14_M_create_nodeIISsEEEPSt13_Rb_tree_nodeISsEDpOT_
FN:401,_ZNSt8_Rb_treeISsSt4pairIKSsN5Catch7TagInfoEESt10_Select1stIS4_ESt4lessISsESaIS4_EE14_M_create_nodeIIS0_ISsS3_EEEEPSt13_Rb_tree_nodeIS4_EDpOT_
FN:401,_ZNSt8_Rb_treeISsSt4pairIKSsPN5Catch18IGeneratorsForTestEESt10_Select1stIS5_ESt4lessISsESaIS5_EE14_M_create_nodeIIS0_ISsS4_EEEEPSt13_Rb_tree_nodeIS5_EDpOT_
FN:401,_ZNSt8_Rb_treeISsSt4pairIKSsN5Catch3PtrINS2_16IReporterFactoryEEEESt10_Select1stIS6_ESt4lessISsESaIS6_EE14_M_create_nodeIIS0_ISsS5_EEEEPSt13_Rb_tree_nodeIS6_EDpOT_
FN:401,_ZNSt8_Rb_treeIN5Catch8TestCaseES1_St9_IdentityIS1_ESt4lessIS1_ESaIS1_EE14_M_create_nodeIIRKS1_EEEPSt13_Rb_tree_nodeIS1_EDpOT_
FN:401,_ZNSt8_Rb_treeISsSsSt9_IdentityISsESt4lessISsESaISsEE14_M_create_nodeIIRKSsEEEPSt13_Rb_tree_nodeISsEDpOT_
FN:401,_ZNSt8_Rb_treeISsSt4pairIKSsPN5Catch14IGeneratorInfoEESt10_Select1stIS5_ESt4lessISsESaIS5_EE14_M_create_nodeIIS0_ISsS4_EEEEPSt13_Rb_tree_nodeIS5_EDpOT_
FN:401,_ZNSt8_Rb_treeISsSt4pairIKSsN5Catch8TagAliasEESt10_Select1stIS4_ESt4lessISsESaIS4_EE14_M_create_nodeIIS0_IPKcS3_EEEEPSt13_Rb_tree_nodeIS4_EDpOT_
FN:419,_ZNSt8_Rb_treeISsSsSt9_IdentityISsESt4lessISsESaISsEE15_M_destroy_nodeEPSt13_Rb_tree_nodeISsE
FN:419,_ZNSt8_Rb_treeISsSt4pairIKSsN5Catch8TagAliasEESt10_Select1stIS4_ESt4lessISsESaIS4_EE15_M_destroy_nodeEPSt13_Rb_tree_nodeIS4_E
FN:419,_ZNSt8_Rb_treeIiSt4pairIKiN5Catch5Clara11CommandLineINS2_10ConfigDataEE3ArgEESt10_Select1stIS8_ESt4lessIiESaIS8_EE15_M_destroy_nodeEPSt13_Rb_tree_nodeIS8_E
FN:419,_ZNSt8_Rb_treeISsSt4pairIKSsPN5Catch18IGeneratorsForTestEESt10_Select1stIS5_ESt4lessISsESaIS5_EE15_M_destroy_nodeEPSt13_Rb_tree_nodeIS5_E
FN:419,_ZNSt8_Rb_treeIN5Catch8TestCaseES1_St9_IdentityIS1_ESt4lessIS1_ESaIS1_EE15_M_destroy_nodeEPSt13_Rb_tree_nodeIS1_E
FN:419,_ZNSt8_Rb_treeISsSt4pairIKSsPN5Catch14IGeneratorInfoEESt10_Select1stIS5_ESt4lessISsESaIS5_EE15_M_destroy_nodeEPSt13_Rb_tree_nodeIS5_E
FN:419,_ZNSt8_Rb_treeISsSt4pairIKSsN5Catch7TagInfoEESt10_Select1stIS4_ESt4lessISsESaIS4_EE15_M_destroy_nodeEPSt13_Rb_tree_nodeIS4_E
FN:419,_ZNSt8_Rb_treeISsSt4pairIKSsN5Catch3PtrINS2_16IReporterFactoryEEEESt10_Select1stIS6_ESt4lessISsESaIS6_EE15_M_destroy_nodeEPSt13_Rb_tree_nodeIS6_E
FN:427,_ZNSt8_Rb_treeISsSsSt9_IdentityISsESt4lessISsESaISsEE13_M_clone_nodeEPKSt13_Rb_tree_nodeISsE
FN:439,_ZNSt8_Rb_treeISsSt4pairIKSsPN5Catch14IGeneratorInfoEESt10_Select1stIS5_ESt4lessISsESaIS5_EE13_Rb_tree_implIS9_Lb1EED2Ev
FN:439,_ZNSt8_Rb_treeISsSsSt9_IdentityISsESt4lessISsESaISsEE13_Rb_tree_implIS3_Lb1EED2Ev
FN:439,_ZNSt8_Rb_treeISsSt4pairIKSsN5Catch7TagInfoEESt10_Select1stIS4_ESt4lessISsESaIS4_EE13_Rb_tree_implIS8_Lb1EED2Ev
FN:439,_ZNSt8_Rb_treeIiSt4pairIKiN5Catch5Clara11CommandLineINS2_10ConfigDataEE3ArgEESt10_Select1stIS8_ESt4lessIiESaIS8_EE13_Rb_tree_implISC_Lb1EED2Ev
FN:439,_ZNSt8_Rb_treeISsSt4pairIKSsN5Catch3PtrINS2_16IReporterFactoryEEEESt10_Select1stIS6_ESt4lessISsESaIS6_EE13_Rb_tree_implISA_Lb1EED2Ev
FN:439,_ZNSt8_Rb_treeIN5Catch8TestCaseES1_St9_IdentityIS1_ESt4lessIS1_ESaIS1_EE13_Rb_tree_implIS5_Lb1EED2Ev
FN:439,_ZNSt8_Rb_treeISsSt4pairIKSsN5Catch8TagAliasEESt10_Select1stIS4_ESt4lessISsESaIS4_EE13_Rb_tree_implIS8_Lb1EED2Ev
FN:439,_ZNSt8_Rb_treeISsSt4pairIKSsPN5Catch18IGeneratorsForTestEESt10_Select1stIS5_ESt4lessISsESaIS5_EE13_Rb_tree_implIS9_Lb1EED2Ev
FN:445,_ZNSt8_Rb_treeIN5Catch8TestCaseES1_St9_IdentityIS1_ESt4lessIS1_ESaIS1_EE13_Rb_tree_implIS5_Lb1EEC2Ev
FN:445,_ZNSt8_Rb_treeISsSt4pairIKSsN5Catch7TagInfoEESt10_Select1stIS4_ESt4lessISsESaIS4_EE13_Rb_tree_implIS8_Lb1EEC2Ev
FN:445,_ZNSt8_Rb_treeISsSt4pairIKSsPN5Catch14IGeneratorInfoEESt10_Select1stIS5_ESt4lessISsESaIS5_EE13_Rb_tree_implIS9_Lb1EEC2Ev
FN:445,_ZNSt8_Rb_treeIiSt4pairIKiN5Catch5Clara11CommandLineINS2_10ConfigDataEE3ArgEESt10_Select1stIS8_ESt4lessIiESaIS8_EE13_Rb_tree_implISC_Lb1EEC2Ev
FN:445,_ZNSt8_Rb_treeISsSt4pairIKSsN5Catch3PtrINS2_16IReporterFactoryEEEESt10_Select1stIS6_ESt4lessISsESaIS6_EE13_Rb_tree_implISA_Lb1EEC2Ev
FN:445,_ZNSt8_Rb_treeISsSsSt9_IdentityISsESt4lessISsESaISsEE13_Rb_tree_implIS3_Lb1EEC2Ev
FN:445,_ZNSt8_Rb_treeISsSt4pairIKSsPN5Catch18IGeneratorsForTestEESt10_Select1stIS5_ESt4lessISsESaIS5_EE13_Rb_tree_implIS9_Lb1EEC2Ev
FN:445,_ZNSt8_Rb_treeISsSt4pairIKSsN5Catch8TagAliasEESt10_Select1stIS4_ESt4lessISsESaIS4_EE13_Rb_tree_implIS8_Lb1EEC2Ev
FN:450,_ZNSt8_Rb_treeISsSsSt9_IdentityISsESt4lessISsESaISsEE13_Rb_tree_implIS3_Lb1EEC2ERKS3_RKSaISt13_Rb_tree_nodeISsEE
FN:456,_ZNSt8_Rb_treeISsSsSt9_IdentityISsESt4lessISsESaISsEE13_Rb_tree_implIS3_Lb1EEC2ERKS3_OSaISt13_Rb_tree_nodeISsEE
FN:464,_ZNSt8_Rb_treeISsSt4pairIKSsPN5Catch14IGeneratorInfoEESt10_Select1stIS5_ESt4lessISsESaIS5_EE13_Rb_tree_implIS9_Lb1EE13_M_initializeEv
FN:464,_ZNSt8_Rb_treeISsSt4pairIKSsN5Catch8TagAliasEESt10_Select1stIS4_ESt4lessISsESaIS4_EE13_Rb_tree_implIS8_Lb1EE13_M_initializeEv
FN:464,_ZNSt8_Rb_treeISsSt4pairIKSsN5Catch7TagInfoEESt10_Select1stIS4_ESt4lessISsESaIS4_EE13_Rb_tree_implIS8_Lb1EE13_M_initializeEv
FN:464,_ZNSt8_Rb_treeISsSsSt9_IdentityISsESt4lessISsESaISsEE13_Rb_tree_implIS3_Lb1EE13_M_initializeEv
FN:464,_ZNSt8_Rb_treeIN5Catch8TestCaseES1_St9_IdentityIS1_ESt4lessIS1_ESaIS1_EE13_Rb_tree_implIS5_Lb1EE13_M_initializeEv
FN:464,_ZNSt8_Rb_treeISsSt4pairIKSsPN5Catch18IGeneratorsForTestEESt10_Select1stIS5_ESt4lessISsESaIS5_EE13_Rb_tree_implIS9_Lb1EE13_M_initializeEv
FN:464,_ZNSt8_Rb_treeISsSt4pairIKSsN5Catch3PtrINS2_16IReporterFactoryEEEESt10_Select1stIS6_ESt4lessISsESaIS6_EE13_Rb_tree_implISA_Lb1EE13_M_initializeEv
FN:464,_ZNSt8_Rb_treeIiSt4pairIKiN5Catch5Clara11CommandLineINS2_10ConfigDataEE3ArgEESt10_Select1stIS8_ESt4lessIiESaIS8_EE13_Rb_tree_implISC_Lb1EE13_M_initializeEv
FN:477,_ZNSt8_Rb_treeISsSsSt9_IdentityISsESt4lessISsESaISsEE7_M_rootEv
FN:481,_ZNKSt8_Rb_treeISsSsSt9_IdentityISsESt4lessISsESaISsEE7_M_rootEv
FN:485,_ZNSt8_Rb_treeISsSsSt9_IdentityISsESt4lessISsESaISsEE11_M_leftmostEv
FN:493,_ZNSt8_Rb_treeISsSsSt9_IdentityISsESt4lessISsESaISsEE12_M_rightmostEv
FN:501,_ZNSt8_Rb_treeISsSt4pairIKSsN5Catch3PtrINS2_16IReporterFactoryEEEESt10_Select1stIS6_ESt4lessISsESaIS6_EE8_M_beginEv
FN:501,_ZNSt8_Rb_treeISsSt4pairIKSsN5Catch8TagAliasEESt10_Select1stIS4_ESt4lessISsESaIS4_EE8_M_beginEv
FN:501,_ZNSt8_Rb_treeISsSsSt9_IdentityISsESt4lessISsESaISsEE8_M_beginEv
FN:501,_ZNSt8_Rb_treeIiSt4pairIKiN5Catch5Clara11CommandLineINS2_10ConfigDataEE3ArgEESt10_Select1stIS8_ESt4lessIiESaIS8_EE8_M_beginEv
FN:501,_ZNSt8_Rb_treeISsSt4pairIKSsPN5Catch18IGeneratorsForTestEESt10_Select1stIS5_ESt4lessISsESaIS5_EE8_M_beginEv
FN:501,_ZNSt8_Rb_treeIN5Catch8TestCaseES1_St9_IdentityIS1_ESt4lessIS1_ESaIS1_EE8_M_beginEv
FN:501,_ZNSt8_Rb_treeISsSt4pairIKSsN5Catch7TagInfoEESt10_Select1stIS4_ESt4lessISsESaIS4_EE8_M_beginEv
FN:501,_ZNSt8_Rb_treeISsSt4pairIKSsPN5Catch14IGeneratorInfoEESt10_Select1stIS5_ESt4lessISsESaIS5_EE8_M_beginEv
FN:505,_ZNKSt8_Rb_treeISsSsSt9_IdentityISsESt4lessISsESaISsEE8_M_beginEv
FN:505,_ZNKSt8_Rb_treeISsSt4pairIKSsN5Catch3PtrINS2_16IReporterFactoryEEEESt10_Select1stIS6_ESt4lessISsESaIS6_EE8_M_beginEv
FN:505,_ZNKSt8_Rb_treeIiSt4pairIKiN5Catch5Clara11CommandLineINS2_10ConfigDataEE3ArgEESt10_Select1stIS8_ESt4lessIiESaIS8_EE8_M_beginEv
FN:505,_ZNKSt8_Rb_treeISsSt4pairIKSsN5Catch8TagAliasEESt10_Select1stIS4_ESt4lessISsESaIS4_EE8_M_beginEv
FN:512,_ZNSt8_Rb_treeISsSt4pairIKSsN5Catch8TagAliasEESt10_Select1stIS4_ESt4lessISsESaIS4_EE6_M_endEv
FN:512,_ZNSt8_Rb_treeISsSt4pairIKSsPN5Catch18IGeneratorsForTestEESt10_Select1stIS5_ESt4lessISsESaIS5_EE6_M_endEv
FN:512,_ZNSt8_Rb_treeISsSt4pairIKSsPN5Catch14IGeneratorInfoEESt10_Select1stIS5_ESt4lessISsESaIS5_EE6_M_endEv
FN:512,_ZNSt8_Rb_treeISsSt4pairIKSsN5Catch3PtrINS2_16IReporterFactoryEEEESt10_Select1stIS6_ESt4lessISsESaIS6_EE6_M_endEv
FN:512,_ZNSt8_Rb_treeISsSsSt9_IdentityISsESt4lessISsESaISsEE6_M_endEv
FN:512,_ZNSt8_Rb_treeISsSt4pairIKSsN5Catch7TagInfoEESt10_Select1stIS4_ESt4lessISsESaIS4_EE6_M_endEv
FN:512,_ZNSt8_Rb_treeIN5Catch8TestCaseES1_St9_IdentityIS1_ESt4lessIS1_ESaIS1_EE6_M_endEv
FN:516,_ZNKSt8_Rb_treeIiSt4pairIKiN5Catch5Clara11CommandLineINS2_10ConfigDataEE3ArgEESt10_Select1stIS8_ESt4lessIiESaIS8_EE6_M_endEv
FN:516,_ZNKSt8_Rb_treeISsSt4pairIKSsN5Catch8TagAliasEESt10_Select1stIS4_ESt4lessISsESaIS4_EE6_M_endEv
FN:516,_ZNKSt8_Rb_treeISsSt4pairIKSsN5Catch3PtrINS2_16IReporterFactoryEEEESt10_Select1stIS6_ESt4lessISsESaIS6_EE6_M_endEv
FN:516,_ZNKSt8_Rb_treeISsSsSt9_IdentityISsESt4lessISsESaISsEE6_M_endEv
FN:520,_ZNSt8_Rb_treeISsSt4pairIKSsPN5Catch18IGeneratorsForTestEESt10_Select1stIS5_ESt4lessISsESaIS5_EE8_S_valueEPKSt13_Rb_tree_nodeIS5_E
FN:520,_ZNSt8_Rb_treeISsSt4pairIKSsN5Catch3PtrINS2_16IReporterFactoryEEEESt10_Select1stIS6_ESt4lessISsESaIS6_EE8_S_valueEPKSt13_Rb_tree_nodeIS6_E
FN:520,_ZNSt8_Rb_treeIN5Catch8TestCaseES1_St9_IdentityIS1_ESt4lessIS1_ESaIS1_EE8_S_valueEPKSt13_Rb_tree_nodeIS1_E
FN:520,_ZNSt8_Rb_treeIiSt4pairIKiN5Catch5Clara11CommandLineINS2_10ConfigDataEE3ArgEESt10_Select1stIS8_ESt4lessIiESaIS8_EE8_S_valueEPKSt13_Rb_tree_nodeIS8_E
FN:520,_ZNSt8_Rb_treeISsSt4pairIKSsN5Catch8TagAliasEESt10_Select1stIS4_ESt4lessISsESaIS4_EE8_S_valueEPKSt13_Rb_tree_nodeIS4_E
FN:520,_ZNSt8_Rb_treeISsSsSt9_IdentityISsESt4lessISsESaISsEE8_S_valueEPKSt13_Rb_tree_nodeISsE
FN:520,_ZNSt8_Rb_treeISsSt4pairIKSsN5Catch7TagInfoEESt10_Select1stIS4_ESt4lessISsESaIS4_EE8_S_valueEPKSt13_Rb_tree_nodeIS4_E
FN:520,_ZNSt8_Rb_treeISsSt4pairIKSsPN5Catch14IGeneratorInfoEESt10_Select1stIS5_ESt4lessISsESaIS5_EE8_S_valueEPKSt13_Rb_tree_nodeIS5_E
FN:524,_ZNSt8_Rb_treeISsSt4pairIKSsN5Catch8TagAliasEESt10_Select1stIS4_ESt4lessISsESaIS4_EE6_S_keyEPKSt13_Rb_tree_nodeIS4_E
FN:524,_ZNSt8_Rb_treeISsSt4pairIKSsN5Catch7TagInfoEESt10_Select1stIS4_ESt4lessISsESaIS4_EE6_S_keyEPKSt13_Rb_tree_nodeIS4_E
FN:524,_ZNSt8_Rb_treeISsSt4pairIKSsN5Catch3PtrINS2_16IReporterFactoryEEEESt10_Select1stIS6_ESt4lessISsESaIS6_EE6_S_keyEPKSt13_Rb_tree_nodeIS6_E
FN:524,_ZNSt8_Rb_treeIiSt4pairIKiN5Catch5Clara11CommandLineINS2_10ConfigDataEE3ArgEESt10_Select1stIS8_ESt4lessIiESaIS8_EE6_S_keyEPKSt13_Rb_tree_nodeIS8_E
FN:524,_ZNSt8_Rb_treeISsSt4pairIKSsPN5Catch14IGeneratorInfoEESt10_Select1stIS5_ESt4lessISsESaIS5_EE6_S_keyEPKSt13_Rb_tree_nodeIS5_E
FN:524,_ZNSt8_Rb_treeIN5Catch8TestCaseES1_St9_IdentityIS1_ESt4lessIS1_ESaIS1_EE6_S_keyEPKSt13_Rb_tree_nodeIS1_E
FN:524,_ZNSt8_Rb_treeISsSt4pairIKSsPN5Catch18IGeneratorsForTestEESt10_Select1stIS5_ESt4lessISsESaIS5_EE6_S_keyEPKSt13_Rb_tree_nodeIS5_E
FN:524,_ZNSt8_Rb_treeISsSsSt9_IdentityISsESt4lessISsESaISsEE6_S_keyEPKSt13_Rb_tree_nodeISsE
FN:528,_ZNSt8_Rb_treeISsSsSt9_IdentityISsESt4lessISsESaISsEE7_S_leftEPSt18_Rb_tree_node_base
FN:528,_ZNSt8_Rb_treeIiSt4pairIKiN5Catch5Clara11CommandLineINS2_10ConfigDataEE3ArgEESt10_Select1stIS8_ESt4lessIiESaIS8_EE7_S_leftEPSt18_Rb_tree_node_base
FN:528,_ZNSt8_Rb_treeISsSt4pairIKSsPN5Catch14IGeneratorInfoEESt10_Select1stIS5_ESt4lessISsESaIS5_EE7_S_leftEPSt18_Rb_tree_node_base
FN:528,_ZNSt8_Rb_treeIN5Catch8TestCaseES1_St9_IdentityIS1_ESt4lessIS1_ESaIS1_EE7_S_leftEPSt18_Rb_tree_node_base
FN:528,_ZNSt8_Rb_treeISsSt4pairIKSsN5Catch3PtrINS2_16IReporterFactoryEEEESt10_Select1stIS6_ESt4lessISsESaIS6_EE7_S_leftEPSt18_Rb_tree_node_base
FN:528,_ZNSt8_Rb_treeISsSt4pairIKSsN5Catch8TagAliasEESt10_Select1stIS4_ESt4lessISsESaIS4_EE7_S_leftEPSt18_Rb_tree_node_base
FN:528,_ZNSt8_Rb_treeISsSt4pairIKSsPN5Catch18IGeneratorsForTestEESt10_Select1stIS5_ESt4lessISsESaIS5_EE7_S_leftEPSt18_Rb_tree_node_base
FN:528,_ZNSt8_Rb_treeISsSt4pairIKSsN5Catch7TagInfoEESt10_Select1stIS4_ESt4lessISsESaIS4_EE7_S_leftEPSt18_Rb_tree_node_base
FN:532,_ZNSt8_Rb_treeISsSt4pairIKSsN5Catch3PtrINS2_16IReporterFactoryEEEESt10_Select1stIS6_ESt4lessISsESaIS6_EE7_S_leftEPKSt18_Rb_tree_node_base
FN:532,_ZNSt8_Rb_treeIiSt4pairIKiN5Catch5Clara11CommandLineINS2_10ConfigDataEE3ArgEESt10_Select1stIS8_ESt4lessIiESaIS8_EE7_S_leftEPKSt18_Rb_tree_node_base
FN:532,_ZNSt8_Rb_treeISsSsSt9_IdentityISsESt4lessISsESaISsEE7_S_leftEPKSt18_Rb_tree_node_base
FN:532,_ZNSt8_Rb_treeISsSt4pairIKSsN5Catch8TagAliasEESt10_Select1stIS4_ESt4lessISsESaIS4_EE7_S_leftEPKSt18_Rb_tree_node_base
FN:536,_ZNSt8_Rb_treeISsSt4pairIKSsN5Catch7TagInfoEESt10_Select1stIS4_ESt4lessISsESaIS4_EE8_S_rightEPSt18_Rb_tree_node_base
FN:536,_ZNSt8_Rb_treeISsSt4pairIKSsN5Catch3PtrINS2_16IReporterFactoryEEEESt10_Select1stIS6_ESt4lessISsESaIS6_EE8_S_rightEPSt18_Rb_tree_node_base
FN:536,_ZNSt8_Rb_treeISsSt4pairIKSsN5Catch8TagAliasEESt10_Select1stIS4_ESt4lessISsESaIS4_EE8_S_rightEPSt18_Rb_tree_node_base
FN:536,_ZNSt8_Rb_treeISsSt4pairIKSsPN5Catch14IGeneratorInfoEESt10_Select1stIS5_ESt4lessISsESaIS5_EE8_S_rightEPSt18_Rb_tree_node_base
FN:536,_ZNSt8_Rb_treeIiSt4pairIKiN5Catch5Clara11CommandLineINS2_10ConfigDataEE3ArgEESt10_Select1stIS8_ESt4lessIiESaIS8_EE8_S_rightEPSt18_Rb_tree_node_base
FN:536,_ZNSt8_Rb_treeIN5Catch8TestCaseES1_St9_IdentityIS1_ESt4lessIS1_ESaIS1_EE8_S_rightEPSt18_Rb_tree_node_base
FN:536,_ZNSt8_Rb_treeISsSt4pairIKSsPN5Catch18IGeneratorsForTestEESt10_Select1stIS5_ESt4lessISsESaIS5_EE8_S_rightEPSt18_Rb_tree_node_base
FN:536,_ZNSt8_Rb_treeISsSsSt9_IdentityISsESt4lessISsESaISsEE8_S_rightEPSt18_Rb_tree_node_base
FN:540,_ZNSt8_Rb_treeIiSt4pairIKiN5Catch5Clara11CommandLineINS2_10ConfigDataEE3ArgEESt10_Select1stIS8_ESt4lessIiESaIS8_EE8_S_rightEPKSt18_Rb_tree_node_base
FN:540,_ZNSt8_Rb_treeISsSt4pairIKSsN5Catch3PtrINS2_16IReporterFactoryEEEESt10_Select1stIS6_ESt4lessISsESaIS6_EE8_S_rightEPKSt18_Rb_tree_node_base
FN:540,_ZNSt8_Rb_treeISsSsSt9_IdentityISsESt4lessISsESaISsEE8_S_rightEPKSt18_Rb_tree_node_base
FN:540,_ZNSt8_Rb_treeISsSt4pairIKSsN5Catch8TagAliasEESt10_Select1stIS4_ESt4lessISsESaIS4_EE8_S_rightEPKSt18_Rb_tree_node_base
FN:544,_ZNSt8_Rb_treeISsSt4pairIKSsN5Catch8TagAliasEESt10_Select1stIS4_ESt4lessISsESaIS4_EE8_S_valueEPKSt18_Rb_tree_node_base
FN:544,_ZNSt8_Rb_treeISsSt4pairIKSsN5Catch7TagInfoEESt10_Select1stIS4_ESt4lessISsESaIS4_EE8_S_valueEPKSt18_Rb_tree_node_base
FN:544,_ZNSt8_Rb_treeIiSt4pairIKiN5Catch5Clara11CommandLineINS2_10ConfigDataEE3ArgEESt10_Select1stIS8_ESt4lessIiESaIS8_EE8_S_valueEPKSt18_Rb_tree_node_base
FN:544,_ZNSt8_Rb_treeISsSt4pairIKSsPN5Catch14IGeneratorInfoEESt10_Select1stIS5_ESt4lessISsESaIS5_EE8_S_valueEPKSt18_Rb_tree_node_base
FN:544,_ZNSt8_Rb_treeIN5Catch8TestCaseES1_St9_IdentityIS1_ESt4lessIS1_ESaIS1_EE8_S_valueEPKSt18_Rb_tree_node_base
FN:544,_ZNSt8_Rb_treeISsSt4pairIKSsN5Catch3PtrINS2_16IReporterFactoryEEEESt10_Select1stIS6_ESt4lessISsESaIS6_EE8_S_valueEPKSt18_Rb_tree_node_base
FN:544,_ZNSt8_Rb_treeISsSsSt9_IdentityISsESt4lessISsESaISsEE8_S_valueEPKSt18_Rb_tree_node_base
FN:544,_ZNSt8_Rb_treeISsSt4pairIKSsPN5Catch18IGeneratorsForTestEESt10_Select1stIS5_ESt4lessISsESaIS5_EE8_S_valueEPKSt18_Rb_tree_node_base
FN:548,_ZNSt8_Rb_treeISsSt4pairIKSsN5Catch3PtrINS2_16IReporterFactoryEEEESt10_Select1stIS6_ESt4lessISsESaIS6_EE6_S_keyEPKSt18_Rb_tree_node_base
FN:548,_ZNSt8_Rb_treeISsSsSt9_IdentityISsESt4lessISsESaISsEE6_S_keyEPKSt18_Rb_tree_node_base
FN:548,_ZNSt8_Rb_treeISsSt4pairIKSsPN5Catch18IGeneratorsForTestEESt10_Select1stIS5_ESt4lessISsESaIS5_EE6_S_keyEPKSt18_Rb_tree_node_base
FN:548,_ZNSt8_Rb_treeISsSt4pairIKSsN5Catch7TagInfoEESt10_Select1stIS4_ESt4lessISsESaIS4_EE6_S_keyEPKSt18_Rb_tree_node_base
FN:548,_ZNSt8_Rb_treeIN5Catch8TestCaseES1_St9_IdentityIS1_ESt4lessIS1_ESaIS1_EE6_S_keyEPKSt18_Rb_tree_node_base
FN:548,_ZNSt8_Rb_treeIiSt4pairIKiN5Catch5Clara11CommandLineINS2_10ConfigDataEE3ArgEESt10_Select1stIS8_ESt4lessIiESaIS8_EE6_S_keyEPKSt18_Rb_tree_node_base
FN:548,_ZNSt8_Rb_treeISsSt4pairIKSsN5Catch8TagAliasEESt10_Select1stIS4_ESt4lessISsESaIS4_EE6_S_keyEPKSt18_Rb_tree_node_base
FN:548,_ZNSt8_Rb_treeISsSt4pairIKSsPN5Catch14IGeneratorInfoEESt10_Select1stIS5_ESt4lessISsESaIS5_EE6_S_keyEPKSt18_Rb_tree_node_base
FN:552,_ZNSt8_Rb_treeISsSsSt9_IdentityISsESt4lessISsESaISsEE10_S_minimumEPSt18_Rb_tree_node_base
FN:560,_ZNSt8_Rb_treeISsSsSt9_IdentityISsESt4lessISsESaISsEE10_S_maximumEPSt18_Rb_tree_node_base
FN:648,_ZNSt8_Rb_treeIiSt4pairIKiN5Catch5Clara11CommandLineINS2_10ConfigDataEE3ArgEESt10_Select1stIS8_ESt4lessIiESaIS8_EEC2Ev
FN:648,_ZNSt8_Rb_treeISsSt4pairIKSsN5Catch7TagInfoEESt10_Select1stIS4_ESt4lessISsESaIS4_EEC2Ev
FN:648,_ZNSt8_Rb_treeIN5Catch8TestCaseES1_St9_IdentityIS1_ESt4lessIS1_ESaIS1_EEC2Ev
FN:648,_ZNSt8_Rb_treeISsSt4pairIKSsPN5Catch14IGeneratorInfoEESt10_Select1stIS5_ESt4lessISsESaIS5_EEC2Ev
FN:648,_ZNSt8_Rb_treeISsSt4pairIKSsN5Catch8TagAliasEESt10_Select1stIS4_ESt4lessISsESaIS4_EEC2Ev
FN:648,_ZNSt8_Rb_treeISsSt4pairIKSsPN5Catch18IGeneratorsForTestEESt10_Select1stIS5_ESt4lessISsESaIS5_EEC2Ev
FN:648,_ZNSt8_Rb_treeISsSsSt9_IdentityISsESt4lessISsESaISsEEC2Ev
FN:648,_ZNSt8_Rb_treeISsSt4pairIKSsN5Catch3PtrINS2_16IReporterFactoryEEEESt10_Select1stIS6_ESt4lessISsESaIS6_EEC2Ev
FN:654,_ZNSt8_Rb_treeISsSsSt9_IdentityISsESt4lessISsESaISsEEC2ERKS5_
FN:670,_ZNSt8_Rb_treeISsSt4pairIKSsPN5Catch18IGeneratorsForTestEESt10_Select1stIS5_ESt4lessISsESaIS5_EED2Ev
FN:670,_ZNSt8_Rb_treeISsSt4pairIKSsPN5Catch14IGeneratorInfoEESt10_Select1stIS5_ESt4lessISsESaIS5_EED2Ev
FN:670,_ZNSt8_Rb_treeISsSsSt9_IdentityISsESt4lessISsESaISsEED2Ev
FN:670,_ZNSt8_Rb_treeIiSt4pairIKiN5Catch5Clara11CommandLineINS2_10ConfigDataEE3ArgEESt10_Select1stIS8_ESt4lessIiESaIS8_EED2Ev
FN:670,_ZNSt8_Rb_treeISsSt4pairIKSsN5Catch7TagInfoEESt10_Select1stIS4_ESt4lessISsESaIS4_EED2Ev
FN:670,_ZNSt8_Rb_treeIN5Catch8TestCaseES1_St9_IdentityIS1_ESt4lessIS1_ESaIS1_EED2Ev
FN:670,_ZNSt8_Rb_treeISsSt4pairIKSsN5Catch3PtrINS2_16IReporterFactoryEEEESt10_Select1stIS6_ESt4lessISsESaIS6_EED2Ev
FN:670,_ZNSt8_Rb_treeISsSt4pairIKSsN5Catch8TagAliasEESt10_Select1stIS4_ESt4lessISsESaIS4_EED2Ev
FN:682,_ZNSt8_Rb_treeISsSt4pairIKSsPN5Catch18IGeneratorsForTestEESt10_Select1stIS5_ESt4lessISsESaIS5_EE5beginEv
FN:682,_ZNSt8_Rb_treeISsSt4pairIKSsPN5Catch14IGeneratorInfoEESt10_Select1stIS5_ESt4lessISsESaIS5_EE5beginEv
FN:682,_ZNSt8_Rb_treeISsSt4pairIKSsN5Catch3PtrINS2_16IReporterFactoryEEEESt10_Select1stIS6_ESt4lessISsESaIS6_EE5beginEv
FN:682,_ZNSt8_Rb_treeISsSsSt9_IdentityISsESt4lessISsESaISsEE5beginEv
FN:682,_ZNSt8_Rb_treeISsSt4pairIKSsN5Catch8TagAliasEESt10_Select1stIS4_ESt4lessISsESaIS4_EE5beginEv
FN:682,_ZNSt8_Rb_treeIN5Catch8TestCaseES1_St9_IdentityIS1_ESt4lessIS1_ESaIS1_EE5beginEv
FN:682,_ZNSt8_Rb_treeISsSt4pairIKSsN5Catch7TagInfoEESt10_Select1stIS4_ESt4lessISsESaIS4_EE5beginEv
FN:689,_ZNKSt8_Rb_treeISsSt4pairIKSsN5Catch3PtrINS2_16IReporterFactoryEEEESt10_Select1stIS6_ESt4lessISsESaIS6_EE5beginEv
FN:689,_ZNKSt8_Rb_treeISsSsSt9_IdentityISsESt4lessISsESaISsEE5beginEv
FN:689,_ZNKSt8_Rb_treeISsSt4pairIKSsN5Catch8TagAliasEESt10_Select1stIS4_ESt4lessISsESaIS4_EE5beginEv
FN:696,_ZNSt8_Rb_treeISsSt4pairIKSsN5Catch7TagInfoEESt10_Select1stIS4_ESt4lessISsESaIS4_EE3endEv
FN:696,_ZNSt8_Rb_treeISsSt4pairIKSsPN5Catch18IGeneratorsForTestEESt10_Select1stIS5_ESt4lessISsESaIS5_EE3endEv
FN:696,_ZNSt8_Rb_treeISsSt4pairIKSsPN5Catch14IGeneratorInfoEESt10_Select1stIS5_ESt4lessISsESaIS5_EE3endEv
FN:700,_ZNKSt8_Rb_treeISsSt4pairIKSsN5Catch8TagAliasEESt10_Select1stIS4_ESt4lessISsESaIS4_EE3endEv
FN:700,_ZNKSt8_Rb_treeIiSt4pairIKiN5Catch5Clara11CommandLineINS2_10ConfigDataEE3ArgEESt10_Select1stIS8_ESt4lessIiESaIS8_EE3endEv
FN:700,_ZNKSt8_Rb_treeISsSt4pairIKSsN5Catch3PtrINS2_16IReporterFactoryEEEESt10_Select1stIS6_ESt4lessISsESaIS6_EE3endEv
FN:700,_ZNKSt8_Rb_treeISsSsSt9_IdentityISsESt4lessISsESaISsEE3endEv
FN:723,_ZNKSt8_Rb_treeISsSsSt9_IdentityISsESt4lessISsESaISsEE5emptyEv
FN:723,_ZNKSt8_Rb_treeIiSt4pairIKiN5Catch5Clara11CommandLineINS2_10ConfigDataEE3ArgEESt10_Select1stIS8_ESt4lessIiESaIS8_EE5emptyEv
FN:727,_ZNKSt8_Rb_treeISsSt4pairIKSsN5Catch3PtrINS2_16IReporterFactoryEEEESt10_Select1stIS6_ESt4lessISsESaIS6_EE4sizeEv
FN:727,_ZNKSt8_Rb_treeISsSt4pairIKSsN5Catch7TagInfoEESt10_Select1stIS4_ESt4lessISsESaIS4_EE4sizeEv
FN:858,_ZNSt8_Rb_treeISsSsSt9_IdentityISsESt4lessISsESaISsEE5clearEv
FN:962,_ZNSt8_Rb_treeISsSsSt9_IdentityISsESt4lessISsESaISsEEC2EOS5_
FN:987,_ZNSt8_Rb_treeISsSsSt9_IdentityISsESt4lessISsESaISsEEaSERKS5_
FN:1012,_ZNSt8_Rb_treeISsSt4pairIKSsN5Catch7TagInfoEESt10_Select1stIS4_ESt4lessISsESaIS4_EE10_M_insert_IS0_ISsS3_EEESt17_Rb_tree_iteratorIS4_EPSt18_Rb_tree_node_baseSG_OT_
FN:1012,_ZNSt8_Rb_treeISsSt4pairIKSsN5Catch8TagAliasEESt10_Select1stIS4_ESt4lessISsESaIS4_EE10_M_insert_IS0_IPKcS3_EEESt17_Rb_tree_iteratorIS4_EPSt18_Rb_tree_node_baseSI_OT_
FN:1012,_ZNSt8_Rb_treeIN5Catch8TestCaseES1_St9_IdentityIS1_ESt4lessIS1_ESaIS1_EE10_M_insert_IRKS1_EESt17_Rb_tree_iteratorIS1_EPSt18_Rb_tree_node_baseSE_OT_
FN:1012,_ZNSt8_Rb_treeISsSsSt9_IdentityISsESt4lessISsESaISsEE10_M_insert_IRKSsEESt17_Rb_tree_iteratorISsEPSt18_Rb_tree_node_baseSC_OT_
FN:1012,_ZNSt8_Rb_treeISsSt4pairIKSsPN5Catch18IGeneratorsForTestEESt10_Select1stIS5_ESt4lessISsESaIS5_EE10_M_insert_IS0_ISsS4_EEESt17_Rb_tree_iteratorIS5_EPSt18_Rb_tree_node_baseSH_OT_
FN:1012,_ZNSt8_Rb_treeISsSsSt9_IdentityISsESt4lessISsESaISsEE10_M_insert_ISsEESt17_Rb_tree_iteratorISsEPSt18_Rb_tree_node_baseSA_OT_
FN:1012,_ZNSt8_Rb_treeISsSt4pairIKSsN5Catch3PtrINS2_16IReporterFactoryEEEESt10_Select1stIS6_ESt4lessISsESaIS6_EE10_M_insert_IS0_ISsS5_EEESt17_Rb_tree_iteratorIS6_EPSt18_Rb_tree_node_baseSI_OT_
FN:1012,_ZNSt8_Rb_treeISsSt4pairIKSsPN5Catch14IGeneratorInfoEESt10_Select1stIS5_ESt4lessISsESaIS5_EE10_M_insert_IS0_ISsS4_EEESt17_Rb_tree_iteratorIS5_EPSt18_Rb_tree_node_baseSH_OT_
FN:1083,_ZNSt8_Rb_treeISsSsSt9_IdentityISsESt4lessISsESaISsEE7_M_copyEPKSt13_Rb_tree_nodeISsEPS7_
FN:1119,_ZNSt8_Rb_treeIN5Catch8TestCaseES1_St9_IdentityIS1_ESt4lessIS1_ESaIS1_EE8_M_eraseEPSt13_Rb_tree_nodeIS1_E
FN:1119,_ZNSt8_Rb_treeIiSt4pairIKiN5Catch5Clara11CommandLineINS2_10ConfigDataEE3ArgEESt10_Select1stIS8_ESt4lessIiESaIS8_EE8_M_eraseEPSt13_Rb_tree_nodeIS8_E
FN:1119,_ZNSt8_Rb_treeISsSt4pairIKSsPN5Catch18IGeneratorsForTestEESt10_Select1stIS5_ESt4lessISsESaIS5_EE8_M_eraseEPSt13_Rb_tree_nodeIS5_E
FN:1119,_ZNSt8_Rb_treeISsSt4pairIKSsPN5Catch14IGeneratorInfoEESt10_Select1stIS5_ESt4lessISsESaIS5_EE8_M_eraseEPSt13_Rb_tree_nodeIS5_E
FN:1119,_ZNSt8_Rb_treeISsSt4pairIKSsN5Catch7TagInfoEESt10_Select1stIS4_ESt4lessISsESaIS4_EE8_M_eraseEPSt13_Rb_tree_nodeIS4_E
FN:1119,_ZNSt8_Rb_treeISsSt4pairIKSsN5Catch8TagAliasEESt10_Select1stIS4_ESt4lessISsESaIS4_EE8_M_eraseEPSt13_Rb_tree_nodeIS4_E
FN:1119,_ZNSt8_Rb_treeISsSt4pairIKSsN5Catch3PtrINS2_16IReporterFactoryEEEESt10_Select1stIS6_ESt4lessISsESaIS6_EE8_M_eraseEPSt13_Rb_tree_nodeIS6_E
FN:1119,_ZNSt8_Rb_treeISsSsSt9_IdentityISsESt4lessISsESaISsEE8_M_eraseEPSt13_Rb_tree_nodeISsE
FN:1136,_ZNSt8_Rb_treeISsSt4pairIKSsPN5Catch14IGeneratorInfoEESt10_Select1stIS5_ESt4lessISsESaIS5_EE14_M_lower_boundEPSt13_Rb_tree_nodeIS5_ESE_RS1_
FN:1136,_ZNSt8_Rb_treeISsSt4pairIKSsN5Catch7TagInfoEESt10_Select1stIS4_ESt4lessISsESaIS4_EE14_M_lower_boundEPSt13_Rb_tree_nodeIS4_ESD_RS1_
FN:1136,_ZNSt8_Rb_treeISsSt4pairIKSsPN5Catch18IGeneratorsForTestEESt10_Select1stIS5_ESt4lessISsESaIS5_EE14_M_lower_boundEPSt13_Rb_tree_nodeIS5_ESE_RS1_
FN:1152,_ZNKSt8_Rb_treeIiSt4pairIKiN5Catch5Clara11CommandLineINS2_10ConfigDataEE3ArgEESt10_Select1stIS8_ESt4lessIiESaIS8_EE14_M_lower_boundEPKSt13_Rb_tree_nodeIS8_ESI_RS1_
FN:1152,_ZNKSt8_Rb_treeISsSsSt9_IdentityISsESt4lessISsESaISsEE14_M_lower_boundEPKSt13_Rb_tree_nodeISsES9_RKSs
FN:1152,_ZNKSt8_Rb_treeISsSt4pairIKSsN5Catch3PtrINS2_16IReporterFactoryEEEESt10_Select1stIS6_ESt4lessISsESaIS6_EE14_M_lower_boundEPKSt13_Rb_tree_nodeIS6_ESG_RS1_
FN:1152,_ZNKSt8_Rb_treeISsSt4pairIKSsN5Catch8TagAliasEESt10_Select1stIS4_ESt4lessISsESaIS4_EE14_M_lower_boundEPKSt13_Rb_tree_nodeIS4_ESE_RS1_
FN:1261,_ZNSt8_Rb_treeISsSsSt9_IdentityISsESt4lessISsESaISsEE4swapERS5_
FN:1314,_ZNSt8_Rb_treeISsSsSt9_IdentityISsESt4lessISsESaISsEE24_M_get_insert_unique_posERKSs
FN:1314,_ZNSt8_Rb_treeISsSt4pairIKSsN5Catch7TagInfoEESt10_Select1stIS4_ESt4lessISsESaIS4_EE24_M_get_insert_unique_posERS1_
FN:1314,_ZNSt8_Rb_treeISsSt4pairIKSsN5Catch3PtrINS2_16IReporterFactoryEEEESt10_Select1stIS6_ESt4lessISsESaIS6_EE24_M_get_insert_unique_posERS1_
FN:1314,_ZNSt8_Rb_treeISsSt4pairIKSsN5Catch8TagAliasEESt10_Select1stIS4_ESt4lessISsESaIS4_EE24_M_get_insert_unique_posERS1_
FN:1314,_ZNSt8_Rb_treeISsSt4pairIKSsPN5Catch18IGeneratorsForTestEESt10_Select1stIS5_ESt4lessISsESaIS5_EE24_M_get_insert_unique_posERS1_
FN:1314,_ZNSt8_Rb_treeIN5Catch8TestCaseES1_St9_IdentityIS1_ESt4lessIS1_ESaIS1_EE24_M_get_insert_unique_posERKS1_
FN:1314,_ZNSt8_Rb_treeISsSt4pairIKSsPN5Catch14IGeneratorInfoEESt10_Select1stIS5_ESt4lessISsESaIS5_EE24_M_get_insert_unique_posERS1_
FN:1368,_ZNSt8_Rb_treeISsSt4pairIKSsPN5Catch18IGeneratorsForTestEESt10_Select1stIS5_ESt4lessISsESaIS5_EE16_M_insert_uniqueIS0_ISsS4_EEES0_ISt17_Rb_tree_iteratorIS5_EbEOT_
FN:1368,_ZNSt8_Rb_treeIN5Catch8TestCaseES1_St9_IdentityIS1_ESt4lessIS1_ESaIS1_EE16_M_insert_uniqueIRKS1_EESt4pairISt17_Rb_tree_iteratorIS1_EbEOT_
FN:1368,_ZNSt8_Rb_treeISsSt4pairIKSsN5Catch8TagAliasEESt10_Select1stIS4_ESt4lessISsESaIS4_EE16_M_insert_uniqueIS0_IPKcS3_EEES0_ISt17_Rb_tree_iteratorIS4_EbEOT_
FN:1368,_ZNSt8_Rb_treeISsSt4pairIKSsN5Catch7TagInfoEESt10_Select1stIS4_ESt4lessISsESaIS4_EE16_M_insert_uniqueIS0_ISsS3_EEES0_ISt17_Rb_tree_iteratorIS4_EbEOT_
FN:1368,_ZNSt8_Rb_treeISsSsSt9_IdentityISsESt4lessISsESaISsEE16_M_insert_uniqueISsEESt4pairISt17_Rb_tree_iteratorISsEbEOT_
FN:1368,_ZNSt8_Rb_treeISsSt4pairIKSsPN5Catch14IGeneratorInfoEESt10_Select1stIS5_ESt4lessISsESaIS5_EE16_M_insert_uniqueIS0_ISsS4_EEES0_ISt17_Rb_tree_iteratorIS5_EbEOT_
FN:1368,_ZNSt8_Rb_treeISsSsSt9_IdentityISsESt4lessISsESaISsEE16_M_insert_uniqueIRKSsEESt4pairISt17_Rb_tree_iteratorISsEbEOT_
FN:1368,_ZNSt8_Rb_treeISsSt4pairIKSsN5Catch3PtrINS2_16IReporterFactoryEEEESt10_Select1stIS6_ESt4lessISsESaIS6_EE16_M_insert_uniqueIS0_ISsS5_EEES0_ISt17_Rb_tree_iteratorIS6_EbEOT_
FN:1789,_ZNSt8_Rb_treeISsSt4pairIKSsPN5Catch18IGeneratorsForTestEESt10_Select1stIS5_ESt4lessISsESaIS5_EE4findERS1_
FN:1789,_ZNSt8_Rb_treeISsSt4pairIKSsPN5Catch14IGeneratorInfoEESt10_Select1stIS5_ESt4lessISsESaIS5_EE4findERS1_
FN:1789,_ZNSt8_Rb_treeISsSt4pairIKSsN5Catch7TagInfoEESt10_Select1stIS4_ESt4lessISsESaIS4_EE4findERS1_
FN:1802,_ZNKSt8_Rb_treeIiSt4pairIKiN5Catch5Clara11CommandLineINS2_10ConfigDataEE3ArgEESt10_Select1stIS8_ESt4lessIiESaIS8_EE4findERS1_
FN:1802,_ZNKSt8_Rb_treeISsSt4pairIKSsN5Catch3PtrINS2_16IReporterFactoryEEEESt10_Select1stIS6_ESt4lessISsESaIS6_EE4findERS1_
FN:1802,_ZNKSt8_Rb_treeISsSsSt9_IdentityISsESt4lessISsESaISsEE4findERKSs
FN:1802,_ZNKSt8_Rb_treeISsSt4pairIKSsN5Catch8TagAliasEESt10_Select1stIS4_ESt4lessISsESaIS4_EE4findERS1_
FNDA:32,_ZNSt18_Rb_tree_node_base10_S_minimumEPS_
FNDA:32,_ZNSt18_Rb_tree_node_base10_S_maximumEPS_
FNDA:0,_ZNSt13_Rb_tree_nodeISt4pairIKSsN5Catch8TagAliasEEED2Ev
FNDA:0,_ZNSt13_Rb_tree_nodeISt4pairIKSsPN5Catch14IGeneratorInfoEEED2Ev
FNDA:0,_ZNSt13_Rb_tree_nodeISt4pairIKSsPN5Catch18IGeneratorsForTestEEED2Ev
FNDA:4,_ZNSt13_Rb_tree_nodeISt4pairIKSsN5Catch3PtrINS2_16IReporterFactoryEEEEED2Ev
FNDA:2,_ZNSt13_Rb_tree_nodeIN5Catch8TestCaseEED2Ev
FNDA:0,_ZNSt13_Rb_tree_nodeISt4pairIKSsN5Catch7TagInfoEEED2Ev
FNDA:36,_ZNSt13_Rb_tree_nodeISsED2Ev
FNDA:0,_ZNSt13_Rb_tree_nodeISt4pairIKiN5Catch5Clara11CommandLineINS2_10ConfigDataEE3ArgEEED2Ev
FNDA:0,_ZNSt13_Rb_tree_nodeISt4pairIKSsN5Catch8TagAliasEEEC2IIS0_IPKcS3_EEEEDpOT_
FNDA:0,_ZNSt13_Rb_tree_nodeISt4pairIKSsPN5Catch14IGeneratorInfoEEEC2IIS0_ISsS4_EEEEDpOT_
FNDA:0,_ZNSt13_Rb_tree_nodeISt4pairIKSsPN5Catch18IGeneratorsForTestEEEC2IIS0_ISsS4_EEEEDpOT_
FNDA:4,_ZNSt13_Rb_tree_nodeISt4pairIKSsN5Catch3PtrINS2_16IReporterFactoryEEEEEC2IIS0_ISsS5_EEEEDpOT_
FNDA:2,_ZNSt13_Rb_tree_nodeIN5Catch8TestCaseEEC2IIRKS1_EEEDpOT_
FNDA:0,_ZNSt13_Rb_tree_nodeISsEC2IISsEEEDpOT_
FNDA:0,_ZNSt13_Rb_tree_nodeISt4pairIKSsN5Catch7TagInfoEEEC2IIS0_ISsS3_EEEEDpOT_
FNDA:36,_ZNSt13_Rb_tree_nodeISsEC2IIRKSsEEEDpOT_
FNDA:0,_ZNSt17_Rb_tree_iteratorISt4pairIKSsN5Catch8TagAliasEEEC2EPSt13_Rb_tree_nodeIS4_E
FNDA:0,_ZNSt17_Rb_tree_iteratorISt4pairIKSsPN5Catch14IGeneratorInfoEEEC2EPSt13_Rb_tree_nodeIS5_E
FNDA:10,_ZNSt17_Rb_tree_iteratorISt4pairIKSsPN5Catch18IGeneratorsForTestEEEC2EPSt13_Rb_tree_nodeIS5_E
FNDA:12,_ZNSt17_Rb_tree_iteratorISt4pairIKSsN5Catch3PtrINS2_16IReporterFactoryEEEEEC2EPSt13_Rb_tree_nodeIS6_E
FNDA:5,_ZNSt17_Rb_tree_iteratorIN5Catch8TestCaseEEC2EPSt13_Rb_tree_nodeIS1_E
FNDA:0,_ZNSt17_Rb_tree_iteratorISt4pairIKSsN5Catch7TagInfoEEEC2EPSt13_Rb_tree_nodeIS4_E
FNDA:12,_ZNSt17_Rb_tree_iteratorISsEC2EPSt13_Rb_tree_nodeISsE
FNDA:0,_ZNKSt17_Rb_tree_iteratorISt4pairIKSsN5Catch7TagInfoEEEptEv
FNDA:0,_ZNSt17_Rb_tree_iteratorISt4pairIKSsN5Catch8TagAliasEEEmmEv
FNDA:0,_ZNSt17_Rb_tree_iteratorISt4pairIKSsPN5Catch14IGeneratorInfoEEEmmEv
FNDA:0,_ZNSt17_Rb_tree_iteratorISt4pairIKSsPN5Catch18IGeneratorsForTestEEEmmEv
FNDA:0,_ZNSt17_Rb_tree_iteratorISt4pairIKSsN5Catch3PtrINS2_16IReporterFactoryEEEEEmmEv
FNDA:0,_ZNSt17_Rb_tree_iteratorIN5Catch8TestCaseEEmmEv
FNDA:0,_ZNSt17_Rb_tree_iteratorISt4pairIKSsN5Catch7TagInfoEEEmmEv
FNDA:0,_ZNSt17_Rb_tree_iteratorISsEmmEv
FNDA:0,_ZNKSt17_Rb_tree_iteratorISt4pairIKSsN5Catch8TagAliasEEEeqERKS5_
FNDA:4,_ZNKSt17_Rb_tree_iteratorISt4pairIKSsN5Catch3PtrINS2_16IReporterFactoryEEEEEeqERKS7_
FNDA:1,_ZNKSt17_Rb_tree_iteratorIN5Catch8TestCaseEEeqERKS2_
FNDA:4,_ZNKSt17_Rb_tree_iteratorISsEeqERKS0_
FNDA:0,_ZNKSt17_Rb_tree_iteratorISt4pairIKSsPN5Catch14IGeneratorInfoEEEeqERKS6_
FNDA:2,_ZNKSt17_Rb_tree_iteratorISt4pairIKSsPN5Catch18IGeneratorsForTestEEEeqERKS6_
FNDA:0,_ZNKSt17_Rb_tree_iteratorISt4pairIKSsN5Catch7TagInfoEEEeqERKS5_
FNDA:0,_ZNSt23_Rb_tree_const_iteratorISt4pairIKSsN5Catch3PtrINS2_16IReporterFactoryEEEEEC2Ev
FNDA:0,_ZNSt23_Rb_tree_const_iteratorISt4pairIKiN5Catch5Clara11CommandLineINS2_10ConfigDataEE3ArgEEEC2EPKSt13_Rb_tree_nodeIS8_E
FNDA:2,_ZNSt23_Rb_tree_const_iteratorISt4pairIKSsN5Catch8TagAliasEEEC2EPKSt13_Rb_tree_nodeIS4_E
FNDA:3,_ZNSt23_Rb_tree_const_iteratorISt4pairIKSsN5Catch3PtrINS2_16IReporterFactoryEEEEEC2EPKSt13_Rb_tree_nodeIS6_E
FNDA:12,_ZNSt23_Rb_tree_const_iteratorISsEC2EPKSt13_Rb_tree_nodeISsE
FNDA:2,_ZNSt23_Rb_tree_const_iteratorIN5Catch8TestCaseEEC2ERKSt17_Rb_tree_iteratorIS1_E
FNDA:4,_ZNSt23_Rb_tree_const_iteratorISsEC2ERKSt17_Rb_tree_iteratorISsE
FNDA:0,_ZNSt23_Rb_tree_const_iteratorISt4pairIKSsPN5Catch14IGeneratorInfoEEEC2ERKSt17_Rb_tree_iteratorIS5_E
FNDA:6,_ZNSt23_Rb_tree_const_iteratorISt4pairIKSsPN5Catch18IGeneratorsForTestEEEC2ERKSt17_Rb_tree_iteratorIS5_E
FNDA:0,_ZNSt23_Rb_tree_const_iteratorISt4pairIKSsN5Catch7TagInfoEEEC2ERKSt17_Rb_tree_iteratorIS4_E
FNDA:4,_ZNKSt23_Rb_tree_const_iteratorISsEdeEv
FNDA:0,_ZNKSt23_Rb_tree_const_iteratorISt4pairIKiN5Catch5Clara11CommandLineINS2_10ConfigDataEE3ArgEEEptEv
FNDA:0,_ZNKSt23_Rb_tree_const_iteratorISt4pairIKSsN5Catch8TagAliasEEEptEv
FNDA:0,_ZNKSt23_Rb_tree_const_iteratorISt4pairIKSsPN5Catch14IGeneratorInfoEEEptEv
FNDA:0,_ZNKSt23_Rb_tree_const_iteratorISt4pairIKSsPN5Catch18IGeneratorsForTestEEEptEv
FNDA:0,_ZNKSt23_Rb_tree_const_iteratorIN5Catch8TestCaseEEptEv
FNDA:1,_ZNKSt23_Rb_tree_const_iteratorISt4pairIKSsN5Catch3PtrINS2_16IReporterFactoryEEEEEptEv
FNDA:0,_ZNKSt23_Rb_tree_const_iteratorISt4pairIKSsN5Catch7TagInfoEEEptEv
FNDA:0,_ZNSt23_Rb_tree_const_iteratorISt4pairIKSsPN5Catch18IGeneratorsForTestEEEppEv
FNDA:0,_ZNSt23_Rb_tree_const_iteratorISt4pairIKSsN5Catch8TagAliasEEEppEv
FNDA:0,_ZNSt23_Rb_tree_const_iteratorISt4pairIKSsN5Catch3PtrINS2_16IReporterFactoryEEEEEppEv
FNDA:0,_ZNSt23_Rb_tree_const_iteratorISt4pairIKSsN5Catch7TagInfoEEEppEv
FNDA:2,_ZNSt23_Rb_tree_const_iteratorISsEppEv
FNDA:0,_ZNKSt23_Rb_tree_const_iteratorISt4pairIKiN5Catch5Clara11CommandLineINS2_10ConfigDataEE3ArgEEEeqERKS9_
FNDA:0,_ZNKSt23_Rb_tree_const_iteratorISt4pairIKSsN5Catch8TagAliasEEEeqERKS5_
FNDA:2,_ZNKSt23_Rb_tree_const_iteratorISsEeqERKS0_
FNDA:0,_ZNKSt23_Rb_tree_const_iteratorISt4pairIKSsPN5Catch14IGeneratorInfoEEEeqERKS6_
FNDA:2,_ZNKSt23_Rb_tree_const_iteratorISt4pairIKSsN5Catch3PtrINS2_16IReporterFactoryEEEEEeqERKS7_
FNDA:0,_ZNKSt23_Rb_tree_const_iteratorISt4pairIKiN5Catch5Clara11CommandLineINS2_10ConfigDataEE3ArgEEEneERKS9_
FNDA:1,_ZNKSt23_Rb_tree_const_iteratorISt4pairIKSsN5Catch8TagAliasEEEneERKS5_
FNDA:3,_ZNKSt23_Rb_tree_const_iteratorISt4pairIKSsPN5Catch18IGeneratorsForTestEEEneERKS6_
FNDA:0,_ZNKSt23_Rb_tree_const_iteratorISt4pairIKSsN5Catch3PtrINS2_16IReporterFactoryEEEEEneERKS7_
FNDA:0,_ZNKSt23_Rb_tree_const_iteratorISt4pairIKSsN5Catch7TagInfoEEEneERKS5_
FNDA:6,_ZNKSt23_Rb_tree_const_iteratorISsEneERKS0_
FNDA:0,_ZNSt8_Rb_treeISsSt4pairIKSsN5Catch8TagAliasEESt10_Select1stIS4_ESt4lessISsESaIS4_EE21_M_get_Node_allocatorEv
FNDA:0,_ZNSt8_Rb_treeISsSt4pairIKSsPN5Catch14IGeneratorInfoEESt10_Select1stIS5_ESt4lessISsESaIS5_EE21_M_get_Node_allocatorEv
FNDA:0,_ZNSt8_Rb_treeISsSt4pairIKSsPN5Catch18IGeneratorsForTestEESt10_Select1stIS5_ESt4lessISsESaIS5_EE21_M_get_Node_allocatorEv
FNDA:8,_ZNSt8_Rb_treeISsSt4pairIKSsN5Catch3PtrINS2_16IReporterFactoryEEEESt10_Select1stIS6_ESt4lessISsESaIS6_EE21_M_get_Node_allocatorEv
FNDA:4,_ZNSt8_Rb_treeIN5Catch8TestCaseES1_St9_IdentityIS1_ESt4lessIS1_ESaIS1_EE21_M_get_Node_allocatorEv
FNDA:0,_ZNSt8_Rb_treeISsSt4pairIKSsN5Catch7TagInfoEESt10_Select1stIS4_ESt4lessISsESaIS4_EE21_M_get_Node_allocatorEv
FNDA:0,_ZNSt8_Rb_treeIiSt4pairIKiN5Catch5Clara11CommandLineINS2_10ConfigDataEE3ArgEESt10_Select1stIS8_ESt4lessIiESaIS8_EE21_M_get_Node_allocatorEv
FNDA:72,_ZNSt8_Rb_treeISsSsSt9_IdentityISsESt4lessISsESaISsEE21_M_get_Node_allocatorEv
FNDA:30,_ZNKSt8_Rb_treeISsSsSt9_IdentityISsESt4lessISsESaISsEE21_M_get_Node_allocatorEv
FNDA:0,_ZNSt8_Rb_treeISsSt4pairIKSsN5Catch8TagAliasEESt10_Select1stIS4_ESt4lessISsESaIS4_EE11_M_get_nodeEv
FNDA:0,_ZNSt8_Rb_treeISsSt4pairIKSsPN5Catch14IGeneratorInfoEESt10_Select1stIS5_ESt4lessISsESaIS5_EE11_M_get_nodeEv
FNDA:0,_ZNSt8_Rb_treeISsSt4pairIKSsPN5Catch18IGeneratorsForTestEESt10_Select1stIS5_ESt4lessISsESaIS5_EE11_M_get_nodeEv
FNDA:4,_ZNSt8_Rb_treeISsSt4pairIKSsN5Catch3PtrINS2_16IReporterFactoryEEEESt10_Select1stIS6_ESt4lessISsESaIS6_EE11_M_get_nodeEv
FNDA:2,_ZNSt8_Rb_treeIN5Catch8TestCaseES1_St9_IdentityIS1_ESt4lessIS1_ESaIS1_EE11_M_get_nodeEv
FNDA:0,_ZNSt8_Rb_treeISsSt4pairIKSsN5Catch7TagInfoEESt10_Select1stIS4_ESt4lessISsESaIS4_EE11_M_get_nodeEv
FNDA:36,_ZNSt8_Rb_treeISsSsSt9_IdentityISsESt4lessISsESaISsEE11_M_get_nodeEv
FNDA:0,_ZNSt8_Rb_treeISsSt4pairIKSsN5Catch8TagAliasEESt10_Select1stIS4_ESt4lessISsESaIS4_EE11_M_put_nodeEPSt13_Rb_tree_nodeIS4_E
FNDA:0,_ZNSt8_Rb_treeISsSt4pairIKSsPN5Catch14IGeneratorInfoEESt10_Select1stIS5_ESt4lessISsESaIS5_EE11_M_put_nodeEPSt13_Rb_tree_nodeIS5_E
FNDA:0,_ZNSt8_Rb_treeISsSt4pairIKSsPN5Catch18IGeneratorsForTestEESt10_Select1stIS5_ESt4lessISsESaIS5_EE11_M_put_nodeEPSt13_Rb_tree_nodeIS5_E
FNDA:4,_ZNSt8_Rb_treeISsSt4pairIKSsN5Catch3PtrINS2_16IReporterFactoryEEEESt10_Select1stIS6_ESt4lessISsESaIS6_EE11_M_put_nodeEPSt13_Rb_tree_nodeIS6_E
FNDA:2,_ZNSt8_Rb_treeIN5Catch8TestCaseES1_St9_IdentityIS1_ESt4lessIS1_ESaIS1_EE11_M_put_nodeEPSt13_Rb_tree_nodeIS1_E
FNDA:0,_ZNSt8_Rb_treeISsSt4pairIKSsN5Catch7TagInfoEESt10_Select1stIS4_ESt4lessISsESaIS4_EE11_M_put_nodeEPSt13_Rb_tree_nodeIS4_E
FNDA:36,_ZNSt8_Rb_treeISsSsSt9_IdentityISsESt4lessISsESaISsEE11_M_put_nodeEPSt13_Rb_tree_nodeISsE
FNDA:0,_ZNSt8_Rb_treeIiSt4pairIKiN5Catch5Clara11CommandLineINS2_10ConfigDataEE3ArgEESt10_Select1stIS8_ESt4lessIiESaIS8_EE11_M_put_nodeEPSt13_Rb_tree_nodeIS8_E
FNDA:0,_ZNSt8_Rb_treeISsSt4pairIKSsN5Catch8TagAliasEESt10_Select1stIS4_ESt4lessISsESaIS4_EE14_M_create_nodeIIS0_IPKcS3_EEEEPSt13_Rb_tree_nodeIS4_EDpOT_
FNDA:0,_ZNSt8_Rb_treeISsSt4pairIKSsPN5Catch14IGeneratorInfoEESt10_Select1stIS5_ESt4lessISsESaIS5_EE14_M_create_nodeIIS0_ISsS4_EEEEPSt13_Rb_tree_nodeIS5_EDpOT_
FNDA:0,_ZNSt8_Rb_treeISsSt4pairIKSsPN5Catch18IGeneratorsForTestEESt10_Select1stIS5_ESt4lessISsESaIS5_EE14_M_create_nodeIIS0_ISsS4_EEEEPSt13_Rb_tree_nodeIS5_EDpOT_
FNDA:4,_ZNSt8_Rb_treeISsSt4pairIKSsN5Catch3PtrINS2_16IReporterFactoryEEEESt10_Select1stIS6_ESt4lessISsESaIS6_EE14_M_create_nodeIIS0_ISsS5_EEEEPSt13_Rb_tree_nodeIS6_EDpOT_
FNDA:2,_ZNSt8_Rb_treeIN5Catch8TestCaseES1_St9_IdentityIS1_ESt4lessIS1_ESaIS1_EE14_M_create_nodeIIRKS1_EEEPSt13_Rb_tree_nodeIS1_EDpOT_
FNDA:0,_ZNSt8_Rb_treeISsSsSt9_IdentityISsESt4lessISsESaISsEE14_M_create_nodeIISsEEEPSt13_Rb_tree_nodeISsEDpOT_
FNDA:0,_ZNSt8_Rb_treeISsSt4pairIKSsN5Catch7TagInfoEESt10_Select1stIS4_ESt4lessISsESaIS4_EE14_M_create_nodeIIS0_ISsS3_EEEEPSt13_Rb_tree_nodeIS4_EDpOT_
FNDA:36,_ZNSt8_Rb_treeISsSsSt9_IdentityISsESt4lessISsESaISsEE14_M_create_nodeIIRKSsEEEPSt13_Rb_tree_nodeISsEDpOT_
FNDA:0,_ZNSt8_Rb_treeISsSt4pairIKSsN5Catch8TagAliasEESt10_Select1stIS4_ESt4lessISsESaIS4_EE15_M_destroy_nodeEPSt13_Rb_tree_nodeIS4_E
FNDA:0,_ZNSt8_Rb_treeISsSt4pairIKSsPN5Catch14IGeneratorInfoEESt10_Select1stIS5_ESt4lessISsESaIS5_EE15_M_destroy_nodeEPSt13_Rb_tree_nodeIS5_E
FNDA:0,_ZNSt8_Rb_treeISsSt4pairIKSsPN5Catch18IGeneratorsForTestEESt10_Select1stIS5_ESt4lessISsESaIS5_EE15_M_destroy_nodeEPSt13_Rb_tree_nodeIS5_E
FNDA:4,_ZNSt8_Rb_treeISsSt4pairIKSsN5Catch3PtrINS2_16IReporterFactoryEEEESt10_Select1stIS6_ESt4lessISsESaIS6_EE15_M_destroy_nodeEPSt13_Rb_tree_nodeIS6_E
FNDA:2,_ZNSt8_Rb_treeIN5Catch8TestCaseES1_St9_IdentityIS1_ESt4lessIS1_ESaIS1_EE15_M_destroy_nodeEPSt13_Rb_tree_nodeIS1_E
FNDA:0,_ZNSt8_Rb_treeISsSt4pairIKSsN5Catch7TagInfoEESt10_Select1stIS4_ESt4lessISsESaIS4_EE15_M_destroy_nodeEPSt13_Rb_tree_nodeIS4_E
FNDA:36,_ZNSt8_Rb_treeISsSsSt9_IdentityISsESt4lessISsESaISsEE15_M_destroy_nodeEPSt13_Rb_tree_nodeISsE
FNDA:0,_ZNSt8_Rb_treeIiSt4pairIKiN5Catch5Clara11CommandLineINS2_10ConfigDataEE3ArgEESt10_Select1stIS8_ESt4lessIiESaIS8_EE15_M_destroy_nodeEPSt13_Rb_tree_nodeIS8_E
FNDA:32,_ZNSt8_Rb_treeISsSsSt9_IdentityISsESt4lessISsESaISsEE13_M_clone_nodeEPKSt13_Rb_tree_nodeISsE
FNDA:1,_ZNSt8_Rb_treeISsSt4pairIKSsN5Catch8TagAliasEESt10_Select1stIS4_ESt4lessISsESaIS4_EE13_Rb_tree_implIS8_Lb1EED2Ev
FNDA:0,_ZNSt8_Rb_treeISsSt4pairIKSsPN5Catch14IGeneratorInfoEESt10_Select1stIS5_ESt4lessISsESaIS5_EE13_Rb_tree_implIS9_Lb1EED2Ev
FNDA:1,_ZNSt8_Rb_treeISsSt4pairIKSsPN5Catch18IGeneratorsForTestEESt10_Select1stIS5_ESt4lessISsESaIS5_EE13_Rb_tree_implIS9_Lb1EED2Ev
FNDA:1,_ZNSt8_Rb_treeISsSt4pairIKSsN5Catch3PtrINS2_16IReporterFactoryEEEESt10_Select1stIS6_ESt4lessISsESaIS6_EE13_Rb_tree_implISA_Lb1EED2Ev
FNDA:1,_ZNSt8_Rb_treeIN5Catch8TestCaseES1_St9_IdentityIS1_ESt4lessIS1_ESaIS1_EE13_Rb_tree_implIS5_Lb1EED2Ev
FNDA:0,_ZNSt8_Rb_treeISsSt4pairIKSsN5Catch7TagInfoEESt10_Select1stIS4_ESt4lessISsESaIS4_EE13_Rb_tree_implIS8_Lb1EED2Ev
FNDA:36,_ZNSt8_Rb_treeISsSsSt9_IdentityISsESt4lessISsESaISsEE13_Rb_tree_implIS3_Lb1EED2Ev
FNDA:1,_ZNSt8_Rb_treeIiSt4pairIKiN5Catch5Clara11CommandLineINS2_10ConfigDataEE3ArgEESt10_Select1stIS8_ESt4lessIiESaIS8_EE13_Rb_tree_implISC_Lb1EED2Ev
FNDA:1,_ZNSt8_Rb_treeIiSt4pairIKiN5Catch5Clara11CommandLineINS2_10ConfigDataEE3ArgEESt10_Select1stIS8_ESt4lessIiESaIS8_EE13_Rb_tree_implISC_Lb1EEC2Ev
FNDA:1,_ZNSt8_Rb_treeISsSt4pairIKSsN5Catch8TagAliasEESt10_Select1stIS4_ESt4lessISsESaIS4_EE13_Rb_tree_implIS8_Lb1EEC2Ev
FNDA:0,_ZNSt8_Rb_treeISsSt4pairIKSsPN5Catch14IGeneratorInfoEESt10_Select1stIS5_ESt4lessISsESaIS5_EE13_Rb_tree_implIS9_Lb1EEC2Ev
FNDA:1,_ZNSt8_Rb_treeISsSt4pairIKSsPN5Catch18IGeneratorsForTestEESt10_Select1stIS5_ESt4lessISsESaIS5_EE13_Rb_tree_implIS9_Lb1EEC2Ev
FNDA:1,_ZNSt8_Rb_treeISsSt4pairIKSsN5Catch3PtrINS2_16IReporterFactoryEEEESt10_Select1stIS6_ESt4lessISsESaIS6_EE13_Rb_tree_implISA_Lb1EEC2Ev
FNDA:1,_ZNSt8_Rb_treeIN5Catch8TestCaseES1_St9_IdentityIS1_ESt4lessIS1_ESaIS1_EE13_Rb_tree_implIS5_Lb1EEC2Ev
FNDA:0,_ZNSt8_Rb_treeISsSt4pairIKSsN5Catch7TagInfoEESt10_Select1stIS4_ESt4lessISsESaIS4_EE13_Rb_tree_implIS8_Lb1EEC2Ev
FNDA:6,_ZNSt8_Rb_treeISsSsSt9_IdentityISsESt4lessISsESaISsEE13_Rb_tree_implIS3_Lb1EEC2Ev
FNDA:30,_ZNSt8_Rb_treeISsSsSt9_IdentityISsESt4lessISsESaISsEE13_Rb_tree_implIS3_Lb1EEC2ERKS3_RKSaISt13_Rb_tree_nodeISsEE
FNDA:0,_ZNSt8_Rb_treeISsSsSt9_IdentityISsESt4lessISsESaISsEE13_Rb_tree_implIS3_Lb1EEC2ERKS3_OSaISt13_Rb_tree_nodeISsEE
FNDA:1,_ZNSt8_Rb_treeIiSt4pairIKiN5Catch5Clara11CommandLineINS2_10ConfigDataEE3ArgEESt10_Select1stIS8_ESt4lessIiESaIS8_EE13_Rb_tree_implISC_Lb1EE13_M_initializeEv
FNDA:1,_ZNSt8_Rb_treeISsSt4pairIKSsN5Catch8TagAliasEESt10_Select1stIS4_ESt4lessISsESaIS4_EE13_Rb_tree_implIS8_Lb1EE13_M_initializeEv
FNDA:0,_ZNSt8_Rb_treeISsSt4pairIKSsPN5Catch14IGeneratorInfoEESt10_Select1stIS5_ESt4lessISsESaIS5_EE13_Rb_tree_implIS9_Lb1EE13_M_initializeEv
FNDA:1,_ZNSt8_Rb_treeISsSt4pairIKSsPN5Catch18IGeneratorsForTestEESt10_Select1stIS5_ESt4lessISsESaIS5_EE13_Rb_tree_implIS9_Lb1EE13_M_initializeEv
FNDA:1,_ZNSt8_Rb_treeISsSt4pairIKSsN5Catch3PtrINS2_16IReporterFactoryEEEESt10_Select1stIS6_ESt4lessISsESaIS6_EE13_Rb_tree_implISA_Lb1EE13_M_initializeEv
FNDA:1,_ZNSt8_Rb_treeIN5Catch8TestCaseES1_St9_IdentityIS1_ESt4lessIS1_ESaIS1_EE13_Rb_tree_implIS5_Lb1EE13_M_initializeEv
FNDA:0,_ZNSt8_Rb_treeISsSt4pairIKSsN5Catch7TagInfoEESt10_Select1stIS4_ESt4lessISsESaIS4_EE13_Rb_tree_implIS8_Lb1EE13_M_initializeEv
FNDA:36,_ZNSt8_Rb_treeISsSsSt9_IdentityISsESt4lessISsESaISsEE13_Rb_tree_implIS3_Lb1EE13_M_initializeEv
FNDA:100,_ZNSt8_Rb_treeISsSsSt9_IdentityISsESt4lessISsESaISsEE7_M_rootEv
FNDA:32,_ZNKSt8_Rb_treeISsSsSt9_IdentityISsESt4lessISsESaISsEE7_M_rootEv
FNDA:36,_ZNSt8_Rb_treeISsSsSt9_IdentityISsESt4lessISsESaISsEE11_M_leftmostEv
FNDA:36,_ZNSt8_Rb_treeISsSsSt9_IdentityISsESt4lessISsESaISsEE12_M_rightmostEv
FNDA:1,_ZNSt8_Rb_treeISsSt4pairIKSsN5Catch8TagAliasEESt10_Select1stIS4_ESt4lessISsESaIS4_EE8_M_beginEv
FNDA:0,_ZNSt8_Rb_treeISsSt4pairIKSsPN5Catch14IGeneratorInfoEESt10_Select1stIS5_ESt4lessISsESaIS5_EE8_M_beginEv
FNDA:3,_ZNSt8_Rb_treeISsSt4pairIKSsPN5Catch18IGeneratorsForTestEESt10_Select1stIS5_ESt4lessISsESaIS5_EE8_M_beginEv
FNDA:5,_ZNSt8_Rb_treeISsSt4pairIKSsN5Catch3PtrINS2_16IReporterFactoryEEEESt10_Select1stIS6_ESt4lessISsESaIS6_EE8_M_beginEv
FNDA:3,_ZNSt8_Rb_treeIN5Catch8TestCaseES1_St9_IdentityIS1_ESt4lessIS1_ESaIS1_EE8_M_beginEv
FNDA:0,_ZNSt8_Rb_treeISsSt4pairIKSsN5Catch7TagInfoEESt10_Select1stIS4_ESt4lessISsESaIS4_EE8_M_beginEv
FNDA:44,_ZNSt8_Rb_treeISsSsSt9_IdentityISsESt4lessISsESaISsEE8_M_beginEv
FNDA:1,_ZNSt8_Rb_treeIiSt4pairIKiN5Catch5Clara11CommandLineINS2_10ConfigDataEE3ArgEESt10_Select1stIS8_ESt4lessIiESaIS8_EE8_M_beginEv
FNDA:0,_ZNKSt8_Rb_treeIiSt4pairIKiN5Catch5Clara11CommandLineINS2_10ConfigDataEE3ArgEESt10_Select1stIS8_ESt4lessIiESaIS8_EE8_M_beginEv
FNDA:0,_ZNKSt8_Rb_treeISsSt4pairIKSsN5Catch8TagAliasEESt10_Select1stIS4_ESt4lessISsESaIS4_EE8_M_beginEv
FNDA:1,_ZNKSt8_Rb_treeISsSt4pairIKSsN5Catch3PtrINS2_16IReporterFactoryEEEESt10_Select1stIS6_ESt4lessISsESaIS6_EE8_M_beginEv
FNDA:34,_ZNKSt8_Rb_treeISsSsSt9_IdentityISsESt4lessISsESaISsEE8_M_beginEv
FNDA:0,_ZNSt8_Rb_treeISsSt4pairIKSsN5Catch8TagAliasEESt10_Select1stIS4_ESt4lessISsESaIS4_EE6_M_endEv
FNDA:8,_ZNSt8_Rb_treeISsSt4pairIKSsN5Catch3PtrINS2_16IReporterFactoryEEEESt10_Select1stIS6_ESt4lessISsESaIS6_EE6_M_endEv
FNDA:4,_ZNSt8_Rb_treeIN5Catch8TestCaseES1_St9_IdentityIS1_ESt4lessIS1_ESaIS1_EE6_M_endEv
FNDA:0,_ZNSt8_Rb_treeISsSt4pairIKSsPN5Catch14IGeneratorInfoEESt10_Select1stIS5_ESt4lessISsESaIS5_EE6_M_endEv
FNDA:2,_ZNSt8_Rb_treeISsSt4pairIKSsPN5Catch18IGeneratorsForTestEESt10_Select1stIS5_ESt4lessISsESaIS5_EE6_M_endEv
FNDA:48,_ZNSt8_Rb_treeISsSsSt9_IdentityISsESt4lessISsESaISsEE6_M_endEv
FNDA:0,_ZNSt8_Rb_treeISsSt4pairIKSsN5Catch7TagInfoEESt10_Select1stIS4_ESt4lessISsESaIS4_EE6_M_endEv
FNDA:0,_ZNKSt8_Rb_treeIiSt4pairIKiN5Catch5Clara11CommandLineINS2_10ConfigDataEE3ArgEESt10_Select1stIS8_ESt4lessIiESaIS8_EE6_M_endEv
FNDA:0,_ZNKSt8_Rb_treeISsSt4pairIKSsN5Catch8TagAliasEESt10_Select1stIS4_ESt4lessISsESaIS4_EE6_M_endEv
FNDA:1,_ZNKSt8_Rb_treeISsSt4pairIKSsN5Catch3PtrINS2_16IReporterFactoryEEEESt10_Select1stIS6_ESt4lessISsESaIS6_EE6_M_endEv
FNDA:2,_ZNKSt8_Rb_treeISsSsSt9_IdentityISsESt4lessISsESaISsEE6_M_endEv
FNDA:0,_ZNSt8_Rb_treeIiSt4pairIKiN5Catch5Clara11CommandLineINS2_10ConfigDataEE3ArgEESt10_Select1stIS8_ESt4lessIiESaIS8_EE8_S_valueEPKSt13_Rb_tree_nodeIS8_E
FNDA:0,_ZNSt8_Rb_treeISsSt4pairIKSsN5Catch8TagAliasEESt10_Select1stIS4_ESt4lessISsESaIS4_EE8_S_valueEPKSt13_Rb_tree_nodeIS4_E
FNDA:0,_ZNSt8_Rb_treeISsSt4pairIKSsPN5Catch14IGeneratorInfoEESt10_Select1stIS5_ESt4lessISsESaIS5_EE8_S_valueEPKSt13_Rb_tree_nodeIS5_E
FNDA:0,_ZNSt8_Rb_treeISsSt4pairIKSsPN5Catch18IGeneratorsForTestEESt10_Select1stIS5_ESt4lessISsESaIS5_EE8_S_valueEPKSt13_Rb_tree_nodeIS5_E
FNDA:7,_ZNSt8_Rb_treeISsSt4pairIKSsN5Catch3PtrINS2_16IReporterFactoryEEEESt10_Select1stIS6_ESt4lessISsESaIS6_EE8_S_valueEPKSt13_Rb_tree_nodeIS6_E
FNDA:1,_ZNSt8_Rb_treeIN5Catch8TestCaseES1_St9_IdentityIS1_ESt4lessIS1_ESaIS1_EE8_S_valueEPKSt13_Rb_tree_nodeIS1_E
FNDA:0,_ZNSt8_Rb_treeISsSt4pairIKSsN5Catch7TagInfoEESt10_Select1stIS4_ESt4lessISsESaIS4_EE8_S_valueEPKSt13_Rb_tree_nodeIS4_E
FNDA:2,_ZNSt8_Rb_treeISsSsSt9_IdentityISsESt4lessISsESaISsEE8_S_valueEPKSt13_Rb_tree_nodeISsE
FNDA:0,_ZNSt8_Rb_treeIiSt4pairIKiN5Catch5Clara11CommandLineINS2_10ConfigDataEE3ArgEESt10_Select1stIS8_ESt4lessIiESaIS8_EE6_S_keyEPKSt13_Rb_tree_nodeIS8_E
FNDA:0,_ZNSt8_Rb_treeISsSt4pairIKSsN5Catch8TagAliasEESt10_Select1stIS4_ESt4lessISsESaIS4_EE6_S_keyEPKSt13_Rb_tree_nodeIS4_E
FNDA:0,_ZNSt8_Rb_treeISsSt4pairIKSsPN5Catch14IGeneratorInfoEESt10_Select1stIS5_ESt4lessISsESaIS5_EE6_S_keyEPKSt13_Rb_tree_nodeIS5_E
FNDA:0,_ZNSt8_Rb_treeISsSt4pairIKSsPN5Catch18IGeneratorsForTestEESt10_Select1stIS5_ESt4lessISsESaIS5_EE6_S_keyEPKSt13_Rb_tree_nodeIS5_E
FNDA:7,_ZNSt8_Rb_treeISsSt4pairIKSsN5Catch3PtrINS2_16IReporterFactoryEEEESt10_Select1stIS6_ESt4lessISsESaIS6_EE6_S_keyEPKSt13_Rb_tree_nodeIS6_E
FNDA:1,_ZNSt8_Rb_treeIN5Catch8TestCaseES1_St9_IdentityIS1_ESt4lessIS1_ESaIS1_EE6_S_keyEPKSt13_Rb_tree_nodeIS1_E
FNDA:0,_ZNSt8_Rb_treeISsSt4pairIKSsN5Catch7TagInfoEESt10_Select1stIS4_ESt4lessISsESaIS4_EE6_S_keyEPKSt13_Rb_tree_nodeIS4_E
FNDA:2,_ZNSt8_Rb_treeISsSsSt9_IdentityISsESt4lessISsESaISsEE6_S_keyEPKSt13_Rb_tree_nodeISsE
FNDA:0,_ZNSt8_Rb_treeISsSt4pairIKSsN5Catch8TagAliasEESt10_Select1stIS4_ESt4lessISsESaIS4_EE7_S_leftEPSt18_Rb_tree_node_base
FNDA:0,_ZNSt8_Rb_treeISsSt4pairIKSsPN5Catch14IGeneratorInfoEESt10_Select1stIS5_ESt4lessISsESaIS5_EE7_S_leftEPSt18_Rb_tree_node_base
FNDA:0,_ZNSt8_Rb_treeISsSt4pairIKSsPN5Catch18IGeneratorsForTestEESt10_Select1stIS5_ESt4lessISsESaIS5_EE7_S_leftEPSt18_Rb_tree_node_base
FNDA:9,_ZNSt8_Rb_treeISsSt4pairIKSsN5Catch3PtrINS2_16IReporterFactoryEEEESt10_Select1stIS6_ESt4lessISsESaIS6_EE7_S_leftEPSt18_Rb_tree_node_base
FNDA:2,_ZNSt8_Rb_treeIN5Catch8TestCaseES1_St9_IdentityIS1_ESt4lessIS1_ESaIS1_EE7_S_leftEPSt18_Rb_tree_node_base
FNDA:0,_ZNSt8_Rb_treeISsSt4pairIKSsN5Catch7TagInfoEESt10_Select1stIS4_ESt4lessISsESaIS4_EE7_S_leftEPSt18_Rb_tree_node_base
FNDA:36,_ZNSt8_Rb_treeISsSsSt9_IdentityISsESt4lessISsESaISsEE7_S_leftEPSt18_Rb_tree_node_base
FNDA:0,_ZNSt8_Rb_treeIiSt4pairIKiN5Catch5Clara11CommandLineINS2_10ConfigDataEE3ArgEESt10_Select1stIS8_ESt4lessIiESaIS8_EE7_S_leftEPSt18_Rb_tree_node_base
FNDA:0,_ZNSt8_Rb_treeIiSt4pairIKiN5Catch5Clara11CommandLineINS2_10ConfigDataEE3ArgEESt10_Select1stIS8_ESt4lessIiESaIS8_EE7_S_leftEPKSt18_Rb_tree_node_base
FNDA:0,_ZNSt8_Rb_treeISsSt4pairIKSsN5Catch8TagAliasEESt10_Select1stIS4_ESt4lessISsESaIS4_EE7_S_leftEPKSt18_Rb_tree_node_base
FNDA:1,_ZNSt8_Rb_treeISsSt4pairIKSsN5Catch3PtrINS2_16IReporterFactoryEEEESt10_Select1stIS6_ESt4lessISsESaIS6_EE7_S_leftEPKSt18_Rb_tree_node_base
FNDA:34,_ZNSt8_Rb_treeISsSsSt9_IdentityISsESt4lessISsESaISsEE7_S_leftEPKSt18_Rb_tree_node_base
FNDA:0,_ZNSt8_Rb_treeISsSt4pairIKSsN5Catch8TagAliasEESt10_Select1stIS4_ESt4lessISsESaIS4_EE8_S_rightEPSt18_Rb_tree_node_base
FNDA:0,_ZNSt8_Rb_treeISsSt4pairIKSsPN5Catch14IGeneratorInfoEESt10_Select1stIS5_ESt4lessISsESaIS5_EE8_S_rightEPSt18_Rb_tree_node_base
FNDA:0,_ZNSt8_Rb_treeISsSt4pairIKSsPN5Catch18IGeneratorsForTestEESt10_Select1stIS5_ESt4lessISsESaIS5_EE8_S_rightEPSt18_Rb_tree_node_base
FNDA:4,_ZNSt8_Rb_treeISsSt4pairIKSsN5Catch3PtrINS2_16IReporterFactoryEEEESt10_Select1stIS6_ESt4lessISsESaIS6_EE8_S_rightEPSt18_Rb_tree_node_base
FNDA:3,_ZNSt8_Rb_treeIN5Catch8TestCaseES1_St9_IdentityIS1_ESt4lessIS1_ESaIS1_EE8_S_rightEPSt18_Rb_tree_node_base
FNDA:0,_ZNSt8_Rb_treeISsSt4pairIKSsN5Catch7TagInfoEESt10_Select1stIS4_ESt4lessISsESaIS4_EE8_S_rightEPSt18_Rb_tree_node_base
FNDA:36,_ZNSt8_Rb_treeISsSsSt9_IdentityISsESt4lessISsESaISsEE8_S_rightEPSt18_Rb_tree_node_base
FNDA:0,_ZNSt8_Rb_treeIiSt4pairIKiN5Catch5Clara11CommandLineINS2_10ConfigDataEE3ArgEESt10_Select1stIS8_ESt4lessIiESaIS8_EE8_S_rightEPSt18_Rb_tree_node_base
FNDA:0,_ZNSt8_Rb_treeIiSt4pairIKiN5Catch5Clara11CommandLineINS2_10ConfigDataEE3ArgEESt10_Select1stIS8_ESt4lessIiESaIS8_EE8_S_rightEPKSt18_Rb_tree_node_base
FNDA:0,_ZNSt8_Rb_treeISsSt4pairIKSsN5Catch8TagAliasEESt10_Select1stIS4_ESt4lessISsESaIS4_EE8_S_rightEPKSt18_Rb_tree_node_base
FNDA:1,_ZNSt8_Rb_treeISsSt4pairIKSsN5Catch3PtrINS2_16IReporterFactoryEEEESt10_Select1stIS6_ESt4lessISsESaIS6_EE8_S_rightEPKSt18_Rb_tree_node_base
FNDA:0,_ZNSt8_Rb_treeISsSsSt9_IdentityISsESt4lessISsESaISsEE8_S_rightEPKSt18_Rb_tree_node_base
FNDA:0,_ZNSt8_Rb_treeIiSt4pairIKiN5Catch5Clara11CommandLineINS2_10ConfigDataEE3ArgEESt10_Select1stIS8_ESt4lessIiESaIS8_EE8_S_valueEPKSt18_Rb_tree_node_base
FNDA:2,_ZNSt8_Rb_treeIN5Catch8TestCaseES1_St9_IdentityIS1_ESt4lessIS1_ESaIS1_EE8_S_valueEPKSt18_Rb_tree_node_base
FNDA:0,_ZNSt8_Rb_treeISsSt4pairIKSsN5Catch8TagAliasEESt10_Select1stIS4_ESt4lessISsESaIS4_EE8_S_valueEPKSt18_Rb_tree_node_base
FNDA:0,_ZNSt8_Rb_treeISsSt4pairIKSsPN5Catch14IGeneratorInfoEESt10_Select1stIS5_ESt4lessISsESaIS5_EE8_S_valueEPKSt18_Rb_tree_node_base
FNDA:0,_ZNSt8_Rb_treeISsSt4pairIKSsPN5Catch18IGeneratorsForTestEESt10_Select1stIS5_ESt4lessISsESaIS5_EE8_S_valueEPKSt18_Rb_tree_node_base
FNDA:4,_ZNSt8_Rb_treeISsSt4pairIKSsN5Catch3PtrINS2_16IReporterFactoryEEEESt10_Select1stIS6_ESt4lessISsESaIS6_EE8_S_valueEPKSt18_Rb_tree_node_base
FNDA:0,_ZNSt8_Rb_treeISsSt4pairIKSsN5Catch7TagInfoEESt10_Select1stIS4_ESt4lessISsESaIS4_EE8_S_valueEPKSt18_Rb_tree_node_base
FNDA:2,_ZNSt8_Rb_treeISsSsSt9_IdentityISsESt4lessISsESaISsEE8_S_valueEPKSt18_Rb_tree_node_base
FNDA:0,_ZNSt8_Rb_treeIiSt4pairIKiN5Catch5Clara11CommandLineINS2_10ConfigDataEE3ArgEESt10_Select1stIS8_ESt4lessIiESaIS8_EE6_S_keyEPKSt18_Rb_tree_node_base
FNDA:2,_ZNSt8_Rb_treeIN5Catch8TestCaseES1_St9_IdentityIS1_ESt4lessIS1_ESaIS1_EE6_S_keyEPKSt18_Rb_tree_node_base
FNDA:0,_ZNSt8_Rb_treeISsSt4pairIKSsN5Catch8TagAliasEESt10_Select1stIS4_ESt4lessISsESaIS4_EE6_S_keyEPKSt18_Rb_tree_node_base
FNDA:0,_ZNSt8_Rb_treeISsSt4pairIKSsPN5Catch14IGeneratorInfoEESt10_Select1stIS5_ESt4lessISsESaIS5_EE6_S_keyEPKSt18_Rb_tree_node_base
FNDA:0,_ZNSt8_Rb_treeISsSt4pairIKSsPN5Catch18IGeneratorsForTestEESt10_Select1stIS5_ESt4lessISsESaIS5_EE6_S_keyEPKSt18_Rb_tree_node_base
FNDA:4,_ZNSt8_Rb_treeISsSt4pairIKSsN5Catch3PtrINS2_16IReporterFactoryEEEESt10_Select1stIS6_ESt4lessISsESaIS6_EE6_S_keyEPKSt18_Rb_tree_node_base
FNDA:0,_ZNSt8_Rb_treeISsSt4pairIKSsN5Catch7TagInfoEESt10_Select1stIS4_ESt4lessISsESaIS4_EE6_S_keyEPKSt18_Rb_tree_node_base
FNDA:2,_ZNSt8_Rb_treeISsSsSt9_IdentityISsESt4lessISsESaISsEE6_S_keyEPKSt18_Rb_tree_node_base
FNDA:32,_ZNSt8_Rb_treeISsSsSt9_IdentityISsESt4lessISsESaISsEE10_S_minimumEPSt18_Rb_tree_node_base
FNDA:32,_ZNSt8_Rb_treeISsSsSt9_IdentityISsESt4lessISsESaISsEE10_S_maximumEPSt18_Rb_tree_node_base
FNDA:1,_ZNSt8_Rb_treeIiSt4pairIKiN5Catch5Clara11CommandLineINS2_10ConfigDataEE3ArgEESt10_Select1stIS8_ESt4lessIiESaIS8_EEC2Ev
FNDA:1,_ZNSt8_Rb_treeISsSt4pairIKSsN5Catch8TagAliasEESt10_Select1stIS4_ESt4lessISsESaIS4_EEC2Ev
FNDA:0,_ZNSt8_Rb_treeISsSt4pairIKSsPN5Catch14IGeneratorInfoEESt10_Select1stIS5_ESt4lessISsESaIS5_EEC2Ev
FNDA:1,_ZNSt8_Rb_treeISsSt4pairIKSsPN5Catch18IGeneratorsForTestEESt10_Select1stIS5_ESt4lessISsESaIS5_EEC2Ev
FNDA:1,_ZNSt8_Rb_treeISsSt4pairIKSsN5Catch3PtrINS2_16IReporterFactoryEEEESt10_Select1stIS6_ESt4lessISsESaIS6_EEC2Ev
FNDA:1,_ZNSt8_Rb_treeIN5Catch8TestCaseES1_St9_IdentityIS1_ESt4lessIS1_ESaIS1_EEC2Ev
FNDA:0,_ZNSt8_Rb_treeISsSt4pairIKSsN5Catch7TagInfoEESt10_Select1stIS4_ESt4lessISsESaIS4_EEC2Ev
FNDA:6,_ZNSt8_Rb_treeISsSsSt9_IdentityISsESt4lessISsESaISsEEC2Ev
FNDA:30,_ZNSt8_Rb_treeISsSsSt9_IdentityISsESt4lessISsESaISsEEC2ERKS5_
FNDA:1,_ZNSt8_Rb_treeISsSt4pairIKSsN5Catch8TagAliasEESt10_Select1stIS4_ESt4lessISsESaIS4_EED2Ev
FNDA:0,_ZNSt8_Rb_treeISsSt4pairIKSsPN5Catch14IGeneratorInfoEESt10_Select1stIS5_ESt4lessISsESaIS5_EED2Ev
FNDA:1,_ZNSt8_Rb_treeISsSt4pairIKSsPN5Catch18IGeneratorsForTestEESt10_Select1stIS5_ESt4lessISsESaIS5_EED2Ev
FNDA:1,_ZNSt8_Rb_treeISsSt4pairIKSsN5Catch3PtrINS2_16IReporterFactoryEEEESt10_Select1stIS6_ESt4lessISsESaIS6_EED2Ev
FNDA:1,_ZNSt8_Rb_treeIN5Catch8TestCaseES1_St9_IdentityIS1_ESt4lessIS1_ESaIS1_EED2Ev
FNDA:0,_ZNSt8_Rb_treeISsSt4pairIKSsN5Catch7TagInfoEESt10_Select1stIS4_ESt4lessISsESaIS4_EED2Ev
FNDA:36,_ZNSt8_Rb_treeISsSsSt9_IdentityISsESt4lessISsESaISsEED2Ev
FNDA:1,_ZNSt8_Rb_treeIiSt4pairIKiN5Catch5Clara11CommandLineINS2_10ConfigDataEE3ArgEESt10_Select1stIS8_ESt4lessIiESaIS8_EED2Ev
FNDA:0,_ZNSt8_Rb_treeISsSt4pairIKSsN5Catch8TagAliasEESt10_Select1stIS4_ESt4lessISsESaIS4_EE5beginEv
FNDA:0,_ZNSt8_Rb_treeISsSt4pairIKSsPN5Catch14IGeneratorInfoEESt10_Select1stIS5_ESt4lessISsESaIS5_EE5beginEv
FNDA:4,_ZNSt8_Rb_treeISsSt4pairIKSsN5Catch3PtrINS2_16IReporterFactoryEEEESt10_Select1stIS6_ESt4lessISsESaIS6_EE5beginEv
FNDA:1,_ZNSt8_Rb_treeIN5Catch8TestCaseES1_St9_IdentityIS1_ESt4lessIS1_ESaIS1_EE5beginEv
FNDA:4,_ZNSt8_Rb_treeISsSsSt9_IdentityISsESt4lessISsESaISsEE5beginEv
FNDA:1,_ZNSt8_Rb_treeISsSt4pairIKSsPN5Catch18IGeneratorsForTestEESt10_Select1stIS5_ESt4lessISsESaIS5_EE5beginEv
FNDA:0,_ZNSt8_Rb_treeISsSt4pairIKSsN5Catch7TagInfoEESt10_Select1stIS4_ESt4lessISsESaIS4_EE5beginEv
FNDA:1,_ZNKSt8_Rb_treeISsSt4pairIKSsN5Catch8TagAliasEESt10_Select1stIS4_ESt4lessISsESaIS4_EE5beginEv
FNDA:0,_ZNKSt8_Rb_treeISsSt4pairIKSsN5Catch3PtrINS2_16IReporterFactoryEEEESt10_Select1stIS6_ESt4lessISsESaIS6_EE5beginEv
FNDA:2,_ZNKSt8_Rb_treeISsSsSt9_IdentityISsESt4lessISsESaISsEE5beginEv
FNDA:0,_ZNSt8_Rb_treeISsSt4pairIKSsPN5Catch14IGeneratorInfoEESt10_Select1stIS5_ESt4lessISsESaIS5_EE3endEv
FNDA:7,_ZNSt8_Rb_treeISsSt4pairIKSsPN5Catch18IGeneratorsForTestEESt10_Select1stIS5_ESt4lessISsESaIS5_EE3endEv
FNDA:0,_ZNSt8_Rb_treeISsSt4pairIKSsN5Catch7TagInfoEESt10_Select1stIS4_ESt4lessISsESaIS4_EE3endEv
FNDA:0,_ZNKSt8_Rb_treeIiSt4pairIKiN5Catch5Clara11CommandLineINS2_10ConfigDataEE3ArgEESt10_Select1stIS8_ESt4lessIiESaIS8_EE3endEv
FNDA:1,_ZNKSt8_Rb_treeISsSt4pairIKSsN5Catch8TagAliasEESt10_Select1stIS4_ESt4lessISsESaIS4_EE3endEv
FNDA:2,_ZNKSt8_Rb_treeISsSt4pairIKSsN5Catch3PtrINS2_16IReporterFactoryEEEESt10_Select1stIS6_ESt4lessISsESaIS6_EE3endEv
FNDA:8,_ZNKSt8_Rb_treeISsSsSt9_IdentityISsESt4lessISsESaISsEE3endEv
FNDA:0,_ZNKSt8_Rb_treeIiSt4pairIKiN5Catch5Clara11CommandLineINS2_10ConfigDataEE3ArgEESt10_Select1stIS8_ESt4lessIiESaIS8_EE5emptyEv
FNDA:0,_ZNKSt8_Rb_treeISsSsSt9_IdentityISsESt4lessISsESaISsEE5emptyEv
FNDA:0,_ZNKSt8_Rb_treeISsSt4pairIKSsN5Catch3PtrINS2_16IReporterFactoryEEEESt10_Select1stIS6_ESt4lessISsESaIS6_EE4sizeEv
FNDA:0,_ZNKSt8_Rb_treeISsSt4pairIKSsN5Catch7TagInfoEESt10_Select1stIS4_ESt4lessISsESaIS4_EE4sizeEv
FNDA:4,_ZNSt8_Rb_treeISsSsSt9_IdentityISsESt4lessISsESaISsEE5clearEv
FNDA:0,_ZNSt8_Rb_treeISsSsSt9_IdentityISsESt4lessISsESaISsEEC2EOS5_
FNDA:2,_ZNSt8_Rb_treeISsSsSt9_IdentityISsESt4lessISsESaISsEEaSERKS5_
FNDA:0,_ZNSt8_Rb_treeISsSt4pairIKSsN5Catch8TagAliasEESt10_Select1stIS4_ESt4lessISsESaIS4_EE10_M_insert_IS0_IPKcS3_EEESt17_Rb_tree_iteratorIS4_EPSt18_Rb_tree_node_baseSI_OT_
FNDA:0,_ZNSt8_Rb_treeISsSt4pairIKSsPN5Catch14IGeneratorInfoEESt10_Select1stIS5_ESt4lessISsESaIS5_EE10_M_insert_IS0_ISsS4_EEESt17_Rb_tree_iteratorIS5_EPSt18_Rb_tree_node_baseSH_OT_
FNDA:0,_ZNSt8_Rb_treeISsSt4pairIKSsPN5Catch18IGeneratorsForTestEESt10_Select1stIS5_ESt4lessISsESaIS5_EE10_M_insert_IS0_ISsS4_EEESt17_Rb_tree_iteratorIS5_EPSt18_Rb_tree_node_baseSH_OT_
FNDA:4,_ZNSt8_Rb_treeISsSt4pairIKSsN5Catch3PtrINS2_16IReporterFactoryEEEESt10_Select1stIS6_ESt4lessISsESaIS6_EE10_M_insert_IS0_ISsS5_EEESt17_Rb_tree_iteratorIS6_EPSt18_Rb_tree_node_baseSI_OT_
FNDA:2,_ZNSt8_Rb_treeIN5Catch8TestCaseES1_St9_IdentityIS1_ESt4lessIS1_ESaIS1_EE10_M_insert_IRKS1_EESt17_Rb_tree_iteratorIS1_EPSt18_Rb_tree_node_baseSE_OT_
FNDA:0,_ZNSt8_Rb_treeISsSsSt9_IdentityISsESt4lessISsESaISsEE10_M_insert_ISsEESt17_Rb_tree_iteratorISsEPSt18_Rb_tree_node_baseSA_OT_
FNDA:0,_ZNSt8_Rb_treeISsSt4pairIKSsN5Catch7TagInfoEESt10_Select1stIS4_ESt4lessISsESaIS4_EE10_M_insert_IS0_ISsS3_EEESt17_Rb_tree_iteratorIS4_EPSt18_Rb_tree_node_baseSG_OT_
FNDA:4,_ZNSt8_Rb_treeISsSsSt9_IdentityISsESt4lessISsESaISsEE10_M_insert_IRKSsEESt17_Rb_tree_iteratorISsEPSt18_Rb_tree_node_baseSC_OT_
FNDA:32,_ZNSt8_Rb_treeISsSsSt9_IdentityISsESt4lessISsESaISsEE7_M_copyEPKSt13_Rb_tree_nodeISsEPS7_
FNDA:1,_ZNSt8_Rb_treeISsSt4pairIKSsN5Catch8TagAliasEESt10_Select1stIS4_ESt4lessISsESaIS4_EE8_M_eraseEPSt13_Rb_tree_nodeIS4_E
FNDA:0,_ZNSt8_Rb_treeISsSt4pairIKSsPN5Catch14IGeneratorInfoEESt10_Select1stIS5_ESt4lessISsESaIS5_EE8_M_eraseEPSt13_Rb_tree_nodeIS5_E
FNDA:1,_ZNSt8_Rb_treeISsSt4pairIKSsPN5Catch18IGeneratorsForTestEESt10_Select1stIS5_ESt4lessISsESaIS5_EE8_M_eraseEPSt13_Rb_tree_nodeIS5_E
FNDA:5,_ZNSt8_Rb_treeISsSt4pairIKSsN5Catch3PtrINS2_16IReporterFactoryEEEESt10_Select1stIS6_ESt4lessISsESaIS6_EE8_M_eraseEPSt13_Rb_tree_nodeIS6_E
FNDA:3,_ZNSt8_Rb_treeIN5Catch8TestCaseES1_St9_IdentityIS1_ESt4lessIS1_ESaIS1_EE8_M_eraseEPSt13_Rb_tree_nodeIS1_E
FNDA:0,_ZNSt8_Rb_treeISsSt4pairIKSsN5Catch7TagInfoEESt10_Select1stIS4_ESt4lessISsESaIS4_EE8_M_eraseEPSt13_Rb_tree_nodeIS4_E
FNDA:76,_ZNSt8_Rb_treeISsSsSt9_IdentityISsESt4lessISsESaISsEE8_M_eraseEPSt13_Rb_tree_nodeISsE
FNDA:1,_ZNSt8_Rb_treeIiSt4pairIKiN5Catch5Clara11CommandLineINS2_10ConfigDataEE3ArgEESt10_Select1stIS8_ESt4lessIiESaIS8_EE8_M_eraseEPSt13_Rb_tree_nodeIS8_E
FNDA:0,_ZNSt8_Rb_treeISsSt4pairIKSsPN5Catch14IGeneratorInfoEESt10_Select1stIS5_ESt4lessISsESaIS5_EE14_M_lower_boundEPSt13_Rb_tree_nodeIS5_ESE_RS1_
FNDA:2,_ZNSt8_Rb_treeISsSt4pairIKSsPN5Catch18IGeneratorsForTestEESt10_Select1stIS5_ESt4lessISsESaIS5_EE14_M_lower_boundEPSt13_Rb_tree_nodeIS5_ESE_RS1_
FNDA:0,_ZNSt8_Rb_treeISsSt4pairIKSsN5Catch7TagInfoEESt10_Select1stIS4_ESt4lessISsESaIS4_EE14_M_lower_boundEPSt13_Rb_tree_nodeIS4_ESD_RS1_
FNDA:0,_ZNKSt8_Rb_treeIiSt4pairIKiN5Catch5Clara11CommandLineINS2_10ConfigDataEE3ArgEESt10_Select1stIS8_ESt4lessIiESaIS8_EE14_M_lower_boundEPKSt13_Rb_tree_nodeIS8_ESI_RS1_
FNDA:0,_ZNKSt8_Rb_treeISsSt4pairIKSsN5Catch8TagAliasEESt10_Select1stIS4_ESt4lessISsESaIS4_EE14_M_lower_boundEPKSt13_Rb_tree_nodeIS4_ESE_RS1_
FNDA:1,_ZNKSt8_Rb_treeISsSt4pairIKSsN5Catch3PtrINS2_16IReporterFactoryEEEESt10_Select1stIS6_ESt4lessISsESaIS6_EE14_M_lower_boundEPKSt13_Rb_tree_nodeIS6_ESG_RS1_
FNDA:2,_ZNKSt8_Rb_treeISsSsSt9_IdentityISsESt4lessISsESaISsEE14_M_lower_boundEPKSt13_Rb_tree_nodeISsES9_RKSs
FNDA:0,_ZNSt8_Rb_treeISsSsSt9_IdentityISsESt4lessISsESaISsEE4swapERS5_
FNDA:0,_ZNSt8_Rb_treeISsSt4pairIKSsN5Catch8TagAliasEESt10_Select1stIS4_ESt4lessISsESaIS4_EE24_M_get_insert_unique_posERS1_
FNDA:0,_ZNSt8_Rb_treeISsSt4pairIKSsPN5Catch14IGeneratorInfoEESt10_Select1stIS5_ESt4lessISsESaIS5_EE24_M_get_insert_unique_posERS1_
FNDA:0,_ZNSt8_Rb_treeISsSt4pairIKSsPN5Catch18IGeneratorsForTestEESt10_Select1stIS5_ESt4lessISsESaIS5_EE24_M_get_insert_unique_posERS1_
FNDA:4,_ZNSt8_Rb_treeISsSt4pairIKSsN5Catch3PtrINS2_16IReporterFactoryEEEESt10_Select1stIS6_ESt4lessISsESaIS6_EE24_M_get_insert_unique_posERS1_
FNDA:2,_ZNSt8_Rb_treeIN5Catch8TestCaseES1_St9_IdentityIS1_ESt4lessIS1_ESaIS1_EE24_M_get_insert_unique_posERKS1_
FNDA:0,_ZNSt8_Rb_treeISsSt4pairIKSsN5Catch7TagInfoEESt10_Select1stIS4_ESt4lessISsESaIS4_EE24_M_get_insert_unique_posERS1_
FNDA:4,_ZNSt8_Rb_treeISsSsSt9_IdentityISsESt4lessISsESaISsEE24_M_get_insert_unique_posERKSs
FNDA:0,_ZNSt8_Rb_treeISsSt4pairIKSsN5Catch8TagAliasEESt10_Select1stIS4_ESt4lessISsESaIS4_EE16_M_insert_uniqueIS0_IPKcS3_EEES0_ISt17_Rb_tree_iteratorIS4_EbEOT_
FNDA:0,_ZNSt8_Rb_treeISsSt4pairIKSsPN5Catch14IGeneratorInfoEESt10_Select1stIS5_ESt4lessISsESaIS5_EE16_M_insert_uniqueIS0_ISsS4_EEES0_ISt17_Rb_tree_iteratorIS5_EbEOT_
FNDA:0,_ZNSt8_Rb_treeISsSt4pairIKSsPN5Catch18IGeneratorsForTestEESt10_Select1stIS5_ESt4lessISsESaIS5_EE16_M_insert_uniqueIS0_ISsS4_EEES0_ISt17_Rb_tree_iteratorIS5_EbEOT_
FNDA:4,_ZNSt8_Rb_treeISsSt4pairIKSsN5Catch3PtrINS2_16IReporterFactoryEEEESt10_Select1stIS6_ESt4lessISsESaIS6_EE16_M_insert_uniqueIS0_ISsS5_EEES0_ISt17_Rb_tree_iteratorIS6_EbEOT_
FNDA:2,_ZNSt8_Rb_treeIN5Catch8TestCaseES1_St9_IdentityIS1_ESt4lessIS1_ESaIS1_EE16_M_insert_uniqueIRKS1_EESt4pairISt17_Rb_tree_iteratorIS1_EbEOT_
FNDA:0,_ZNSt8_Rb_treeISsSsSt9_IdentityISsESt4lessISsESaISsEE16_M_insert_uniqueISsEESt4pairISt17_Rb_tree_iteratorISsEbEOT_
FNDA:0,_ZNSt8_Rb_treeISsSt4pairIKSsN5Catch7TagInfoEESt10_Select1stIS4_ESt4lessISsESaIS4_EE16_M_insert_uniqueIS0_ISsS3_EEES0_ISt17_Rb_tree_iteratorIS4_EbEOT_
FNDA:4,_ZNSt8_Rb_treeISsSsSt9_IdentityISsESt4lessISsESaISsEE16_M_insert_uniqueIRKSsEESt4pairISt17_Rb_tree_iteratorISsEbEOT_
FNDA:0,_ZNSt8_Rb_treeISsSt4pairIKSsPN5Catch14IGeneratorInfoEESt10_Select1stIS5_ESt4lessISsESaIS5_EE4findERS1_
FNDA:2,_ZNSt8_Rb_treeISsSt4pairIKSsPN5Catch18IGeneratorsForTestEESt10_Select1stIS5_ESt4lessISsESaIS5_EE4findERS1_
FNDA:0,_ZNSt8_Rb_treeISsSt4pairIKSsN5Catch7TagInfoEESt10_Select1stIS4_ESt4lessISsESaIS4_EE4findERS1_
FNDA:0,_ZNKSt8_Rb_treeIiSt4pairIKiN5Catch5Clara11CommandLineINS2_10ConfigDataEE3ArgEESt10_Select1stIS8_ESt4lessIiESaIS8_EE4findERS1_
FNDA:0,_ZNKSt8_Rb_treeISsSt4pairIKSsN5Catch8TagAliasEESt10_Select1stIS4_ESt4lessISsESaIS4_EE4findERS1_
FNDA:1,_ZNKSt8_Rb_treeISsSt4pairIKSsN5Catch3PtrINS2_16IReporterFactoryEEEESt10_Select1stIS6_ESt4lessISsESaIS6_EE4findERS1_
FNDA:2,_ZNKSt8_Rb_treeISsSsSt9_IdentityISsESt4lessISsESaISsEE4findERKSs
FNF:314
FNH:154
DA:102,32
DA:104,32
DA:105,32
DA:116,32
DA:118,32
DA:119,32
DA:131,42
DA:138,42
DA:140,42
DA:174,39
DA:175,39
DA:182,0
DA:184,0
DA:202,0
DA:204,0
DA:205,0
DA:217,11
DA:218,11
DA:243,0
DA:244,0
DA:247,17
DA:248,17
DA:250,12
DA:251,12
DA:259,4
DA:260,4
DA:263,1
DA:265,1
DA:268,2
DA:270,2
DA:271,2
DA:298,4
DA:299,4
DA:302,10
DA:303,10
DA:356,84
DA:357,84
DA:360,30
DA:361,30
DA:369,42
DA:370,42
DA:373,42
DA:374,42
DA:401,42
DA:403,42
DA:406,42
DA:407,42
DA:408,42
DA:410,0
DA:412,0
DA:413,0
DA:415,42
DA:419,42
DA:421,42
DA:422,42
DA:423,42
DA:427,32
DA:429,32
DA:430,32
DA:431,32
DA:432,32
DA:433,32
DA:439,41
DA:445,11
DA:447,11
DA:448,11
DA:450,30
DA:452,30
DA:453,30
DA:456,0
DA:457,0
DA:458,0
DA:459,0
DA:464,41
DA:466,41
DA:467,41
DA:468,41
DA:469,41
DA:470,41
DA:477,100
DA:478,100
DA:481,32
DA:482,32
DA:485,36
DA:486,36
DA:493,36
DA:494,36
DA:501,57
DA:502,57
DA:505,35
DA:508,35
DA:512,62
DA:513,62
DA:516,3
DA:517,3
DA:520,10
DA:521,10
DA:524,10
DA:525,10
DA:528,47
DA:529,47
DA:532,35
DA:533,35
DA:536,43
DA:537,43
DA:540,1
DA:541,1
DA:544,8
DA:545,8
DA:548,8
DA:549,8
DA:552,32
DA:553,32
DA:560,32
DA:561,32
DA:648,11
DA:654,30
DA:655,30
DA:657,30
DA:659,30
DA:660,30
DA:661,30
DA:662,30
DA:664,30
DA:670,41
DA:671,41
DA:682,10
DA:685,10
DA:689,3
DA:692,3
DA:696,7
DA:697,7
DA:700,11
DA:703,11
DA:723,0
DA:724,0
DA:727,0
DA:728,0
DA:858,4
DA:860,4
DA:861,4
DA:862,4
DA:863,4
DA:864,4
DA:865,4
DA:962,0
DA:965,0
DA:967,0
DA:969,0
DA:970,0
DA:971,0
DA:972,0
DA:974,0
DA:975,0
DA:976,0
DA:978,0
DA:979,0
DA:981,0
DA:987,2
DA:990,2
DA:993,2
DA:995,2
DA:997,2
DA:998,2
DA:999,2
DA:1000,2
DA:1003,2
DA:1012,10
DA:1019,10
DA:1020,26
DA:1021,38
DA:1023,10
DA:1025,10
DA:1026,10
DA:1027,10
DA:1028,10
DA:1083,32
DA:1087,32
DA:1088,32
DA:1092,32
DA:1093,0
DA:1094,32
DA:1095,32
DA:1097,64
DA:1099,0
DA:1100,0
DA:1101,0
DA:1102,0
DA:1103,0
DA:1104,0
DA:1105,0
DA:1108,0
DA:1110,0
DA:1111,0
DA:1113,32
DA:1119,87
DA:1123,216
DA:1125,42
DA:1126,42
DA:1127,42
DA:1128,42
DA:1130,87
DA:1136,2
DA:1140,4
DA:1141,0
DA:1142,0
DA:1144,0
DA:1145,2
DA:1152,3
DA:1156,10
DA:1157,4
DA:1158,3
DA:1160,1
DA:1161,3
DA:1261,0
DA:1264,0
DA:1266,0
DA:1268,0
DA:1269,0
DA:1270,0
DA:1271,0
DA:1273,0
DA:1274,0
DA:1275,0
DA:1278,0
DA:1280,0
DA:1281,0
DA:1282,0
DA:1283,0
DA:1285,0
DA:1286,0
DA:1287,0
DA:1291,0
DA:1292,0
DA:1293,0
DA:1295,0
DA:1296,0
DA:1299,0
DA:1300,0
DA:1304,0
DA:1305,0
DA:1306,0
DA:1314,10
DA:1318,10
DA:1319,10
DA:1320,10
DA:1321,26
DA:1323,6
DA:1324,6
DA:1325,6
DA:1327,10
DA:1328,10
DA:1330,9
DA:1331,9
DA:1333,0
DA:1335,1
DA:1336,1
DA:1337,0
DA:1368,10
DA:1377,10
DA:1379,10
DA:1381,10
DA:1382,10
DA:1384,0
DA:1789,2
DA:1792,2
DA:1793,8
DA:1794,0
DA:1795,8
DA:1802,3
DA:1805,3
DA:1806,12
DA:1807,6
DA:1808,18
LF:274
LH:197
end_of_record
SF:/opt/Programs/buildroot-at91/output/host/usr/arm-buildroot-linux-gnueabi/include/c++/4.8.2/bits/stl_uninitialized.h
FN:68,_ZNSt20__uninitialized_copyILb0EE13__uninit_copyIPN5Catch3PtrINS2_18IStreamingReporterEEES6_EET0_T_S8_S7_
FN:68,_ZNSt20__uninitialized_copyILb0EE13__uninit_copyIPN5Catch8TestCaseES4_EET0_T_S6_S5_
FN:68,_ZNSt20__uninitialized_copyILb0EE13__uninit_copyIPN5Catch3PtrINS2_16TestCaseTracking8ITrackerEEES7_EET0_T_S9_S8_
FN:68,_ZNSt20__uninitialized_copyILb0EE13__uninit_copyIN9__gnu_cxx17__normal_iteratorIPKN5Catch5Clara6Parser5TokenESt6vectorIS7_SaIS7_EEEEPS7_EET0_T_SG_SF_
FN:68,_ZNSt20__uninitialized_copyILb0EE13__uninit_copyIPN5Catch5Clara11CommandLineINS2_10ConfigDataEE3ArgES8_EET0_T_SA_S9_
FN:68,_ZNSt20__uninitialized_copyILb0EE13__uninit_copyISt13move_iteratorIPN5Catch11MessageInfoEES5_EET0_T_S8_S7_
FN:68,_ZNSt20__uninitialized_copyILb0EE13__uninit_copyIPN5Catch3PtrINS2_22CumulativeReporterBase4NodeINS2_13TestCaseStatsENS4_11SectionNodeEEEEESA_EET0_T_SC_SB_
FN:68,_ZNSt20__uninitialized_copyILb0EE13__uninit_copyISt13move_iteratorIPN5Catch8TestSpec6FilterEES6_EET0_T_S9_S8_
FN:68,_ZNSt20__uninitialized_copyILb0EE13__uninit_copyIN9__gnu_cxx17__normal_iteratorIPKSsSt6vectorISsSaISsEEEEPSsEET0_T_SC_SB_
FN:68,_ZNSt20__uninitialized_copyILb0EE13__uninit_copyISt13move_iteratorIPSsES3_EET0_T_S6_S5_
FN:68,_ZNSt20__uninitialized_copyILb0EE13__uninit_copyIN9__gnu_cxx17__normal_iteratorIPKN5Catch8TestSpec6FilterESt6vectorIS6_SaIS6_EEEEPS6_EET0_T_SF_SE_
FN:68,_ZNSt20__uninitialized_copyILb0EE13__uninit_copyIN9__gnu_cxx17__normal_iteratorIPKN5Catch3PtrINS4_8TestSpec7PatternEEESt6vectorIS8_SaIS8_EEEEPS8_EET0_T_SH_SG_
FN:68,_ZNSt20__uninitialized_copyILb0EE13__uninit_copyISt13move_iteratorIPN5Catch14AssertionStatsEES5_EET0_T_S8_S7_
FN:68,_ZNSt20__uninitialized_copyILb0EE13__uninit_copyIPN5Catch3PtrINS2_22CumulativeReporterBase4NodeINS2_14TestGroupStatsENS5_INS2_13TestCaseStatsENS4_11SectionNodeEEEEEEESC_EET0_T_SE_SD_
FN:68,_ZNSt20__uninitialized_copyILb0EE13__uninit_copyISt13move_iteratorIPN5Catch11SectionInfoEES5_EET0_T_S8_S7_
FN:68,_ZNSt20__uninitialized_copyILb0EE13__uninit_copyIPN5Catch3PtrINS2_22CumulativeReporterBase11SectionNodeEEES7_EET0_T_S9_S8_
FN:68,_ZNSt20__uninitialized_copyILb0EE13__uninit_copyIPN5Catch3PtrINS2_8TestSpec7PatternEEES7_EET0_T_S9_S8_
FN:68,_ZNSt20__uninitialized_copyILb0EE13__uninit_copyISt13move_iteratorIPN5Catch15ConsoleReporter13SummaryColumnEES6_EET0_T_S9_S8_
FN:68,_ZNSt20__uninitialized_copyILb0EE13__uninit_copyIN9__gnu_cxx17__normal_iteratorIPKN5Catch11MessageInfoESt6vectorIS5_SaIS5_EEEEPS5_EET0_T_SE_SD_
FN:68,_ZNSt20__uninitialized_copyILb0EE13__uninit_copyIPN5Catch3PtrINS2_22CumulativeReporterBase4NodeINS2_12TestRunStatsENS5_INS2_14TestGroupStatsENS5_INS2_13TestCaseStatsENS4_11SectionNodeEEEEEEEEESE_EET0_T_SG_SF_
FN:68,_ZNSt20__uninitialized_copyILb0EE13__uninit_copyISt13move_iteratorIPN5Catch5Clara6Parser5TokenEES7_EET0_T_SA_S9_
FN:68,_ZNSt20__uninitialized_copyILb0EE13__uninit_copyIN9__gnu_cxx17__normal_iteratorIPKN5Catch8TestCaseESt6vectorIS5_SaIS5_EEEEPS5_EET0_T_SE_SD_
FN:68,_ZNSt20__uninitialized_copyILb0EE13__uninit_copyIN9__gnu_cxx17__normal_iteratorIPKN5Catch3PtrINS4_16IReporterFactoryEEESt6vectorIS7_SaIS7_EEEEPS7_EET0_T_SG_SF_
FN:68,_ZNSt20__uninitialized_copyILb0EE13__uninit_copyISt13move_iteratorIPN5Catch14SectionEndInfoEES5_EET0_T_S8_S7_
FN:68,_ZNSt20__uninitialized_copyILb0EE13__uninit_copyIPN5Catch3PtrINS2_16IReporterFactoryEEES6_EET0_T_S8_S7_
FN:91,_ZNSt20__uninitialized_copyILb1EE13__uninit_copyISt13move_iteratorIPPN5Catch14IGeneratorInfoEES6_EET0_T_S9_S8_
FN:91,_ZNSt20__uninitialized_copyILb1EE13__uninit_copyISt13move_iteratorIPPKN5Catch20IExceptionTranslatorEES7_EET0_T_SA_S9_
FN:91,_ZNSt20__uninitialized_copyILb1EE13__uninit_copyISt13move_iteratorIPjES3_EET0_T_S6_S5_
FN:91,_ZNSt20__uninitialized_copyILb1EE13__uninit_copyISt13move_iteratorIPPN5Catch16TestCaseTracking8ITrackerEES7_EET0_T_SA_S9_
FN:107,_ZSt18uninitialized_copyIPN5Catch3PtrINS0_8TestSpec7PatternEEES5_ET0_T_S7_S6_
FN:107,_ZSt18uninitialized_copyIN9__gnu_cxx17__normal_iteratorIPKN5Catch3PtrINS2_16IReporterFactoryEEESt6vectorIS5_SaIS5_EEEEPS5_ET0_T_SE_SD_
FN:107,_ZSt18uninitialized_copyIN9__gnu_cxx17__normal_iteratorIPKN5Catch3PtrINS2_8TestSpec7PatternEEESt6vectorIS6_SaIS6_EEEEPS6_ET0_T_SF_SE_
FN:107,_ZSt18uninitialized_copyIN9__gnu_cxx17__normal_iteratorIPKN5Catch5Clara6Parser5TokenESt6vectorIS5_SaIS5_EEEEPS5_ET0_T_SE_SD_
FN:107,_ZSt18uninitialized_copyISt13move_iteratorIPPN5Catch14IGeneratorInfoEES4_ET0_T_S7_S6_
FN:107,_ZSt18uninitialized_copyIPN5Catch3PtrINS0_22CumulativeReporterBase11SectionNodeEEES5_ET0_T_S7_S6_
FN:107,_ZSt18uninitialized_copyIPN5Catch3PtrINS0_18IStreamingReporterEEES4_ET0_T_S6_S5_
FN:107,_ZSt18uninitialized_copyIPN5Catch3PtrINS0_22CumulativeReporterBase4NodeINS0_13TestCaseStatsENS2_11SectionNodeEEEEES8_ET0_T_SA_S9_
FN:107,_ZSt18uninitialized_copyISt13move_iteratorIPPN5Catch16TestCaseTracking8ITrackerEES5_ET0_T_S8_S7_
FN:107,_ZSt18uninitialized_copyIN9__gnu_cxx17__normal_iteratorIPKN5Catch8TestCaseESt6vectorIS3_SaIS3_EEEEPS3_ET0_T_SC_SB_
FN:107,_ZSt18uninitialized_copyISt13move_iteratorIPSsES1_ET0_T_S4_S3_
FN:107,_ZSt18uninitialized_copyIPN5Catch8TestCaseES2_ET0_T_S4_S3_
FN:107,_ZSt18uninitialized_copyISt13move_iteratorIPN5Catch11MessageInfoEES3_ET0_T_S6_S5_
FN:107,_ZSt18uninitialized_copyIN9__gnu_cxx17__normal_iteratorIPKN5Catch8TestSpec6FilterESt6vectorIS4_SaIS4_EEEEPS4_ET0_T_SD_SC_
FN:107,_ZSt18uninitialized_copyIN9__gnu_cxx17__normal_iteratorIPKN5Catch11MessageInfoESt6vectorIS3_SaIS3_EEEEPS3_ET0_T_SC_SB_
FN:107,_ZSt18uninitialized_copyISt13move_iteratorIPjES1_ET0_T_S4_S3_
FN:107,_ZSt18uninitialized_copyIPN5Catch3PtrINS0_22CumulativeReporterBase4NodeINS0_14TestGroupStatsENS3_INS0_13TestCaseStatsENS2_11SectionNodeEEEEEEESA_ET0_T_SC_SB_
FN:107,_ZSt18uninitialized_copyISt13move_iteratorIPN5Catch14AssertionStatsEES3_ET0_T_S6_S5_
FN:107,_ZSt18uninitialized_copyISt13move_iteratorIPN5Catch8TestSpec6FilterEES4_ET0_T_S7_S6_
FN:107,_ZSt18uninitialized_copyISt13move_iteratorIPPKN5Catch20IExceptionTranslatorEES5_ET0_T_S8_S7_
FN:107,_ZSt18uninitialized_copyIPN5Catch3PtrINS0_22CumulativeReporterBase4NodeINS0_12TestRunStatsENS3_INS0_14TestGroupStatsENS3_INS0_13TestCaseStatsENS2_11SectionNodeEEEEEEEEESC_ET0_T_SE_SD_
FN:107,_ZSt18uninitialized_copyIPN5Catch5Clara11CommandLineINS0_10ConfigDataEE3ArgES6_ET0_T_S8_S7_
FN:107,_ZSt18uninitialized_copyISt13move_iteratorIPN5Catch15ConsoleReporter13SummaryColumnEES4_ET0_T_S7_S6_
FN:107,_ZSt18uninitialized_copyISt13move_iteratorIPN5Catch5Clara6Parser5TokenEES5_ET0_T_S8_S7_
FN:107,_ZSt18uninitialized_copyIPN5Catch3PtrINS0_16TestCaseTracking8ITrackerEEES5_ET0_T_S7_S6_
FN:107,_ZSt18uninitialized_copyIN9__gnu_cxx17__normal_iteratorIPKSsSt6vectorISsSaISsEEEEPSsET0_T_SA_S9_
FN:107,_ZSt18uninitialized_copyISt13move_iteratorIPN5Catch11SectionInfoEES3_ET0_T_S6_S5_
FN:107,_ZSt18uninitialized_copyISt13move_iteratorIPN5Catch14SectionEndInfoEES3_ET0_T_S6_S5_
FN:107,_ZSt18uninitialized_copyIPN5Catch3PtrINS0_16IReporterFactoryEEES4_ET0_T_S6_S5_
FN:256,_ZSt22__uninitialized_copy_aIPN5Catch3PtrINS0_16IReporterFactoryEEES4_S3_ET0_T_S6_S5_RSaIT1_E
FN:256,_ZSt22__uninitialized_copy_aISt13move_iteratorIPN5Catch14AssertionStatsEES3_S2_ET0_T_S6_S5_RSaIT1_E
FN:256,_ZSt22__uninitialized_copy_aIPN5Catch5Clara11CommandLineINS0_10ConfigDataEE3ArgES6_S5_ET0_T_S8_S7_RSaIT1_E
FN:256,_ZSt22__uninitialized_copy_aISt13move_iteratorIPN5Catch8TestSpec6FilterEES4_S3_ET0_T_S7_S6_RSaIT1_E
FN:256,_ZSt22__uninitialized_copy_aIPN5Catch3PtrINS0_22CumulativeReporterBase4NodeINS0_12TestRunStatsENS3_INS0_14TestGroupStatsENS3_INS0_13TestCaseStatsENS2_11SectionNodeEEEEEEEEESC_SB_ET0_T_SE_SD_RSaIT1_E
FN:256,_ZSt22__uninitialized_copy_aISt13move_iteratorIPN5Catch15ConsoleReporter13SummaryColumnEES4_S3_ET0_T_S7_S6_RSaIT1_E
FN:256,_ZSt22__uninitialized_copy_aISt13move_iteratorIPPN5Catch14IGeneratorInfoEES4_S3_ET0_T_S7_S6_RSaIT1_E
FN:256,_ZSt22__uninitialized_copy_aISt13move_iteratorIPPN5Catch16TestCaseTracking8ITrackerEES5_S4_ET0_T_S8_S7_RSaIT1_E
FN:256,_ZSt22__uninitialized_copy_aIPN5Catch3PtrINS0_22CumulativeReporterBase11SectionNodeEEES5_S4_ET0_T_S7_S6_RSaIT1_E
FN:256,_ZSt22__uninitialized_copy_aISt13move_iteratorIPjES1_jET0_T_S4_S3_RSaIT1_E
FN:256,_ZSt22__uninitialized_copy_aIPN5Catch3PtrINS0_16TestCaseTracking8ITrackerEEES5_S4_ET0_T_S7_S6_RSaIT1_E
FN:256,_ZSt22__uninitialized_copy_aIN9__gnu_cxx17__normal_iteratorIPKN5Catch5Clara6Parser5TokenESt6vectorIS5_SaIS5_EEEEPS5_S5_ET0_T_SE_SD_RSaIT1_E
FN:256,_ZSt22__uninitialized_copy_aIN9__gnu_cxx17__normal_iteratorIPKN5Catch8TestSpec6FilterESt6vectorIS4_SaIS4_EEEEPS4_S4_ET0_T_SD_SC_RSaIT1_E
FN:256,_ZSt22__uninitialized_copy_aIN9__gnu_cxx17__normal_iteratorIPKN5Catch3PtrINS2_16IReporterFactoryEEESt6vectorIS5_SaIS5_EEEEPS5_S5_ET0_T_SE_SD_RSaIT1_E
FN:256,_ZSt22__uninitialized_copy_aIPN5Catch3PtrINS0_18IStreamingReporterEEES4_S3_ET0_T_S6_S5_RSaIT1_E
FN:256,_ZSt22__uninitialized_copy_aIPN5Catch3PtrINS0_8TestSpec7PatternEEES5_S4_ET0_T_S7_S6_RSaIT1_E
FN:256,_ZSt22__uninitialized_copy_aISt13move_iteratorIPPKN5Catch20IExceptionTranslatorEES5_S4_ET0_T_S8_S7_RSaIT1_E
FN:256,_ZSt22__uninitialized_copy_aISt13move_iteratorIPN5Catch14SectionEndInfoEES3_S2_ET0_T_S6_S5_RSaIT1_E
FN:256,_ZSt22__uninitialized_copy_aIN9__gnu_cxx17__normal_iteratorIPKN5Catch3PtrINS2_8TestSpec7PatternEEESt6vectorIS6_SaIS6_EEEEPS6_S6_ET0_T_SF_SE_RSaIT1_E
FN:256,_ZSt22__uninitialized_copy_aIPN5Catch3PtrINS0_22CumulativeReporterBase4NodeINS0_14TestGroupStatsENS3_INS0_13TestCaseStatsENS2_11SectionNodeEEEEEEESA_S9_ET0_T_SC_SB_RSaIT1_E
FN:256,_ZSt22__uninitialized_copy_aISt13move_iteratorIPN5Catch5Clara6Parser5TokenEES5_S4_ET0_T_S8_S7_RSaIT1_E
FN:256,_ZSt22__uninitialized_copy_aISt13move_iteratorIPN5Catch11SectionInfoEES3_S2_ET0_T_S6_S5_RSaIT1_E
FN:256,_ZSt22__uninitialized_copy_aISt13move_iteratorIPSsES1_SsET0_T_S4_S3_RSaIT1_E
FN:256,_ZSt22__uninitialized_copy_aIN9__gnu_cxx17__normal_iteratorIPKN5Catch8TestCaseESt6vectorIS3_SaIS3_EEEEPS3_S3_ET0_T_SC_SB_RSaIT1_E
FN:256,_ZSt22__uninitialized_copy_aIN9__gnu_cxx17__normal_iteratorIPKN5Catch11MessageInfoESt6vectorIS3_SaIS3_EEEEPS3_S3_ET0_T_SC_SB_RSaIT1_E
FN:256,_ZSt22__uninitialized_copy_aIPN5Catch8TestCaseES2_S1_ET0_T_S4_S3_RSaIT1_E
FN:256,_ZSt22__uninitialized_copy_aIPN5Catch3PtrINS0_22CumulativeReporterBase4NodeINS0_13TestCaseStatsENS2_11SectionNodeEEEEES8_S7_ET0_T_SA_S9_RSaIT1_E
FN:256,_ZSt22__uninitialized_copy_aIN9__gnu_cxx17__normal_iteratorIPKSsSt6vectorISsSaISsEEEEPSsSsET0_T_SA_S9_RSaIT1_E
FN:256,_ZSt22__uninitialized_copy_aISt13move_iteratorIPN5Catch11MessageInfoEES3_S2_ET0_T_S6_S5_RSaIT1_E
FN:274,_ZSt34__uninitialized_move_if_noexcept_aIPN5Catch8TestCaseES2_SaIS1_EET0_T_S5_S4_RT1_
FN:274,_ZSt34__uninitialized_move_if_noexcept_aIPN5Catch3PtrINS0_22CumulativeReporterBase4NodeINS0_14TestGroupStatsENS3_INS0_13TestCaseStatsENS2_11SectionNodeEEEEEEESA_SaIS9_EET0_T_SD_SC_RT1_
FN:274,_ZSt34__uninitialized_move_if_noexcept_aIPN5Catch3PtrINS0_22CumulativeReporterBase11SectionNodeEEES5_SaIS4_EET0_T_S8_S7_RT1_
FN:274,_ZSt34__uninitialized_move_if_noexcept_aIPjS0_SaIjEET0_T_S3_S2_RT1_
FN:274,_ZSt34__uninitialized_move_if_noexcept_aIPPN5Catch14IGeneratorInfoES3_SaIS2_EET0_T_S6_S5_RT1_
FN:274,_ZSt34__uninitialized_move_if_noexcept_aIPN5Catch14AssertionStatsES2_SaIS1_EET0_T_S5_S4_RT1_
FN:274,_ZSt34__uninitialized_move_if_noexcept_aIPN5Catch3PtrINS0_22CumulativeReporterBase4NodeINS0_13TestCaseStatsENS2_11SectionNodeEEEEES8_SaIS7_EET0_T_SB_SA_RT1_
FN:274,_ZSt34__uninitialized_move_if_noexcept_aIPN5Catch14SectionEndInfoES2_SaIS1_EET0_T_S5_S4_RT1_
FN:274,_ZSt34__uninitialized_move_if_noexcept_aIPN5Catch3PtrINS0_16TestCaseTracking8ITrackerEEES5_SaIS4_EET0_T_S8_S7_RT1_
FN:274,_ZSt34__uninitialized_move_if_noexcept_aIPN5Catch3PtrINS0_18IStreamingReporterEEES4_SaIS3_EET0_T_S7_S6_RT1_
FN:274,_ZSt34__uninitialized_move_if_noexcept_aIPN5Catch3PtrINS0_22CumulativeReporterBase4NodeINS0_12TestRunStatsENS3_INS0_14TestGroupStatsENS3_INS0_13TestCaseStatsENS2_11SectionNodeEEEEEEEEESC_SaISB_EET0_T_SF_SE_RT1_
FN:274,_ZSt34__uninitialized_move_if_noexcept_aIPN5Catch15ConsoleReporter13SummaryColumnES3_SaIS2_EET0_T_S6_S5_RT1_
FN:274,_ZSt34__uninitialized_move_if_noexcept_aIPPKN5Catch20IExceptionTranslatorES4_SaIS3_EET0_T_S7_S6_RT1_
FN:274,_ZSt34__uninitialized_move_if_noexcept_aIPN5Catch3PtrINS0_8TestSpec7PatternEEES5_SaIS4_EET0_T_S8_S7_RT1_
FN:274,_ZSt34__uninitialized_move_if_noexcept_aIPN5Catch11MessageInfoES2_SaIS1_EET0_T_S5_S4_RT1_
FN:274,_ZSt34__uninitialized_move_if_noexcept_aIPPN5Catch16TestCaseTracking8ITrackerES4_SaIS3_EET0_T_S7_S6_RT1_
FN:274,_ZSt34__uninitialized_move_if_noexcept_aIPN5Catch11SectionInfoES2_SaIS1_EET0_T_S5_S4_RT1_
FN:274,_ZSt34__uninitialized_move_if_noexcept_aIPSsS0_SaISsEET0_T_S3_S2_RT1_
FN:274,_ZSt34__uninitialized_move_if_noexcept_aIPN5Catch5Clara6Parser5TokenES4_SaIS3_EET0_T_S7_S6_RT1_
FN:274,_ZSt34__uninitialized_move_if_noexcept_aIPN5Catch8TestSpec6FilterES3_SaIS2_EET0_T_S6_S5_RT1_
FN:274,_ZSt34__uninitialized_move_if_noexcept_aIPN5Catch5Clara11CommandLineINS0_10ConfigDataEE3ArgES6_SaIS5_EET0_T_S9_S8_RT1_
FN:274,_ZSt34__uninitialized_move_if_noexcept_aIPN5Catch3PtrINS0_16IReporterFactoryEEES4_SaIS3_EET0_T_S7_S6_RT1_
FN:489,_ZNSt27__uninitialized_default_n_1ILb0EE18__uninit_default_nIPSsjEEvT_T0_
FN:538,_ZSt25__uninitialized_default_nIPSsjEvT_T0_
FN:603,_ZSt27__uninitialized_default_n_aIPSsjSsEvT_T0_RSaIT1_E
FNDA:6,_ZNSt20__uninitialized_copyILb0EE13__uninit_copyIPN5Catch5Clara11CommandLineINS2_10ConfigDataEE3ArgES8_EET0_T_SA_S9_
FNDA:2,_ZNSt20__uninitialized_copyILb0EE13__uninit_copyIN9__gnu_cxx17__normal_iteratorIPKN5Catch3PtrINS4_8TestSpec7PatternEEESt6vectorIS8_SaIS8_EEEEPS8_EET0_T_SH_SG_
FNDA:0,_ZNSt20__uninitialized_copyILb0EE13__uninit_copyISt13move_iteratorIPN5Catch15ConsoleReporter13SummaryColumnEES6_EET0_T_S9_S8_
FNDA:0,_ZNSt20__uninitialized_copyILb0EE13__uninit_copyIN9__gnu_cxx17__normal_iteratorIPKN5Catch5Clara6Parser5TokenESt6vectorIS7_SaIS7_EEEEPS7_EET0_T_SG_SF_
FNDA:2,_ZNSt20__uninitialized_copyILb0EE13__uninit_copyISt13move_iteratorIPN5Catch5Clara6Parser5TokenEES7_EET0_T_SA_S9_
FNDA:1,_ZNSt20__uninitialized_copyILb0EE13__uninit_copyIPN5Catch3PtrINS2_8TestSpec7PatternEEES7_EET0_T_S9_S8_
FNDA:1,_ZNSt20__uninitialized_copyILb0EE13__uninit_copyIPN5Catch3PtrINS2_22CumulativeReporterBase4NodeINS2_12TestRunStatsENS5_INS2_14TestGroupStatsENS5_INS2_13TestCaseStatsENS4_11SectionNodeEEEEEEEEESE_EET0_T_SG_SF_
FNDA:1,_ZNSt20__uninitialized_copyILb0EE13__uninit_copyIPN5Catch3PtrINS2_22CumulativeReporterBase4NodeINS2_14TestGroupStatsENS5_INS2_13TestCaseStatsENS4_11SectionNodeEEEEEEESC_EET0_T_SE_SD_
FNDA:2,_ZNSt20__uninitialized_copyILb0EE13__uninit_copyIPN5Catch3PtrINS2_22CumulativeReporterBase4NodeINS2_13TestCaseStatsENS4_11SectionNodeEEEEESA_EET0_T_SC_SB_
FNDA:4,_ZNSt20__uninitialized_copyILb0EE13__uninit_copyISt13move_iteratorIPN5Catch14AssertionStatsEES5_EET0_T_S8_S7_
FNDA:3,_ZNSt20__uninitialized_copyILb0EE13__uninit_copyIPN5Catch3PtrINS2_22CumulativeReporterBase11SectionNodeEEES7_EET0_T_S9_S8_
FNDA:0,_ZNSt20__uninitialized_copyILb0EE13__uninit_copyISt13move_iteratorIPN5Catch11SectionInfoEES5_EET0_T_S8_S7_
FNDA:0,_ZNSt20__uninitialized_copyILb0EE13__uninit_copyIPN5Catch3PtrINS2_18IStreamingReporterEEES6_EET0_T_S8_S7_
FNDA:0,_ZNSt20__uninitialized_copyILb0EE13__uninit_copyIPN5Catch3PtrINS2_16IReporterFactoryEEES6_EET0_T_S8_S7_
FNDA:0,_ZNSt20__uninitialized_copyILb0EE13__uninit_copyISt13move_iteratorIPN5Catch14SectionEndInfoEES5_EET0_T_S8_S7_
FNDA:2,_ZNSt20__uninitialized_copyILb0EE13__uninit_copyIPN5Catch3PtrINS2_16TestCaseTracking8ITrackerEEES7_EET0_T_S9_S8_
FNDA:0,_ZNSt20__uninitialized_copyILb0EE13__uninit_copyISt13move_iteratorIPN5Catch11MessageInfoEES5_EET0_T_S8_S7_
FNDA:22,_ZNSt20__uninitialized_copyILb0EE13__uninit_copyISt13move_iteratorIPSsES3_EET0_T_S6_S5_
FNDA:1,_ZNSt20__uninitialized_copyILb0EE13__uninit_copyISt13move_iteratorIPN5Catch8TestSpec6FilterEES6_EET0_T_S9_S8_
FNDA:2,_ZNSt20__uninitialized_copyILb0EE13__uninit_copyIPN5Catch8TestCaseES4_EET0_T_S6_S5_
FNDA:1,_ZNSt20__uninitialized_copyILb0EE13__uninit_copyIN9__gnu_cxx17__normal_iteratorIPKN5Catch8TestCaseESt6vectorIS5_SaIS5_EEEEPS5_EET0_T_SE_SD_
FNDA:1,_ZNSt20__uninitialized_copyILb0EE13__uninit_copyIN9__gnu_cxx17__normal_iteratorIPKN5Catch3PtrINS4_16IReporterFactoryEEESt6vectorIS7_SaIS7_EEEEPS7_EET0_T_SG_SF_
FNDA:8,_ZNSt20__uninitialized_copyILb0EE13__uninit_copyIN9__gnu_cxx17__normal_iteratorIPKN5Catch11MessageInfoESt6vectorIS5_SaIS5_EEEEPS5_EET0_T_SE_SD_
FNDA:35,_ZNSt20__uninitialized_copyILb0EE13__uninit_copyIN9__gnu_cxx17__normal_iteratorIPKSsSt6vectorISsSaISsEEEEPSsEET0_T_SC_SB_
FNDA:2,_ZNSt20__uninitialized_copyILb0EE13__uninit_copyIN9__gnu_cxx17__normal_iteratorIPKN5Catch8TestSpec6FilterESt6vectorIS6_SaIS6_EEEEPS6_EET0_T_SF_SE_
FNDA:0,_ZNSt20__uninitialized_copyILb1EE13__uninit_copyISt13move_iteratorIPPN5Catch16TestCaseTracking8ITrackerEES7_EET0_T_SA_S9_
FNDA:0,_ZNSt20__uninitialized_copyILb1EE13__uninit_copyISt13move_iteratorIPPN5Catch14IGeneratorInfoEES6_EET0_T_S9_S8_
FNDA:0,_ZNSt20__uninitialized_copyILb1EE13__uninit_copyISt13move_iteratorIPPKN5Catch20IExceptionTranslatorEES7_EET0_T_SA_S9_
FNDA:0,_ZNSt20__uninitialized_copyILb1EE13__uninit_copyISt13move_iteratorIPjES3_EET0_T_S6_S5_
FNDA:6,_ZSt18uninitialized_copyIPN5Catch5Clara11CommandLineINS0_10ConfigDataEE3ArgES6_ET0_T_S8_S7_
FNDA:2,_ZSt18uninitialized_copyIN9__gnu_cxx17__normal_iteratorIPKN5Catch3PtrINS2_8TestSpec7PatternEEESt6vectorIS6_SaIS6_EEEEPS6_ET0_T_SF_SE_
FNDA:0,_ZSt18uninitialized_copyISt13move_iteratorIPN5Catch15ConsoleReporter13SummaryColumnEES4_ET0_T_S7_S6_
FNDA:0,_ZSt18uninitialized_copyIN9__gnu_cxx17__normal_iteratorIPKN5Catch5Clara6Parser5TokenESt6vectorIS5_SaIS5_EEEEPS5_ET0_T_SE_SD_
FNDA:0,_ZSt18uninitialized_copyISt13move_iteratorIPPN5Catch16TestCaseTracking8ITrackerEES5_ET0_T_S8_S7_
FNDA:2,_ZSt18uninitialized_copyISt13move_iteratorIPN5Catch5Clara6Parser5TokenEES5_ET0_T_S8_S7_
FNDA:1,_ZSt18uninitialized_copyIPN5Catch3PtrINS0_8TestSpec7PatternEEES5_ET0_T_S7_S6_
FNDA:1,_ZSt18uninitialized_copyIPN5Catch3PtrINS0_22CumulativeReporterBase4NodeINS0_12TestRunStatsENS3_INS0_14TestGroupStatsENS3_INS0_13TestCaseStatsENS2_11SectionNodeEEEEEEEEESC_ET0_T_SE_SD_
FNDA:1,_ZSt18uninitialized_copyIPN5Catch3PtrINS0_22CumulativeReporterBase4NodeINS0_14TestGroupStatsENS3_INS0_13TestCaseStatsENS2_11SectionNodeEEEEEEESA_ET0_T_SC_SB_
FNDA:2,_ZSt18uninitialized_copyIPN5Catch3PtrINS0_22CumulativeReporterBase4NodeINS0_13TestCaseStatsENS2_11SectionNodeEEEEES8_ET0_T_SA_S9_
FNDA:4,_ZSt18uninitialized_copyISt13move_iteratorIPN5Catch14AssertionStatsEES3_ET0_T_S6_S5_
FNDA:3,_ZSt18uninitialized_copyIPN5Catch3PtrINS0_22CumulativeReporterBase11SectionNodeEEES5_ET0_T_S7_S6_
FNDA:0,_ZSt18uninitialized_copyISt13move_iteratorIPN5Catch11SectionInfoEES3_ET0_T_S6_S5_
FNDA:0,_ZSt18uninitialized_copyIPN5Catch3PtrINS0_18IStreamingReporterEEES4_ET0_T_S6_S5_
FNDA:0,_ZSt18uninitialized_copyISt13move_iteratorIPPN5Catch14IGeneratorInfoEES4_ET0_T_S7_S6_
FNDA:0,_ZSt18uninitialized_copyISt13move_iteratorIPPKN5Catch20IExceptionTranslatorEES5_ET0_T_S8_S7_
FNDA:0,_ZSt18uninitialized_copyIPN5Catch3PtrINS0_16IReporterFactoryEEES4_ET0_T_S6_S5_
FNDA:0,_ZSt18uninitialized_copyISt13move_iteratorIPN5Catch14SectionEndInfoEES3_ET0_T_S6_S5_
FNDA:2,_ZSt18uninitialized_copyIPN5Catch3PtrINS0_16TestCaseTracking8ITrackerEEES5_ET0_T_S7_S6_
FNDA:0,_ZSt18uninitialized_copyISt13move_iteratorIPN5Catch11MessageInfoEES3_ET0_T_S6_S5_
FNDA:22,_ZSt18uninitialized_copyISt13move_iteratorIPSsES1_ET0_T_S4_S3_
FNDA:1,_ZSt18uninitialized_copyISt13move_iteratorIPN5Catch8TestSpec6FilterEES4_ET0_T_S7_S6_
FNDA:0,_ZSt18uninitialized_copyISt13move_iteratorIPjES1_ET0_T_S4_S3_
FNDA:2,_ZSt18uninitialized_copyIPN5Catch8TestCaseES2_ET0_T_S4_S3_
FNDA:1,_ZSt18uninitialized_copyIN9__gnu_cxx17__normal_iteratorIPKN5Catch8TestCaseESt6vectorIS3_SaIS3_EEEEPS3_ET0_T_SC_SB_
FNDA:1,_ZSt18uninitialized_copyIN9__gnu_cxx17__normal_iteratorIPKN5Catch3PtrINS2_16IReporterFactoryEEESt6vectorIS5_SaIS5_EEEEPS5_ET0_T_SE_SD_
FNDA:8,_ZSt18uninitialized_copyIN9__gnu_cxx17__normal_iteratorIPKN5Catch11MessageInfoESt6vectorIS3_SaIS3_EEEEPS3_ET0_T_SC_SB_
FNDA:35,_ZSt18uninitialized_copyIN9__gnu_cxx17__normal_iteratorIPKSsSt6vectorISsSaISsEEEEPSsET0_T_SA_S9_
FNDA:2,_ZSt18uninitialized_copyIN9__gnu_cxx17__normal_iteratorIPKN5Catch8TestSpec6FilterESt6vectorIS4_SaIS4_EEEEPS4_ET0_T_SD_SC_
FNDA:6,_ZSt22__uninitialized_copy_aIPN5Catch5Clara11CommandLineINS0_10ConfigDataEE3ArgES6_S5_ET0_T_S8_S7_RSaIT1_E
FNDA:2,_ZSt22__uninitialized_copy_aIN9__gnu_cxx17__normal_iteratorIPKN5Catch3PtrINS2_8TestSpec7PatternEEESt6vectorIS6_SaIS6_EEEEPS6_S6_ET0_T_SF_SE_RSaIT1_E
FNDA:0,_ZSt22__uninitialized_copy_aISt13move_iteratorIPN5Catch15ConsoleReporter13SummaryColumnEES4_S3_ET0_T_S7_S6_RSaIT1_E
FNDA:0,_ZSt22__uninitialized_copy_aIN9__gnu_cxx17__normal_iteratorIPKN5Catch5Clara6Parser5TokenESt6vectorIS5_SaIS5_EEEEPS5_S5_ET0_T_SE_SD_RSaIT1_E
FNDA:0,_ZSt22__uninitialized_copy_aISt13move_iteratorIPPN5Catch16TestCaseTracking8ITrackerEES5_S4_ET0_T_S8_S7_RSaIT1_E
FNDA:2,_ZSt22__uninitialized_copy_aISt13move_iteratorIPN5Catch5Clara6Parser5TokenEES5_S4_ET0_T_S8_S7_RSaIT1_E
FNDA:1,_ZSt22__uninitialized_copy_aIPN5Catch3PtrINS0_8TestSpec7PatternEEES5_S4_ET0_T_S7_S6_RSaIT1_E
FNDA:1,_ZSt22__uninitialized_copy_aIPN5Catch3PtrINS0_22CumulativeReporterBase4NodeINS0_12TestRunStatsENS3_INS0_14TestGroupStatsENS3_INS0_13TestCaseStatsENS2_11SectionNodeEEEEEEEEESC_SB_ET0_T_SE_SD_RSaIT1_E
FNDA:1,_ZSt22__uninitialized_copy_aIPN5Catch3PtrINS0_22CumulativeReporterBase4NodeINS0_14TestGroupStatsENS3_INS0_13TestCaseStatsENS2_11SectionNodeEEEEEEESA_S9_ET0_T_SC_SB_RSaIT1_E
FNDA:2,_ZSt22__uninitialized_copy_aIPN5Catch3PtrINS0_22CumulativeReporterBase4NodeINS0_13TestCaseStatsENS2_11SectionNodeEEEEES8_S7_ET0_T_SA_S9_RSaIT1_E
FNDA:4,_ZSt22__uninitialized_copy_aISt13move_iteratorIPN5Catch14AssertionStatsEES3_S2_ET0_T_S6_S5_RSaIT1_E
FNDA:3,_ZSt22__uninitialized_copy_aIPN5Catch3PtrINS0_22CumulativeReporterBase11SectionNodeEEES5_S4_ET0_T_S7_S6_RSaIT1_E
FNDA:0,_ZSt22__uninitialized_copy_aISt13move_iteratorIPN5Catch11SectionInfoEES3_S2_ET0_T_S6_S5_RSaIT1_E
FNDA:0,_ZSt22__uninitialized_copy_aIPN5Catch3PtrINS0_18IStreamingReporterEEES4_S3_ET0_T_S6_S5_RSaIT1_E
FNDA:0,_ZSt22__uninitialized_copy_aISt13move_iteratorIPPN5Catch14IGeneratorInfoEES4_S3_ET0_T_S7_S6_RSaIT1_E
FNDA:0,_ZSt22__uninitialized_copy_aISt13move_iteratorIPPKN5Catch20IExceptionTranslatorEES5_S4_ET0_T_S8_S7_RSaIT1_E
FNDA:0,_ZSt22__uninitialized_copy_aIPN5Catch3PtrINS0_16IReporterFactoryEEES4_S3_ET0_T_S6_S5_RSaIT1_E
FNDA:0,_ZSt22__uninitialized_copy_aISt13move_iteratorIPN5Catch14SectionEndInfoEES3_S2_ET0_T_S6_S5_RSaIT1_E
FNDA:2,_ZSt22__uninitialized_copy_aIPN5Catch3PtrINS0_16TestCaseTracking8ITrackerEEES5_S4_ET0_T_S7_S6_RSaIT1_E
FNDA:0,_ZSt22__uninitialized_copy_aISt13move_iteratorIPN5Catch11MessageInfoEES3_S2_ET0_T_S6_S5_RSaIT1_E
FNDA:22,_ZSt22__uninitialized_copy_aISt13move_iteratorIPSsES1_SsET0_T_S4_S3_RSaIT1_E
FNDA:1,_ZSt22__uninitialized_copy_aISt13move_iteratorIPN5Catch8TestSpec6FilterEES4_S3_ET0_T_S7_S6_RSaIT1_E
FNDA:0,_ZSt22__uninitialized_copy_aISt13move_iteratorIPjES1_jET0_T_S4_S3_RSaIT1_E
FNDA:2,_ZSt22__uninitialized_copy_aIPN5Catch8TestCaseES2_S1_ET0_T_S4_S3_RSaIT1_E
FNDA:1,_ZSt22__uninitialized_copy_aIN9__gnu_cxx17__normal_iteratorIPKN5Catch8TestCaseESt6vectorIS3_SaIS3_EEEEPS3_S3_ET0_T_SC_SB_RSaIT1_E
FNDA:1,_ZSt22__uninitialized_copy_aIN9__gnu_cxx17__normal_iteratorIPKN5Catch3PtrINS2_16IReporterFactoryEEESt6vectorIS5_SaIS5_EEEEPS5_S5_ET0_T_SE_SD_RSaIT1_E
FNDA:8,_ZSt22__uninitialized_copy_aIN9__gnu_cxx17__normal_iteratorIPKN5Catch11MessageInfoESt6vectorIS3_SaIS3_EEEEPS3_S3_ET0_T_SC_SB_RSaIT1_E
FNDA:35,_ZSt22__uninitialized_copy_aIN9__gnu_cxx17__normal_iteratorIPKSsSt6vectorISsSaISsEEEEPSsSsET0_T_SA_S9_RSaIT1_E
FNDA:2,_ZSt22__uninitialized_copy_aIN9__gnu_cxx17__normal_iteratorIPKN5Catch8TestSpec6FilterESt6vectorIS4_SaIS4_EEEEPS4_S4_ET0_T_SD_SC_RSaIT1_E
FNDA:6,_ZSt34__uninitialized_move_if_noexcept_aIPN5Catch5Clara11CommandLineINS0_10ConfigDataEE3ArgES6_SaIS5_EET0_T_S9_S8_RT1_
FNDA:0,_ZSt34__uninitialized_move_if_noexcept_aIPN5Catch15ConsoleReporter13SummaryColumnES3_SaIS2_EET0_T_S6_S5_RT1_
FNDA:0,_ZSt34__uninitialized_move_if_noexcept_aIPPN5Catch16TestCaseTracking8ITrackerES4_SaIS3_EET0_T_S7_S6_RT1_
FNDA:2,_ZSt34__uninitialized_move_if_noexcept_aIPN5Catch5Clara6Parser5TokenES4_SaIS3_EET0_T_S7_S6_RT1_
FNDA:1,_ZSt34__uninitialized_move_if_noexcept_aIPN5Catch3PtrINS0_8TestSpec7PatternEEES5_SaIS4_EET0_T_S8_S7_RT1_
FNDA:1,_ZSt34__uninitialized_move_if_noexcept_aIPN5Catch3PtrINS0_22CumulativeReporterBase4NodeINS0_12TestRunStatsENS3_INS0_14TestGroupStatsENS3_INS0_13TestCaseStatsENS2_11SectionNodeEEEEEEEEESC_SaISB_EET0_T_SF_SE_RT1_
FNDA:1,_ZSt34__uninitialized_move_if_noexcept_aIPN5Catch3PtrINS0_22CumulativeReporterBase4NodeINS0_14TestGroupStatsENS3_INS0_13TestCaseStatsENS2_11SectionNodeEEEEEEESA_SaIS9_EET0_T_SD_SC_RT1_
FNDA:2,_ZSt34__uninitialized_move_if_noexcept_aIPN5Catch3PtrINS0_22CumulativeReporterBase4NodeINS0_13TestCaseStatsENS2_11SectionNodeEEEEES8_SaIS7_EET0_T_SB_SA_RT1_
FNDA:4,_ZSt34__uninitialized_move_if_noexcept_aIPN5Catch14AssertionStatsES2_SaIS1_EET0_T_S5_S4_RT1_
FNDA:3,_ZSt34__uninitialized_move_if_noexcept_aIPN5Catch3PtrINS0_22CumulativeReporterBase11SectionNodeEEES5_SaIS4_EET0_T_S8_S7_RT1_
FNDA:0,_ZSt34__uninitialized_move_if_noexcept_aIPN5Catch11SectionInfoES2_SaIS1_EET0_T_S5_S4_RT1_
FNDA:0,_ZSt34__uninitialized_move_if_noexcept_aIPN5Catch3PtrINS0_18IStreamingReporterEEES4_SaIS3_EET0_T_S7_S6_RT1_
FNDA:0,_ZSt34__uninitialized_move_if_noexcept_aIPPN5Catch14IGeneratorInfoES3_SaIS2_EET0_T_S6_S5_RT1_
FNDA:0,_ZSt34__uninitialized_move_if_noexcept_aIPPKN5Catch20IExceptionTranslatorES4_SaIS3_EET0_T_S7_S6_RT1_
FNDA:0,_ZSt34__uninitialized_move_if_noexcept_aIPN5Catch3PtrINS0_16IReporterFactoryEEES4_SaIS3_EET0_T_S7_S6_RT1_
FNDA:2,_ZSt34__uninitialized_move_if_noexcept_aIPN5Catch8TestCaseES2_SaIS1_EET0_T_S5_S4_RT1_
FNDA:0,_ZSt34__uninitialized_move_if_noexcept_aIPN5Catch14SectionEndInfoES2_SaIS1_EET0_T_S5_S4_RT1_
FNDA:2,_ZSt34__uninitialized_move_if_noexcept_aIPN5Catch3PtrINS0_16TestCaseTracking8ITrackerEEES5_SaIS4_EET0_T_S8_S7_RT1_
FNDA:0,_ZSt34__uninitialized_move_if_noexcept_aIPN5Catch11MessageInfoES2_SaIS1_EET0_T_S5_S4_RT1_
FNDA:22,_ZSt34__uninitialized_move_if_noexcept_aIPSsS0_SaISsEET0_T_S3_S2_RT1_
FNDA:1,_ZSt34__uninitialized_move_if_noexcept_aIPN5Catch8TestSpec6FilterES3_SaIS2_EET0_T_S6_S5_RT1_
FNDA:0,_ZSt34__uninitialized_move_if_noexcept_aIPjS0_SaIjEET0_T_S3_S2_RT1_
FNDA:1,_ZNSt27__uninitialized_default_n_1ILb0EE18__uninit_default_nIPSsjEEvT_T0_
FNDA:1,_ZSt25__uninitialized_default_nIPSsjEvT_T0_
FNDA:1,_ZSt27__uninitialized_default_n_aIPSsjSsEvT_T0_RSaIT1_E
FNF:112
FNH:69
DA:68,96
DA:71,96
DA:74,179
DA:75,83
DA:76,96
DA:78,0
DA:80,0
DA:81,0
DA:91,0
DA:93,0
DA:107,96
DA:117,96
DA:256,96
DA:258,96
DA:274,47
DA:281,47
DA:489,1
DA:491,1
DA:494,4
DA:495,3
DA:497,0
DA:499,0
DA:500,0
DA:502,1
DA:538,1
DA:543,1
DA:545,1
DA:603,1
DA:605,1
LF:29
LH:21
end_of_record
SF:/opt/Programs/buildroot-at91/output/host/usr/arm-buildroot-linux-gnueabi/include/c++/4.8.2/bits/stl_vector.h
FN:79,_ZNSt12_Vector_baseIN5Catch14SectionEndInfoESaIS1_EE12_Vector_implD2Ev
FN:79,_ZNSt12_Vector_baseIPN5Catch14IGeneratorInfoESaIS2_EE12_Vector_implD2Ev
FN:79,_ZNSt12_Vector_baseIN5Catch5Clara6Parser5TokenESaIS3_EE12_Vector_implD2Ev
FN:79,_ZNSt12_Vector_baseIN5Catch3PtrINS0_22CumulativeReporterBase4NodeINS0_12TestRunStatsENS3_INS0_14TestGroupStatsENS3_INS0_13TestCaseStatsENS2_11SectionNodeEEEEEEEEESaISB_EE12_Vector_implD2Ev
FN:79,_ZNSt12_Vector_baseIN5Catch3PtrINS0_22CumulativeReporterBase11SectionNodeEEESaIS4_EE12_Vector_implD2Ev
FN:79,_ZNSt12_Vector_baseIN5Catch8TestCaseESaIS1_EE12_Vector_implD2Ev
FN:79,_ZNSt12_Vector_baseIN5Catch14AssertionStatsESaIS1_EE12_Vector_implD2Ev
FN:79,_ZNSt12_Vector_baseIPKN5Catch8Matchers4Impl11MatcherBaseISsSsEESaIS6_EE12_Vector_implD2Ev
FN:79,_ZNSt12_Vector_baseIPN5Catch16TestCaseTracking8ITrackerESaIS3_EE12_Vector_implD2Ev
FN:79,_ZNSt12_Vector_baseIN5Catch3PtrINS0_22CumulativeReporterBase4NodeINS0_13TestCaseStatsENS2_11SectionNodeEEEEESaIS7_EE12_Vector_implD2Ev
FN:79,_ZNSt12_Vector_baseIPKN5Catch20IExceptionTranslatorESaIS3_EE12_Vector_implD2Ev
FN:79,_ZNSt12_Vector_baseISt6vectorIN5Catch3PtrINS1_22CumulativeReporterBase11SectionNodeEEESaIS5_EESaIS7_EE12_Vector_implD2Ev
FN:79,_ZNSt12_Vector_baseISsSaISsEE12_Vector_implD2Ev
FN:79,_ZNSt12_Vector_baseIN5Catch5Clara11CommandLineINS0_10ConfigDataEE3ArgESaIS5_EE12_Vector_implD2Ev
FN:79,_ZNSt12_Vector_baseIN5Catch8TestSpec6FilterESaIS2_EE12_Vector_implD2Ev
FN:79,_ZNSt12_Vector_baseIN5Catch15ConsoleReporter13SummaryColumnESaIS2_EE12_Vector_implD2Ev
FN:79,_ZNSt12_Vector_baseIN5Catch3PtrINS0_16TestCaseTracking8ITrackerEEESaIS4_EE12_Vector_implD2Ev
FN:79,_ZNSt12_Vector_baseIN5Catch11SectionInfoESaIS1_EE12_Vector_implD2Ev
FN:79,_ZNSt12_Vector_baseIN5Catch11MessageInfoESaIS1_EE12_Vector_implD2Ev
FN:79,_ZNSt12_Vector_baseIN5Catch3PtrINS0_18IStreamingReporterEEESaIS3_EE12_Vector_implD2Ev
FN:79,_ZNSt12_Vector_baseIN5Catch3PtrINS0_22CumulativeReporterBase4NodeINS0_14TestGroupStatsENS3_INS0_13TestCaseStatsENS2_11SectionNodeEEEEEEESaIS9_EE12_Vector_implD2Ev
FN:79,_ZNSt12_Vector_baseIN5Catch3PtrINS0_8TestSpec7PatternEEESaIS4_EE12_Vector_implD2Ev
FN:79,_ZNSt12_Vector_baseIjSaIjEE12_Vector_implD2Ev
FN:79,_ZNSt12_Vector_baseIN5Catch3PtrINS0_16IReporterFactoryEEESaIS3_EE12_Vector_implD2Ev
FN:86,_ZNSt12_Vector_baseIN5Catch3PtrINS0_16TestCaseTracking8ITrackerEEESaIS4_EE12_Vector_implC2Ev
FN:86,_ZNSt12_Vector_baseIPN5Catch14IGeneratorInfoESaIS2_EE12_Vector_implC2Ev
FN:86,_ZNSt12_Vector_baseISsSaISsEE12_Vector_implC2Ev
FN:86,_ZNSt12_Vector_baseIN5Catch3PtrINS0_16IReporterFactoryEEESaIS3_EE12_Vector_implC2Ev
FN:86,_ZNSt12_Vector_baseIPKN5Catch8Matchers4Impl11MatcherBaseISsSsEESaIS6_EE12_Vector_implC2Ev
FN:86,_ZNSt12_Vector_baseIN5Catch3PtrINS0_8TestSpec7PatternEEESaIS4_EE12_Vector_implC2Ev
FN:86,_ZNSt12_Vector_baseIN5Catch3PtrINS0_18IStreamingReporterEEESaIS3_EE12_Vector_implC2Ev
FN:86,_ZNSt12_Vector_baseIN5Catch14AssertionStatsESaIS1_EE12_Vector_implC2Ev
FN:86,_ZNSt12_Vector_baseIN5Catch8TestSpec6FilterESaIS2_EE12_Vector_implC2Ev
FN:86,_ZNSt12_Vector_baseIN5Catch11SectionInfoESaIS1_EE12_Vector_implC2Ev
FN:86,_ZNSt12_Vector_baseIjSaIjEE12_Vector_implC2Ev
FN:86,_ZNSt12_Vector_baseIN5Catch15ConsoleReporter13SummaryColumnESaIS2_EE12_Vector_implC2Ev
FN:86,_ZNSt12_Vector_baseIN5Catch3PtrINS0_22CumulativeReporterBase4NodeINS0_12TestRunStatsENS3_INS0_14TestGroupStatsENS3_INS0_13TestCaseStatsENS2_11SectionNodeEEEEEEEEESaISB_EE12_Vector_implC2Ev
FN:86,_ZNSt12_Vector_baseIN5Catch8TestCaseESaIS1_EE12_Vector_implC2Ev
FN:86,_ZNSt12_Vector_baseIN5Catch14SectionEndInfoESaIS1_EE12_Vector_implC2Ev
FN:86,_ZNSt12_Vector_baseIPKN5Catch20IExceptionTranslatorESaIS3_EE12_Vector_implC2Ev
FN:86,_ZNSt12_Vector_baseIPN5Catch16TestCaseTracking8ITrackerESaIS3_EE12_Vector_implC2Ev
FN:86,_ZNSt12_Vector_baseIN5Catch11MessageInfoESaIS1_EE12_Vector_implC2Ev
FN:86,_ZNSt12_Vector_baseIN5Catch5Clara11CommandLineINS0_10ConfigDataEE3ArgESaIS5_EE12_Vector_implC2Ev
FN:86,_ZNSt12_Vector_baseIN5Catch5Clara6Parser5TokenESaIS3_EE12_Vector_implC2Ev
FN:86,_ZNSt12_Vector_baseISt6vectorIN5Catch3PtrINS1_22CumulativeReporterBase11SectionNodeEEESaIS5_EESaIS7_EE12_Vector_implC2Ev
FN:86,_ZNSt12_Vector_baseIN5Catch3PtrINS0_22CumulativeReporterBase11SectionNodeEEESaIS4_EE12_Vector_implC2Ev
FN:86,_ZNSt12_Vector_baseIN5Catch3PtrINS0_22CumulativeReporterBase4NodeINS0_13TestCaseStatsENS2_11SectionNodeEEEEESaIS7_EE12_Vector_implC2Ev
FN:86,_ZNSt12_Vector_baseIN5Catch3PtrINS0_22CumulativeReporterBase4NodeINS0_14TestGroupStatsENS3_INS0_13TestCaseStatsENS2_11SectionNodeEEEEEEESaIS9_EE12_Vector_implC2Ev
FN:90,_ZNSt12_Vector_baseIN5Catch5Clara6Parser5TokenESaIS3_EE12_Vector_implC2ERKS4_
FN:90,_ZNSt12_Vector_baseIN5Catch3PtrINS0_8TestSpec7PatternEEESaIS4_EE12_Vector_implC2ERKS5_
FN:90,_ZNSt12_Vector_baseIN5Catch8TestSpec6FilterESaIS2_EE12_Vector_implC2ERKS3_
FN:90,_ZNSt12_Vector_baseIN5Catch11MessageInfoESaIS1_EE12_Vector_implC2ERKS2_
FN:90,_ZNSt12_Vector_baseIN5Catch3PtrINS0_16IReporterFactoryEEESaIS3_EE12_Vector_implC2ERKS4_
FN:90,_ZNSt12_Vector_baseISsSaISsEE12_Vector_implC2ERKS0_
FN:90,_ZNSt12_Vector_baseIN5Catch8TestCaseESaIS1_EE12_Vector_implC2ERKS2_
FN:95,_ZNSt12_Vector_baseIN5Catch11MessageInfoESaIS1_EE12_Vector_implC2EOS2_
FN:95,_ZNSt12_Vector_baseIN5Catch8TestSpec6FilterESaIS2_EE12_Vector_implC2EOS3_
FN:95,_ZNSt12_Vector_baseIN5Catch8TestCaseESaIS1_EE12_Vector_implC2EOS2_
FN:95,_ZNSt12_Vector_baseIN5Catch3PtrINS0_8TestSpec7PatternEEESaIS4_EE12_Vector_implC2EOS5_
FN:95,_ZNSt12_Vector_baseIN5Catch5Clara6Parser5TokenESaIS3_EE12_Vector_implC2EOS4_
FN:95,_ZNSt12_Vector_baseISsSaISsEE12_Vector_implC2EOS0_
FN:101,_ZNSt12_Vector_baseIN5Catch3PtrINS0_22CumulativeReporterBase4NodeINS0_13TestCaseStatsENS2_11SectionNodeEEEEESaIS7_EE12_Vector_impl12_M_swap_dataERSA_
FN:101,_ZNSt12_Vector_baseIN5Catch8TestCaseESaIS1_EE12_Vector_impl12_M_swap_dataERS4_
FN:101,_ZNSt12_Vector_baseIN5Catch11MessageInfoESaIS1_EE12_Vector_impl12_M_swap_dataERS4_
FN:101,_ZNSt12_Vector_baseIN5Catch3PtrINS0_22CumulativeReporterBase4NodeINS0_14TestGroupStatsENS3_INS0_13TestCaseStatsENS2_11SectionNodeEEEEEEESaIS9_EE12_Vector_impl12_M_swap_dataERSC_
FN:101,_ZNSt12_Vector_baseISsSaISsEE12_Vector_impl12_M_swap_dataERS2_
FN:101,_ZNSt12_Vector_baseIN5Catch5Clara6Parser5TokenESaIS3_EE12_Vector_impl12_M_swap_dataERS6_
FN:101,_ZNSt12_Vector_baseIN5Catch3PtrINS0_8TestSpec7PatternEEESaIS4_EE12_Vector_impl12_M_swap_dataERS7_
FN:101,_ZNSt12_Vector_baseIN5Catch8TestSpec6FilterESaIS2_EE12_Vector_impl12_M_swap_dataERS5_
FN:113,_ZNSt12_Vector_baseIN5Catch15ConsoleReporter13SummaryColumnESaIS2_EE19_M_get_Tp_allocatorEv
FN:113,_ZNSt12_Vector_baseIN5Catch3PtrINS0_18IStreamingReporterEEESaIS3_EE19_M_get_Tp_allocatorEv
FN:113,_ZNSt12_Vector_baseIN5Catch5Clara11CommandLineINS0_10ConfigDataEE3ArgESaIS5_EE19_M_get_Tp_allocatorEv
FN:113,_ZNSt12_Vector_baseIN5Catch8TestCaseESaIS1_EE19_M_get_Tp_allocatorEv
FN:113,_ZNSt12_Vector_baseIPKN5Catch8Matchers4Impl11MatcherBaseISsSsEESaIS6_EE19_M_get_Tp_allocatorEv
FN:113,_ZNSt12_Vector_baseIPN5Catch16TestCaseTracking8ITrackerESaIS3_EE19_M_get_Tp_allocatorEv
FN:113,_ZNSt12_Vector_baseIN5Catch5Clara6Parser5TokenESaIS3_EE19_M_get_Tp_allocatorEv
FN:113,_ZNSt12_Vector_baseIjSaIjEE19_M_get_Tp_allocatorEv
